TN:
SF:/home/zach/catkin_ws/src/final_map_mobile/src/Navigation.cpp
FN:57,_ZN10NavigationC2Ev
FN:77,_ZN10NavigationD2Ev
FN:93,_ZN10Navigation12laneCallbackERKN5boost10shared_ptrIKN8std_msgs8Float32_ISaIvEEEEE
FN:113,_ZN10Navigation12signCallbackERKN5boost10shared_ptrIKN8std_msgs5Int8_ISaIvEEEEE
FN:151,_ZN10Navigation11getAngularVEv
FN:156,_ZN10Navigation10getLinearVEv
FN:159,_GLOBAL__sub_I__ZN10NavigationC2Ev
FN:159,_Z41__static_initialization_and_destruction_0ii
FNDA:6,_ZN10NavigationC2Ev
FNDA:6,_ZN10NavigationD2Ev
FNDA:3,_ZN10Navigation12laneCallbackERKN5boost10shared_ptrIKN8std_msgs8Float32_ISaIvEEEEE
FNDA:3,_ZN10Navigation12signCallbackERKN5boost10shared_ptrIKN8std_msgs5Int8_ISaIvEEEEE
FNDA:3,_ZN10Navigation11getAngularVEv
FNDA:3,_ZN10Navigation10getLinearVEv
FNDA:1,_GLOBAL__sub_I__ZN10NavigationC2Ev
FNDA:1,_Z41__static_initialization_and_destruction_0ii
FNF:8
FNH:8
DA:57,6
DA:58,6
DA:59,12
DA:61,6
DA:62,6
DA:63,6
DA:64,6
DA:65,6
DA:66,6
DA:67,6
DA:68,6
DA:77,12
DA:78,6
DA:79,6
DA:80,6
DA:81,6
DA:82,6
DA:83,6
DA:84,6
DA:93,3
DA:94,3
DA:95,3
DA:96,1
DA:97,1
DA:98,2
DA:99,1
DA:100,1
DA:102,1
DA:104,3
DA:105,3
DA:113,3
DA:114,3
DA:115,6
DA:117,3
DA:118,2
DA:119,1
DA:120,201
DA:121,100
DA:122,100
DA:123,100
DA:124,100
DA:125,100
DA:126,100
DA:128,1
DA:129,1
DA:131,2
DA:132,1
DA:133,12079125
DA:134,6039562
DA:135,6039562
DA:136,6039562
DA:140,1
DA:141,1
DA:142,1
DA:144,3
DA:151,3
DA:152,3
DA:153,3
DA:156,3
DA:157,3
DA:158,3
DA:159,3
LF:62
LH:62
end_of_record
SF:/opt/ros/kinetic/include/geometry_msgs/Twist.h
FN:28,_ZN13geometry_msgs6Twist_ISaIvEEC2Ev
FN:122,_ZN3ros14message_traits6MD5SumIN13geometry_msgs6Twist_ISaIvEEEE5valueEv
FN:127,_ZN3ros14message_traits6MD5SumIN13geometry_msgs6Twist_ISaIvEEEE5valueERKS5_
FN:135,_ZN3ros14message_traits8DataTypeIN13geometry_msgs6Twist_ISaIvEEEE5valueEv
FN:140,_ZN3ros14message_traits8DataTypeIN13geometry_msgs6Twist_ISaIvEEEE5valueERKS5_
FN:146,_ZN3ros14message_traits10DefinitionIN13geometry_msgs6Twist_ISaIvEEEE5valueEv
FN:180,_ZN3ros13serialization10SerializerIN13geometry_msgs6Twist_ISaIvEEEE8allInOneINS0_7LStreamERKS5_EEvRT_T0_
FN:180,_ZN3ros13serialization10SerializerIN13geometry_msgs6Twist_ISaIvEEEE8allInOneINS0_7OStreamERKS5_EEvRT_T0_
FN:186,_ZN3ros13serialization10SerializerIN13geometry_msgs6Twist_ISaIvEEEE16serializedLengthIS5_EEjRKT_
FN:186,_ZN3ros13serialization10SerializerIN13geometry_msgs6Twist_ISaIvEEEE5writeINS0_7OStreamES5_EEvRT_RKT0_
FNDA:6,_ZN13geometry_msgs6Twist_ISaIvEEC2Ev
FNDA:12079536,_ZN3ros14message_traits6MD5SumIN13geometry_msgs6Twist_ISaIvEEEE5valueEv
FNDA:12079530,_ZN3ros14message_traits6MD5SumIN13geometry_msgs6Twist_ISaIvEEEE5valueERKS5_
FNDA:6,_ZN3ros14message_traits8DataTypeIN13geometry_msgs6Twist_ISaIvEEEE5valueEv
FNDA:0,_ZN3ros14message_traits8DataTypeIN13geometry_msgs6Twist_ISaIvEEEE5valueERKS5_
FNDA:6,_ZN3ros14message_traits10DefinitionIN13geometry_msgs6Twist_ISaIvEEEE5valueEv
FNDA:0,_ZN3ros13serialization10SerializerIN13geometry_msgs6Twist_ISaIvEEEE8allInOneINS0_7OStreamERKS5_EEvRT_T0_
FNDA:0,_ZN3ros13serialization10SerializerIN13geometry_msgs6Twist_ISaIvEEEE8allInOneINS0_7LStreamERKS5_EEvRT_T0_
FNDA:0,_ZN3ros13serialization10SerializerIN13geometry_msgs6Twist_ISaIvEEEE5writeINS0_7OStreamES5_EEvRT_RKT0_
FNDA:0,_ZN3ros13serialization10SerializerIN13geometry_msgs6Twist_ISaIvEEEE16serializedLengthIS5_EEjRKT_
FNF:10
FNH:5
DA:28,6
DA:30,6
DA:31,6
DA:122,12079536
DA:124,12079536
DA:127,12079530
DA:135,6
DA:137,6
DA:140,0
DA:146,6
DA:148,6
DA:180,0
DA:182,0
DA:183,0
DA:184,0
DA:186,0
LF:16
LH:10
end_of_record
SF:/opt/ros/kinetic/include/geometry_msgs/Vector3.h
FN:26,_ZN13geometry_msgs8Vector3_ISaIvEEC2Ev
FN:177,_ZN3ros13serialization10SerializerIN13geometry_msgs8Vector3_ISaIvEEEE8allInOneINS0_7LStreamERKS5_EEvRT_T0_
FN:177,_ZN3ros13serialization10SerializerIN13geometry_msgs8Vector3_ISaIvEEEE8allInOneINS0_7OStreamERKS5_EEvRT_T0_
FN:184,_ZN3ros13serialization10SerializerIN13geometry_msgs8Vector3_ISaIvEEEE5writeINS0_7OStreamES5_EEvRT_RKT0_
FN:184,_ZN3ros13serialization10SerializerIN13geometry_msgs8Vector3_ISaIvEEEE16serializedLengthIS5_EEjRKT_
FNDA:12,_ZN13geometry_msgs8Vector3_ISaIvEEC2Ev
FNDA:0,_ZN3ros13serialization10SerializerIN13geometry_msgs8Vector3_ISaIvEEEE8allInOneINS0_7OStreamERKS5_EEvRT_T0_
FNDA:0,_ZN3ros13serialization10SerializerIN13geometry_msgs8Vector3_ISaIvEEEE8allInOneINS0_7LStreamERKS5_EEvRT_T0_
FNDA:0,_ZN3ros13serialization10SerializerIN13geometry_msgs8Vector3_ISaIvEEEE5writeINS0_7OStreamES5_EEvRT_RKT0_
FNDA:0,_ZN3ros13serialization10SerializerIN13geometry_msgs8Vector3_ISaIvEEEE16serializedLengthIS5_EEjRKT_
FNF:5
FNH:1
DA:26,12
DA:29,12
DA:30,12
DA:177,0
DA:179,0
DA:180,0
DA:181,0
DA:182,0
DA:184,0
LF:9
LH:3
end_of_record
SF:/opt/ros/kinetic/include/ros/advertise_options.h
FN:41,_ZN3ros16AdvertiseOptionsD2Ev
FN:43,_ZN3ros16AdvertiseOptionsC2Ev
FN:84,_ZN3ros16AdvertiseOptions4initIN13geometry_msgs6Twist_ISaIvEEEEEvRKNSt7__cxx1112basic_stringIcSt11char_traitsIcESaIcEEEjRKN5boost8functionIFvRKNS_25SingleSubscriberPublisherEEEESM_
FNDA:0,_ZN3ros16AdvertiseOptionsD2Ev
FNDA:0,_ZN3ros16AdvertiseOptionsC2Ev
FNDA:6,_ZN3ros16AdvertiseOptions4initIN13geometry_msgs6Twist_ISaIvEEEEEvRKNSt7__cxx1112basic_stringIcSt11char_traitsIcESaIcEEEjRKN5boost8functionIFvRKNS_25SingleSubscriberPublisherEEEESM_
FNF:3
FNH:1
DA:41,0
DA:43,0
DA:45,0
DA:47,0
DA:84,6
DA:88,6
DA:89,6
DA:90,6
DA:91,6
DA:92,6
DA:93,6
DA:94,6
DA:95,6
DA:96,6
LF:14
LH:10
end_of_record
SF:/opt/ros/kinetic/include/ros/duration.h
FN:76,_ZN3ros12DurationBaseINS_8DurationEEC2Ev
FN:79,_ZN3ros12DurationBaseINS_8DurationEED2Ev
FN:108,_ZN3ros8DurationD2Ev
FN:119,_ZN3ros8DurationC2Ed
FNDA:6039664,_ZN3ros12DurationBaseINS_8DurationEEC2Ev
FNDA:12079358,_ZN3ros12DurationBaseINS_8DurationEED2Ev
FNDA:12079358,_ZN3ros8DurationD2Ev
FNDA:6039664,_ZN3ros8DurationC2Ed
FNF:4
FNH:4
DA:76,6039664
DA:79,12079358
DA:108,12079358
DA:119,6039664
LF:4
LH:4
end_of_record
SF:/opt/ros/kinetic/include/ros/message_traits.h
FN:226,_ZN3ros14message_traits6md5sumIN13geometry_msgs6Twist_ISaIvEEEEEPKcv
FN:235,_ZN3ros14message_traits8datatypeIN13geometry_msgs6Twist_ISaIvEEEEEPKcv
FN:244,_ZN3ros14message_traits10definitionIN13geometry_msgs6Twist_ISaIvEEEEEPKcv
FN:253,_ZN3ros14message_traits6md5sumIN13geometry_msgs6Twist_ISaIvEEEEEPKcRKT_
FN:262,_ZN3ros14message_traits8datatypeIN13geometry_msgs6Twist_ISaIvEEEEEPKcRKT_
FN:352,_ZN3ros14message_traits9hasHeaderIN13geometry_msgs6Twist_ISaIvEEEEEbv
FNDA:6,_ZN3ros14message_traits6md5sumIN13geometry_msgs6Twist_ISaIvEEEEEPKcv
FNDA:6,_ZN3ros14message_traits8datatypeIN13geometry_msgs6Twist_ISaIvEEEEEPKcv
FNDA:6,_ZN3ros14message_traits10definitionIN13geometry_msgs6Twist_ISaIvEEEEEPKcv
FNDA:12079530,_ZN3ros14message_traits6md5sumIN13geometry_msgs6Twist_ISaIvEEEEEPKcRKT_
FNDA:0,_ZN3ros14message_traits8datatypeIN13geometry_msgs6Twist_ISaIvEEEEEPKcRKT_
FNDA:6,_ZN3ros14message_traits9hasHeaderIN13geometry_msgs6Twist_ISaIvEEEEEbv
FNF:6
FNH:5
DA:226,6
DA:228,6
DA:235,6
DA:237,6
DA:244,6
DA:246,6
DA:253,12079530
DA:255,12079530
DA:262,0
DA:264,0
DA:352,6
DA:354,6
LF:12
LH:10
end_of_record
SF:/opt/ros/kinetic/include/ros/node_handle.h
FN:249,_ZN3ros10NodeHandle9advertiseIN13geometry_msgs6Twist_ISaIvEEEEENS_9PublisherERKNSt7__cxx1112basic_stringIcSt11char_traitsIcESaIcEEEjb
FNDA:6,_ZN3ros10NodeHandle9advertiseIN13geometry_msgs6Twist_ISaIvEEEEENS_9PublisherERKNSt7__cxx1112basic_stringIcSt11char_traitsIcESaIcEEEjb
FNF:1
FNH:1
DA:249,6
DA:251,12
DA:252,6
DA:253,6
DA:254,12
LF:5
LH:5
end_of_record
SF:/opt/ros/kinetic/include/ros/publisher.h
FN:47,_ZN3ros9PublisheraSERKS0_
FN:50,_ZN3ros9PublisherC2Ev
FN:95,_ZNK3ros9Publisher7publishIN13geometry_msgs6Twist_ISaIvEEEEEvRKT_
FNDA:0,_ZN3ros9PublisheraSERKS0_
FNDA:0,_ZN3ros9PublisherC2Ev
FNDA:6039765,_ZNK3ros9Publisher7publishIN13geometry_msgs6Twist_ISaIvEEEEEvRKT_
FNF:3
FNH:1
DA:47,0
DA:50,0
DA:95,6039765
DA:100,6039765
DA:102,0
DA:103,0
DA:106,6039765
DA:108,0
DA:109,0
DA:112,6039765
DA:117,12079530
DA:118,6039765
LF:12
LH:6
end_of_record
SF:/opt/ros/kinetic/include/ros/rate.h
FN:51,_ZN3ros4RateD2Ev
FNDA:15,_ZN3ros4RateD2Ev
FNF:1
FNH:1
DA:51,15
LF:1
LH:1
end_of_record
SF:/opt/ros/kinetic/include/ros/serialization.h
FN:152,_ZN3ros13serialization9serializeIN13geometry_msgs6Twist_ISaIvEEENS0_7OStreamEEEvRT0_RKT_
FN:152,_ZN3ros13serialization9serializeIjNS0_7OStreamEEEvRT0_RKT_
FN:152,_ZN3ros13serialization9serializeIdNS0_7OStreamEEEvRT0_RKT_
FN:152,_ZN3ros13serialization9serializeIN13geometry_msgs8Vector3_ISaIvEEENS0_7OStreamEEEvRT0_RKT_
FN:170,_ZN3ros13serialization19serializationLengthIN13geometry_msgs6Twist_ISaIvEEEEEjRKT_
FN:170,_ZN3ros13serialization19serializationLengthIdEEjRKT_
FN:170,_ZN3ros13serialization19serializationLengthIN13geometry_msgs8Vector3_ISaIvEEEEEjRKT_
FN:198,_ZN3ros13serialization10SerializerIjE5writeINS0_7OStreamEEEvRT_j
FN:203,_ZN3ros13serialization10SerializerIdE16serializedLengthERKd
FN:203,_ZN3ros13serialization10SerializerIdE5writeINS0_7OStreamEEEvRT_d
FN:667,_ZN3ros13serialization6Stream7getDataEv
FN:692,_ZN3ros13serialization6StreamC2EPhj
FN:737,_ZN3ros13serialization7OStreamC2EPhj
FN:769,_ZN3ros13serialization7LStreamC2Ev
FN:795,_ZN3ros13serialization7LStream9getLengthEv
FN:805,_ZN3ros13serialization16serializeMessageIN13geometry_msgs6Twist_ISaIvEEEEENS_17SerializedMessageERKT_
FNDA:0,_ZN3ros13serialization9serializeIdNS0_7OStreamEEEvRT0_RKT_
FNDA:0,_ZN3ros13serialization9serializeIN13geometry_msgs8Vector3_ISaIvEEENS0_7OStreamEEEvRT0_RKT_
FNDA:0,_ZN3ros13serialization9serializeIN13geometry_msgs6Twist_ISaIvEEENS0_7OStreamEEEvRT0_RKT_
FNDA:0,_ZN3ros13serialization9serializeIjNS0_7OStreamEEEvRT0_RKT_
FNDA:0,_ZN3ros13serialization19serializationLengthIdEEjRKT_
FNDA:0,_ZN3ros13serialization19serializationLengthIN13geometry_msgs8Vector3_ISaIvEEEEEjRKT_
FNDA:0,_ZN3ros13serialization19serializationLengthIN13geometry_msgs6Twist_ISaIvEEEEEjRKT_
FNDA:0,_ZN3ros13serialization10SerializerIjE5writeINS0_7OStreamEEEvRT_j
FNDA:0,_ZN3ros13serialization10SerializerIdE5writeINS0_7OStreamEEEvRT_d
FNDA:0,_ZN3ros13serialization10SerializerIdE16serializedLengthERKd
FNDA:0,_ZN3ros13serialization6Stream7getDataEv
FNDA:0,_ZN3ros13serialization6StreamC2EPhj
FNDA:0,_ZN3ros13serialization7OStreamC2EPhj
FNDA:0,_ZN3ros13serialization7LStreamC2Ev
FNDA:0,_ZN3ros13serialization7LStream9getLengthEv
FNDA:0,_ZN3ros13serialization16serializeMessageIN13geometry_msgs6Twist_ISaIvEEEEENS_17SerializedMessageERKT_
FNF:16
FNH:0
DA:152,0
DA:154,0
DA:155,0
DA:170,0
DA:172,0
DA:198,0
DA:203,0
DA:667,0
DA:675,0
DA:676,0
DA:677,0
DA:681,0
DA:683,0
DA:692,0
DA:694,0
DA:695,0
DA:737,0
DA:738,0
DA:739,0
DA:747,0
DA:769,0
DA:770,0
DA:771,0
DA:779,0
DA:795,0
DA:805,0
DA:807,0
DA:808,0
DA:809,0
DA:810,0
DA:812,0
DA:813,0
DA:814,0
DA:815,0
DA:817,0
LF:35
LH:0
end_of_record
SF:/opt/ros/kinetic/include/ros/serialized_message.h
FN:39,_ZN3ros17SerializedMessageD2Ev
FN:49,_ZN3ros17SerializedMessageC2Ev
FNDA:0,_ZN3ros17SerializedMessageD2Ev
FNDA:0,_ZN3ros17SerializedMessageC2Ev
FNF:2
FNH:0
DA:39,0
DA:49,0
DA:53,0
DA:54,0
LF:4
LH:0
end_of_record
SF:/usr/include/boost/bind/arg.hpp
FN:31,_ZN5boost3argILi4EEC2Ev
FN:31,_ZN5boost3argILi8EEC2Ev
FN:31,_ZN5boost3argILi1EEC2Ev
FN:31,_ZN5boost3argILi3EEC2Ev
FN:31,_ZN5boost3argILi2EEC2Ev
FN:31,_ZN5boost3argILi7EEC2Ev
FN:31,_ZN5boost3argILi9EEC2Ev
FN:31,_ZN5boost3argILi6EEC2Ev
FN:31,_ZN5boost3argILi5EEC2Ev
FNDA:0,_ZN5boost3argILi9EEC2Ev
FNDA:0,_ZN5boost3argILi8EEC2Ev
FNDA:0,_ZN5boost3argILi7EEC2Ev
FNDA:0,_ZN5boost3argILi6EEC2Ev
FNDA:0,_ZN5boost3argILi5EEC2Ev
FNDA:0,_ZN5boost3argILi4EEC2Ev
FNDA:0,_ZN5boost3argILi3EEC2Ev
FNDA:0,_ZN5boost3argILi2EEC2Ev
FNDA:0,_ZN5boost3argILi1EEC2Ev
FNF:9
FNH:0
DA:31,0
DA:33,0
LF:2
LH:0
end_of_record
SF:/usr/include/boost/bind/bind.hpp
FN:146,_ZN5boost3_bi9unwrapperIPFN3ros17SerializedMessageERKN13geometry_msgs6Twist_ISaIvEEEEE6unwrapERSB_l
FN:168,_ZN5boost3_bi5list0C2Ev
FN:174,_ZNK5boost3_bi5list0ixIKN13geometry_msgs6Twist_ISaIvEEEEERT_RKNS_17reference_wrapperIS8_EE
FN:225,_ZN5boost3_bi5list1INS_17reference_wrapperIKN13geometry_msgs6Twist_ISaIvEEEEEEC2ES8_
FN:241,_ZN5boost3_bi5list1INS_17reference_wrapperIKN13geometry_msgs6Twist_ISaIvEEEEEEclIN3ros17SerializedMessageEPFSC_RS7_ENS0_5list0EEET_NS0_4typeISH_EERT0_RT1_l
FN:886,_ZN5boost3_bi6bind_tIN3ros17SerializedMessageEPFS3_RKN13geometry_msgs6Twist_ISaIvEEEENS0_5list1INS_17reference_wrapperIS8_EEEEEC2ESB_RKSF_
FN:890,_ZN5boost3_bi6bind_tIN3ros17SerializedMessageEPFS3_RKN13geometry_msgs6Twist_ISaIvEEEENS0_5list1INS_17reference_wrapperIS8_EEEEEclEv
FNDA:0,_ZN5boost3_bi9unwrapperIPFN3ros17SerializedMessageERKN13geometry_msgs6Twist_ISaIvEEEEE6unwrapERSB_l
FNDA:0,_ZN5boost3_bi5list0C2Ev
FNDA:0,_ZNK5boost3_bi5list0ixIKN13geometry_msgs6Twist_ISaIvEEEEERT_RKNS_17reference_wrapperIS8_EE
FNDA:6039765,_ZN5boost3_bi5list1INS_17reference_wrapperIKN13geometry_msgs6Twist_ISaIvEEEEEEC2ES8_
FNDA:0,_ZN5boost3_bi5list1INS_17reference_wrapperIKN13geometry_msgs6Twist_ISaIvEEEEEEclIN3ros17SerializedMessageEPFSC_RS7_ENS0_5list0EEET_NS0_4typeISH_EERT0_RT1_l
FNDA:6039765,_ZN5boost3_bi6bind_tIN3ros17SerializedMessageEPFS3_RKN13geometry_msgs6Twist_ISaIvEEEENS0_5list1INS_17reference_wrapperIS8_EEEEEC2ESB_RKSF_
FNDA:0,_ZN5boost3_bi6bind_tIN3ros17SerializedMessageEPFS3_RKN13geometry_msgs6Twist_ISaIvEEEENS0_5list1INS_17reference_wrapperIS8_EEEEEclEv
FNF:7
FNH:2
DA:146,0
DA:148,0
DA:168,0
DA:174,0
DA:225,6039765
DA:241,0
DA:243,0
DA:886,6039765
DA:890,0
DA:892,0
DA:893,0
LF:11
LH:2
end_of_record
SF:/usr/include/boost/bind/bind_cc.hpp
FN:26,_ZN5boost4bindIN3ros17SerializedMessageERKN13geometry_msgs6Twist_ISaIvEEENS_17reference_wrapperIS7_EEEENS_3_bi6bind_tIT_PFSD_T0_ENSB_9list_av_1IT1_E4typeEEESG_SI_
FNDA:6039765,_ZN5boost4bindIN3ros17SerializedMessageERKN13geometry_msgs6Twist_ISaIvEEENS_17reference_wrapperIS7_EEEENS_3_bi6bind_tIT_PFSD_T0_ENSB_9list_av_1IT1_E4typeEEESG_SI_
FNF:1
FNH:1
DA:26,6039765
DA:30,6039765
LF:2
LH:2
end_of_record
SF:/usr/include/boost/bind/placeholders.hpp
DA:55,1
DA:56,1
DA:57,1
DA:58,1
DA:59,1
DA:60,1
DA:61,1
DA:62,1
DA:63,1
LF:9
LH:9
end_of_record
SF:/usr/include/boost/bind/storage.hpp
FN:42,_ZN5boost3_bi8storage1INS_17reference_wrapperIKN13geometry_msgs6Twist_ISaIvEEEEEEC2ES8_
FNDA:6039765,_ZN5boost3_bi8storage1INS_17reference_wrapperIKN13geometry_msgs6Twist_ISaIvEEEEEEC2ES8_
FNF:1
FNH:1
DA:42,6039765
LF:1
LH:1
end_of_record
SF:/usr/include/boost/core/addressof.hpp
DA:29,12079530
DA:30,12079530
DA:41,12079530
DA:116,24159060
LF:4
LH:4
end_of_record
SF:/usr/include/boost/core/checked_delete.hpp
FN:37,_ZN5boost20checked_array_deleteIhEEvPT_
FN:61,_ZNK5boost21checked_array_deleterIhEclEPh
FNDA:0,_ZN5boost20checked_array_deleteIhEEvPT_
FNDA:0,_ZNK5boost21checked_array_deleterIhEclEPh
FNF:2
FNH:0
DA:37,0
DA:41,0
DA:42,0
DA:61,0
DA:63,0
DA:64,0
LF:6
LH:0
end_of_record
SF:/usr/include/boost/core/ref.hpp
DA:73,6039765
DA:99,0
DA:139,6039765
LF:3
LH:2
end_of_record
SF:/usr/include/boost/function/function_base.hpp
FN:312,_ZN5boost6detail8function22functor_manager_commonINS_3_bi6bind_tIN3ros17SerializedMessageEPFS6_RKN13geometry_msgs6Twist_ISaIvEEEENS3_5list1INS_17reference_wrapperISB_EEEEEEE12manage_smallERKNS1_15function_bufferERSL_NS1_30functor_manager_operation_typeE
FN:361,_ZN5boost6detail8function15functor_managerINS_3_bi6bind_tIN3ros17SerializedMessageEPFS6_RKN13geometry_msgs6Twist_ISaIvEEEENS3_5list1INS_17reference_wrapperISB_EEEEEEE7managerERKNS1_15function_bufferERSL_NS1_30functor_manager_operation_typeEN4mpl_5bool_ILb1EEE
FN:409,_ZN5boost6detail8function15functor_managerINS_3_bi6bind_tIN3ros17SerializedMessageEPFS6_RKN13geometry_msgs6Twist_ISaIvEEEENS3_5list1INS_17reference_wrapperISB_EEEEEEE7managerERKNS1_15function_bufferERSL_NS1_30functor_manager_operation_typeENS1_16function_obj_tagE
FN:428,_ZN5boost6detail8function15functor_managerINS_3_bi6bind_tIN3ros17SerializedMessageEPFS6_RKN13geometry_msgs6Twist_ISaIvEEEENS3_5list1INS_17reference_wrapperISB_EEEEEEE6manageERKNS1_15function_bufferERSL_NS1_30functor_manager_operation_typeE
FN:633,_ZN5boost13function_baseC2Ev
FN:636,_ZNK5boost13function_base5emptyEv
FN:719,_ZNK5boost13function_base28has_trivial_copy_and_destroyEv
FN:886,_ZN5boost6detail8function16has_empty_targetEz
FNDA:0,_ZN5boost6detail8function22functor_manager_commonINS_3_bi6bind_tIN3ros17SerializedMessageEPFS6_RKN13geometry_msgs6Twist_ISaIvEEEENS3_5list1INS_17reference_wrapperISB_EEEEEEE12manage_smallERKNS1_15function_bufferERSL_NS1_30functor_manager_operation_typeE
FNDA:0,_ZN5boost6detail8function15functor_managerINS_3_bi6bind_tIN3ros17SerializedMessageEPFS6_RKN13geometry_msgs6Twist_ISaIvEEEENS3_5list1INS_17reference_wrapperISB_EEEEEEE7managerERKNS1_15function_bufferERSL_NS1_30functor_manager_operation_typeEN4mpl_5bool_ILb1EEE
FNDA:0,_ZN5boost6detail8function15functor_managerINS_3_bi6bind_tIN3ros17SerializedMessageEPFS6_RKN13geometry_msgs6Twist_ISaIvEEEENS3_5list1INS_17reference_wrapperISB_EEEEEEE7managerERKNS1_15function_bufferERSL_NS1_30functor_manager_operation_typeENS1_16function_obj_tagE
FNDA:0,_ZN5boost6detail8function15functor_managerINS_3_bi6bind_tIN3ros17SerializedMessageEPFS6_RKN13geometry_msgs6Twist_ISaIvEEEENS3_5list1INS_17reference_wrapperISB_EEEEEEE6manageERKNS1_15function_bufferERSL_NS1_30functor_manager_operation_typeE
FNDA:0,_ZN5boost13function_baseC2Ev
FNDA:0,_ZNK5boost13function_base5emptyEv
FNDA:0,_ZNK5boost13function_base28has_trivial_copy_and_destroyEv
FNDA:0,_ZN5boost6detail8function16has_empty_targetEz
FNF:8
FNH:0
DA:312,0
DA:315,0
DA:317,0
DA:318,0
DA:320,0
DA:321,0
DA:324,0
DA:325,0
DA:327,0
DA:330,0
DA:332,0
DA:333,0
DA:334,0
DA:336,0
DA:338,0
DA:339,0
DA:340,0
DA:342,0
DA:361,0
DA:364,0
DA:365,0
DA:409,0
DA:412,0
DA:414,0
DA:428,0
DA:432,0
DA:434,0
DA:435,0
DA:436,0
DA:437,0
DA:440,0
DA:441,0
DA:633,0
DA:636,0
DA:719,0
DA:720,0
DA:886,0
DA:888,0
LF:38
LH:0
end_of_record
SF:/usr/include/boost/function/function_template.hpp
FN:129,_ZN5boost6detail8function21function_obj_invoker0INS_3_bi6bind_tIN3ros17SerializedMessageEPFS6_RKN13geometry_msgs6Twist_ISaIvEEEENS3_5list1INS_17reference_wrapperISB_EEEEEES6_E6invokeERNS1_15function_bufferE
FN:495,_ZNK5boost6detail8function13basic_vtable0IN3ros17SerializedMessageEE9assign_toINS_3_bi6bind_tIS4_PFS4_RKN13geometry_msgs6Twist_ISaIvEEEENS7_5list1INS_17reference_wrapperISD_EEEEEEEEbT_RNS1_15function_bufferE
FN:507,_ZNK5boost6detail8function13basic_vtable1IvRKN3ros25SingleSubscriberPublisherEE5clearERNS1_15function_bufferE
FN:507,_ZNK5boost6detail8function13basic_vtable0IN3ros17SerializedMessageEE5clearERNS1_15function_bufferE
FN:570,_ZNK5boost6detail8function13basic_vtable0IN3ros17SerializedMessageEE14assign_functorINS_3_bi6bind_tIS4_PFS4_RKN13geometry_msgs6Twist_ISaIvEEEENS7_5list1INS_17reference_wrapperISD_EEEEEEEEvT_RNS1_15function_bufferEN4mpl_5bool_ILb1EEE
FN:605,_ZNK5boost6detail8function13basic_vtable0IN3ros17SerializedMessageEE9assign_toINS_3_bi6bind_tIS4_PFS4_RKN13geometry_msgs6Twist_ISaIvEEEENS7_5list1INS_17reference_wrapperISD_EEEEEEEEbT_RNS1_15function_bufferENS1_16function_obj_tagE
FN:684,_ZNK5boost9function0IN3ros17SerializedMessageEE10get_vtableEv
FN:684,_ZNK5boost9function1IvRKN3ros25SingleSubscriberPublisherEE10get_vtableEv
FN:713,_ZN5boost9function1IvRKN3ros25SingleSubscriberPublisherEEC2Ev
FN:718,_ZN5boost9function0IN3ros17SerializedMessageEEC2INS_3_bi6bind_tIS2_PFS2_RKN13geometry_msgs6Twist_ISaIvEEEENS5_5list1INS_17reference_wrapperISB_EEEEEEEET_NS_11enable_if_cIXsrNS_11type_traits7ice_notIXsrNS_11is_integralISK_EE5valueEEE5valueEiE4typeE
FN:753,_ZN5boost9function1IvRKN3ros25SingleSubscriberPublisherEEC2ERKS5_
FN:765,_ZN5boost9function0IN3ros17SerializedMessageEED2Ev
FN:765,_ZN5boost9function1IvRKN3ros25SingleSubscriberPublisherEED2Ev
FN:867,_ZN5boost9function1IvRKN3ros25SingleSubscriberPublisherEE4swapERS5_
FN:879,_ZN5boost9function1IvRKN3ros25SingleSubscriberPublisherEE5clearEv
FN:879,_ZN5boost9function0IN3ros17SerializedMessageEE5clearEv
FN:908,_ZN5boost9function1IvRKN3ros25SingleSubscriberPublisherEE13assign_to_ownERKS5_
FN:921,_ZN5boost9function0IN3ros17SerializedMessageEE9assign_toINS_3_bi6bind_tIS2_PFS2_RKN13geometry_msgs6Twist_ISaIvEEEENS5_5list1INS_17reference_wrapperISB_EEEEEEEEvT_
FN:992,_ZN5boost9function1IvRKN3ros25SingleSubscriberPublisherEE11move_assignERS5_
FN:1056,_ZN5boost8functionIFvRKN3ros25SingleSubscriberPublisherEEED2Ev
FN:1056,_ZN5boost8functionIFN3ros17SerializedMessageEvEED2Ev
FN:1066,_ZN5boost8functionIFvRKN3ros25SingleSubscriberPublisherEEEC2Ev
FN:1069,_ZN5boost8functionIFN3ros17SerializedMessageEvEEC2INS_3_bi6bind_tIS2_PFS2_RKN13geometry_msgs6Twist_ISaIvEEEENS6_5list1INS_17reference_wrapperISC_EEEEEEEET_NS_11enable_if_cIXsrNS_11type_traits7ice_notIXsrNS_11is_integralISL_EE5valueEEE5valueEiE4typeE
FN:1097,_ZN5boost8functionIFvRKN3ros25SingleSubscriberPublisherEEEC2ERKS6_
FN:1107,_ZN5boost8functionIFvRKN3ros25SingleSubscriberPublisherEEEaSERKS6_
FNDA:0,_ZN5boost6detail8function21function_obj_invoker0INS_3_bi6bind_tIN3ros17SerializedMessageEPFS6_RKN13geometry_msgs6Twist_ISaIvEEEENS3_5list1INS_17reference_wrapperISB_EEEEEES6_E6invokeERNS1_15function_bufferE
FNDA:6039765,_ZNK5boost6detail8function13basic_vtable0IN3ros17SerializedMessageEE9assign_toINS_3_bi6bind_tIS4_PFS4_RKN13geometry_msgs6Twist_ISaIvEEEENS7_5list1INS_17reference_wrapperISD_EEEEEEEEbT_RNS1_15function_bufferE
FNDA:0,_ZNK5boost6detail8function13basic_vtable0IN3ros17SerializedMessageEE5clearERNS1_15function_bufferE
FNDA:0,_ZNK5boost6detail8function13basic_vtable1IvRKN3ros25SingleSubscriberPublisherEE5clearERNS1_15function_bufferE
FNDA:6039765,_ZNK5boost6detail8function13basic_vtable0IN3ros17SerializedMessageEE14assign_functorINS_3_bi6bind_tIS4_PFS4_RKN13geometry_msgs6Twist_ISaIvEEEENS7_5list1INS_17reference_wrapperISD_EEEEEEEEvT_RNS1_15function_bufferEN4mpl_5bool_ILb1EEE
FNDA:6039765,_ZNK5boost6detail8function13basic_vtable0IN3ros17SerializedMessageEE9assign_toINS_3_bi6bind_tIS4_PFS4_RKN13geometry_msgs6Twist_ISaIvEEEENS7_5list1INS_17reference_wrapperISD_EEEEEEEEbT_RNS1_15function_bufferENS1_16function_obj_tagE
FNDA:0,_ZNK5boost9function0IN3ros17SerializedMessageEE10get_vtableEv
FNDA:0,_ZNK5boost9function1IvRKN3ros25SingleSubscriberPublisherEE10get_vtableEv
FNDA:0,_ZN5boost9function1IvRKN3ros25SingleSubscriberPublisherEEC2Ev
FNDA:6039765,_ZN5boost9function0IN3ros17SerializedMessageEEC2INS_3_bi6bind_tIS2_PFS2_RKN13geometry_msgs6Twist_ISaIvEEEENS5_5list1INS_17reference_wrapperISB_EEEEEEEET_NS_11enable_if_cIXsrNS_11type_traits7ice_notIXsrNS_11is_integralISK_EE5valueEEE5valueEiE4typeE
FNDA:0,_ZN5boost9function1IvRKN3ros25SingleSubscriberPublisherEEC2ERKS5_
FNDA:0,_ZN5boost9function0IN3ros17SerializedMessageEED2Ev
FNDA:0,_ZN5boost9function1IvRKN3ros25SingleSubscriberPublisherEED2Ev
FNDA:0,_ZN5boost9function1IvRKN3ros25SingleSubscriberPublisherEE4swapERS5_
FNDA:0,_ZN5boost9function0IN3ros17SerializedMessageEE5clearEv
FNDA:0,_ZN5boost9function1IvRKN3ros25SingleSubscriberPublisherEE5clearEv
FNDA:0,_ZN5boost9function1IvRKN3ros25SingleSubscriberPublisherEE13assign_to_ownERKS5_
FNDA:6039765,_ZN5boost9function0IN3ros17SerializedMessageEE9assign_toINS_3_bi6bind_tIS2_PFS2_RKN13geometry_msgs6Twist_ISaIvEEEENS5_5list1INS_17reference_wrapperISB_EEEEEEEEvT_
FNDA:0,_ZN5boost9function1IvRKN3ros25SingleSubscriberPublisherEE11move_assignERS5_
FNDA:0,_ZN5boost8functionIFN3ros17SerializedMessageEvEED2Ev
FNDA:0,_ZN5boost8functionIFvRKN3ros25SingleSubscriberPublisherEEED2Ev
FNDA:0,_ZN5boost8functionIFvRKN3ros25SingleSubscriberPublisherEEEC2Ev
FNDA:6039765,_ZN5boost8functionIFN3ros17SerializedMessageEvEEC2INS_3_bi6bind_tIS2_PFS2_RKN13geometry_msgs6Twist_ISaIvEEEENS6_5list1INS_17reference_wrapperISC_EEEEEEEET_NS_11enable_if_cIXsrNS_11type_traits7ice_notIXsrNS_11is_integralISL_EE5valueEEE5valueEiE4typeE
FNDA:0,_ZN5boost8functionIFvRKN3ros25SingleSubscriberPublisherEEEC2ERKS6_
FNDA:0,_ZN5boost8functionIFvRKN3ros25SingleSubscriberPublisherEEEaSERKS6_
FNF:25
FNH:6
DA:129,0
DA:135,0
DA:138,0
DA:495,6039765
DA:498,6039765
DA:507,0
DA:509,0
DA:510,0
DA:511,0
DA:570,6039765
DA:572,6039765
DA:573,6039765
DA:605,6039765
DA:607,6039765
DA:608,6039765
DA:610,6039765
DA:612,0
DA:684,0
DA:686,0
DA:713,0
DA:718,6039765
DA:726,6039765
DA:728,6039765
DA:729,6039765
DA:753,0
DA:755,0
DA:756,0
DA:765,0
DA:867,0
DA:869,0
DA:870,0
DA:872,0
DA:873,0
DA:874,0
DA:875,0
DA:879,0
DA:881,0
DA:882,0
DA:883,0
DA:884,0
DA:886,0
DA:908,0
DA:910,0
DA:911,0
DA:912,0
DA:913,0
DA:915,0
DA:918,0
DA:921,6039765
DA:942,6039765
DA:943,6039765
DA:948,6039765
DA:949,6039765
DA:951,0
DA:952,6039765
DA:992,0
DA:994,0
DA:995,0
DA:998,0
DA:999,0
DA:1000,0
DA:1001,0
DA:1003,0
DA:1005,0
DA:1007,0
DA:1009,0
DA:1010,0
DA:1011,0
DA:1056,0
DA:1066,0
DA:1069,6039765
DA:1077,6039765
DA:1079,6039765
DA:1097,0
DA:1107,0
DA:1109,0
DA:1110,0
LF:77
LH:22
end_of_record
SF:/usr/include/boost/smart_ptr/detail/operator_bool.hpp
FN:60,_ZNK5boost10shared_ptrIN3ros9Publisher4ImplEEntEv
FNDA:0,_ZNK5boost10shared_ptrIN3ros9Publisher4ImplEEntEv
FNF:1
FNH:0
DA:60,0
DA:62,0
LF:2
LH:0
end_of_record
SF:/usr/include/boost/smart_ptr/detail/shared_count.hpp
FN:114,_ZN5boost6detail12shared_countC2Ev
FN:154,_ZN5boost6detail12shared_countC2IPhNS_21checked_array_deleterIhEEEET_T0_
FN:441,_ZN5boost6detail12shared_countD2Ev
FN:449,_ZN5boost6detail12shared_countC2ERKS1_
FN:486,_ZN5boost6detail12shared_count4swapERS1_
FNDA:0,_ZN5boost6detail12shared_countC2Ev
FNDA:0,_ZN5boost6detail12shared_countC2IPhNS_21checked_array_deleterIhEEEET_T0_
FNDA:0,_ZN5boost6detail12shared_countD2Ev
FNDA:0,_ZN5boost6detail12shared_countC2ERKS1_
FNDA:0,_ZN5boost6detail12shared_count4swapERS1_
FNF:5
FNH:0
DA:114,0
DA:119,0
DA:154,0
DA:167,0
DA:169,0
DA:171,0
DA:172,0
DA:186,0
DA:441,0
DA:442,0
DA:443,0
DA:447,0
DA:449,0
DA:454,0
DA:455,0
DA:486,0
DA:488,0
DA:489,0
DA:490,0
DA:491,0
LF:20
LH:0
end_of_record
SF:/usr/include/boost/smart_ptr/detail/sp_counted_base_gcc_x86.hpp
FN:35,_ZN5boost6detail23atomic_exchange_and_addEPii
FN:55,_ZN5boost6detail16atomic_incrementEPi
FN:109,_ZN5boost6detail15sp_counted_baseC2Ev
FN:113,_ZN5boost6detail15sp_counted_baseD2Ev
FN:113,_ZN5boost6detail15sp_counted_baseD0Ev
FN:124,_ZN5boost6detail15sp_counted_base7destroyEv
FN:132,_ZN5boost6detail15sp_counted_base12add_ref_copyEv
FN:142,_ZN5boost6detail15sp_counted_base7releaseEv
FN:156,_ZN5boost6detail15sp_counted_base12weak_releaseEv
FNDA:0,_ZN5boost6detail23atomic_exchange_and_addEPii
FNDA:0,_ZN5boost6detail16atomic_incrementEPi
FNDA:0,_ZN5boost6detail15sp_counted_baseC2Ev
FNDA:0,_ZN5boost6detail15sp_counted_baseD0Ev
FNDA:0,_ZN5boost6detail15sp_counted_baseD2Ev
FNDA:0,_ZN5boost6detail15sp_counted_base7destroyEv
FNDA:0,_ZN5boost6detail15sp_counted_base12add_ref_copyEv
FNDA:0,_ZN5boost6detail15sp_counted_base7releaseEv
FNDA:0,_ZN5boost6detail15sp_counted_base12weak_releaseEv
FNF:9
FNH:0
DA:35,0
DA:50,0
DA:52,0
DA:55,0
DA:66,0
DA:67,0
DA:109,0
DA:111,0
DA:113,0
DA:114,0
DA:115,0
DA:124,0
DA:126,0
DA:127,0
DA:132,0
DA:134,0
DA:135,0
DA:142,0
DA:144,0
DA:146,0
DA:147,0
DA:149,0
DA:156,0
DA:158,0
DA:160,0
DA:162,0
LF:26
LH:0
end_of_record
SF:/usr/include/boost/smart_ptr/detail/sp_counted_impl.hpp
FN:127,_ZN5boost6detail18sp_counted_impl_pdIPhNS_21checked_array_deleterIhEEED2Ev
FN:127,_ZN5boost6detail18sp_counted_impl_pdIPhNS_21checked_array_deleterIhEEED0Ev
FN:143,_ZN5boost6detail18sp_counted_impl_pdIPhNS_21checked_array_deleterIhEEEC2ES2_RS4_
FN:151,_ZN5boost6detail18sp_counted_impl_pdIPhNS_21checked_array_deleterIhEEE7disposeEv
FN:156,_ZN5boost6detail18sp_counted_impl_pdIPhNS_21checked_array_deleterIhEEE11get_deleterERKSt9type_info
FN:161,_ZN5boost6detail18sp_counted_impl_pdIPhNS_21checked_array_deleterIhEEE19get_untyped_deleterEv
FNDA:0,_ZN5boost6detail18sp_counted_impl_pdIPhNS_21checked_array_deleterIhEEED0Ev
FNDA:0,_ZN5boost6detail18sp_counted_impl_pdIPhNS_21checked_array_deleterIhEEED2Ev
FNDA:0,_ZN5boost6detail18sp_counted_impl_pdIPhNS_21checked_array_deleterIhEEEC2ES2_RS4_
FNDA:0,_ZN5boost6detail18sp_counted_impl_pdIPhNS_21checked_array_deleterIhEEE7disposeEv
FNDA:0,_ZN5boost6detail18sp_counted_impl_pdIPhNS_21checked_array_deleterIhEEE11get_deleterERKSt9type_info
FNDA:0,_ZN5boost6detail18sp_counted_impl_pdIPhNS_21checked_array_deleterIhEEE19get_untyped_deleterEv
FNF:6
FNH:0
DA:127,0
DA:143,0
DA:145,0
DA:151,0
DA:153,0
DA:154,0
DA:156,0
DA:158,0
DA:161,0
DA:163,0
LF:10
LH:0
end_of_record
SF:/usr/include/boost/smart_ptr/shared_array.hpp
FN:44,_ZN5boost12shared_arrayIhED2Ev
FN:56,_ZN5boost12shared_arrayIhEC2Ev
FN:69,_ZN5boost12shared_arrayIhEC2IhEEPT_
FN:175,_ZN5boost12shared_arrayIhE5resetIhEEvPT_
FN:203,_ZNK5boost12shared_arrayIhE3getEv
FN:221,_ZN5boost12shared_arrayIhE4swapERS1_
FNDA:0,_ZN5boost12shared_arrayIhED2Ev
FNDA:0,_ZN5boost12shared_arrayIhEC2Ev
FNDA:0,_ZN5boost12shared_arrayIhEC2IhEEPT_
FNDA:0,_ZN5boost12shared_arrayIhE5resetIhEEvPT_
FNDA:0,_ZNK5boost12shared_arrayIhE3getEv
FNDA:0,_ZN5boost12shared_arrayIhE4swapERS1_
FNF:6
FNH:0
DA:44,0
DA:56,0
DA:58,0
DA:69,0
DA:71,0
DA:72,0
DA:175,0
DA:177,0
DA:178,0
DA:179,0
DA:203,0
DA:205,0
DA:221,0
DA:223,0
DA:224,0
DA:225,0
LF:16
LH:0
end_of_record
SF:/usr/include/boost/smart_ptr/shared_ptr.hpp
FN:251,_ZN5boost6detail21sp_assert_convertibleIA_hS2_EEvv
FN:323,_ZN5boost10shared_ptrIKvED2Ev
FN:323,_ZN5boost10shared_ptrIN3ros9Publisher4ImplEED2Ev
FN:334,_ZN5boost10shared_ptrIN3ros9Publisher4ImplEEC2Ev
FN:334,_ZN5boost10shared_ptrIKvEC2Ev
FN:392,_ZN5boost10shared_ptrIN3ros9Publisher4ImplEEC2ERKS4_
FN:500,_ZN5boost10shared_ptrIN3ros9Publisher4ImplEEaSERKS4_
FN:646,_ZNK5boost10shared_ptrIKN8std_msgs5Int8_ISaIvEEEEptEv
FN:646,_ZNK5boost10shared_ptrIN3ros9Publisher4ImplEEptEv
FN:646,_ZNK5boost10shared_ptrIKN8std_msgs8Float32_ISaIvEEEEptEv
FN:679,_ZN5boost10shared_ptrIN3ros9Publisher4ImplEE4swapERS4_
FNDA:0,_ZN5boost6detail21sp_assert_convertibleIA_hS2_EEvv
FNDA:0,_ZN5boost10shared_ptrIN3ros9Publisher4ImplEED2Ev
FNDA:0,_ZN5boost10shared_ptrIKvED2Ev
FNDA:0,_ZN5boost10shared_ptrIN3ros9Publisher4ImplEEC2Ev
FNDA:0,_ZN5boost10shared_ptrIKvEC2Ev
FNDA:0,_ZN5boost10shared_ptrIN3ros9Publisher4ImplEEC2ERKS4_
FNDA:0,_ZN5boost10shared_ptrIN3ros9Publisher4ImplEEaSERKS4_
FNDA:3,_ZNK5boost10shared_ptrIKN8std_msgs5Int8_ISaIvEEEEptEv
FNDA:3,_ZNK5boost10shared_ptrIKN8std_msgs8Float32_ISaIvEEEEptEv
FNDA:0,_ZNK5boost10shared_ptrIN3ros9Publisher4ImplEEptEv
FNDA:0,_ZN5boost10shared_ptrIN3ros9Publisher4ImplEE4swapERS4_
FNF:11
FNH:2
DA:251,0
DA:265,0
DA:323,0
DA:334,0
DA:336,0
DA:392,0
DA:394,0
DA:500,0
DA:502,0
DA:503,0
DA:646,6
DA:648,6
DA:649,6
DA:679,0
DA:681,0
DA:682,0
DA:683,0
LF:17
LH:3
end_of_record
SF:/usr/include/c++/5/bits/alloc_traits.h
FN:516,_ZNSt16allocator_traitsISaISt13_Rb_tree_nodeISt4pairIKNSt7__cxx1112basic_stringIcSt11char_traitsIcESaIcEEES7_EEEE10deallocateERSB_PSA_m
FN:541,_ZNSt16allocator_traitsISaISt13_Rb_tree_nodeISt4pairIKNSt7__cxx1112basic_stringIcSt11char_traitsIcESaIcEEES7_EEEE7destroyIS9_EEvRSB_PT_
FNDA:0,_ZNSt16allocator_traitsISaISt13_Rb_tree_nodeISt4pairIKNSt7__cxx1112basic_stringIcSt11char_traitsIcESaIcEEES7_EEEE10deallocateERSB_PSA_m
FNDA:0,_ZNSt16allocator_traitsISaISt13_Rb_tree_nodeISt4pairIKNSt7__cxx1112basic_stringIcSt11char_traitsIcESaIcEEES7_EEEE7destroyIS9_EEvRSB_PT_
FNF:2
FNH:0
DA:516,0
DA:517,0
DA:541,0
DA:542,0
LF:4
LH:0
end_of_record
SF:/usr/include/c++/5/bits/allocator.h
FN:113,_ZNSaISt13_Rb_tree_nodeISt4pairIKNSt7__cxx1112basic_stringIcSt11char_traitsIcESaIcEEES6_EEEC2Ev
FN:121,_ZNSaISt13_Rb_tree_nodeISt4pairIKNSt7__cxx1112basic_stringIcSt11char_traitsIcESaIcEEES6_EEED2Ev
FNDA:0,_ZNSaISt13_Rb_tree_nodeISt4pairIKNSt7__cxx1112basic_stringIcSt11char_traitsIcESaIcEEES6_EEEC2Ev
FNDA:0,_ZNSaISt13_Rb_tree_nodeISt4pairIKNSt7__cxx1112basic_stringIcSt11char_traitsIcESaIcEEES6_EEED2Ev
FNF:2
FNH:0
DA:113,0
DA:121,0
LF:2
LH:0
end_of_record
SF:/usr/include/c++/5/bits/basic_string.h
FN:4937,_ZSteqIcSt11char_traitsIcESaIcEEbRKNSt7__cxx1112basic_stringIT_T0_T1_EEPKS5_
FNDA:0,_ZSteqIcSt11char_traitsIcESaIcEEbRKNSt7__cxx1112basic_stringIT_T0_T1_EEPKS5_
FNF:1
FNH:0
DA:4937,0
DA:4939,0
LF:2
LH:0
end_of_record
SF:/usr/include/c++/5/bits/ios_base.h
FN:129,_ZStorSt13_Ios_OpenmodeS_
FNDA:0,_ZStorSt13_Ios_OpenmodeS_
FNF:1
FNH:0
DA:129,0
DA:130,0
LF:2
LH:0
end_of_record
SF:/usr/include/c++/5/bits/move.h
FN:101,_ZSt4moveIRPhEONSt16remove_referenceIT_E4typeEOS3_
FN:101,_ZSt4moveIRPN3ros9Publisher4ImplEEONSt16remove_referenceIT_E4typeEOS6_
FN:176,_ZSt4swapIPhEvRT_S2_
FN:176,_ZSt4swapIPN3ros9Publisher4ImplEEvRT_S5_
FNDA:0,_ZSt4moveIRPhEONSt16remove_referenceIT_E4typeEOS3_
FNDA:0,_ZSt4moveIRPN3ros9Publisher4ImplEEONSt16remove_referenceIT_E4typeEOS6_
FNDA:0,_ZSt4swapIPhEvRT_S2_
FNDA:0,_ZSt4swapIPN3ros9Publisher4ImplEEvRT_S5_
FNF:4
FNH:0
DA:101,0
DA:102,0
DA:176,0
DA:185,0
DA:186,0
DA:187,0
DA:188,0
LF:7
LH:0
end_of_record
SF:/usr/include/c++/5/bits/stl_function.h
FN:105,_ZNSt14unary_functionIRKN3ros25SingleSubscriberPublisherEvEC2Ev
FNDA:0,_ZNSt14unary_functionIRKN3ros25SingleSubscriberPublisherEvEC2Ev
FNF:1
FNH:0
DA:105,0
LF:1
LH:0
end_of_record
SF:/usr/include/c++/5/bits/stl_map.h
FN:96,_ZNSt3mapINSt7__cxx1112basic_stringIcSt11char_traitsIcESaIcEEES5_St4lessIS5_ESaISt4pairIKS5_S5_EEED2Ev
FN:162,_ZNSt3mapINSt7__cxx1112basic_stringIcSt11char_traitsIcESaIcEEES5_St4lessIS5_ESaISt4pairIKS5_S5_EEEC2Ev
FNDA:0,_ZNSt3mapINSt7__cxx1112basic_stringIcSt11char_traitsIcESaIcEEES5_St4lessIS5_ESaISt4pairIKS5_S5_EEED2Ev
FNDA:0,_ZNSt3mapINSt7__cxx1112basic_stringIcSt11char_traitsIcESaIcEEES5_St4lessIS5_ESaISt4pairIKS5_S5_EEEC2Ev
FNF:2
FNH:0
DA:96,0
DA:162,0
DA:166,0
LF:3
LH:0
end_of_record
SF:/usr/include/c++/5/bits/stl_pair.h
FN:96,_ZNSt4pairIKNSt7__cxx1112basic_stringIcSt11char_traitsIcESaIcEEES5_ED2Ev
FNDA:0,_ZNSt4pairIKNSt7__cxx1112basic_stringIcSt11char_traitsIcESaIcEEES5_ED2Ev
FNF:1
FNH:0
DA:96,0
LF:1
LH:0
end_of_record
SF:/usr/include/c++/5/bits/stl_tree.h
FN:152,_ZNSt13_Rb_tree_nodeISt4pairIKNSt7__cxx1112basic_stringIcSt11char_traitsIcESaIcEEES6_EE9_M_valptrEv
FN:477,_ZNSt8_Rb_treeINSt7__cxx1112basic_stringIcSt11char_traitsIcESaIcEEESt4pairIKS5_S5_ESt10_Select1stIS8_ESt4lessIS5_ESaIS8_EE21_M_get_Node_allocatorEv
FN:494,_ZNSt8_Rb_treeINSt7__cxx1112basic_stringIcSt11char_traitsIcESaIcEEESt4pairIKS5_S5_ESt10_Select1stIS8_ESt4lessIS5_ESaIS8_EE11_M_put_nodeEPSt13_Rb_tree_nodeIS8_E
FN:551,_ZNSt8_Rb_treeINSt7__cxx1112basic_stringIcSt11char_traitsIcESaIcEEESt4pairIKS5_S5_ESt10_Select1stIS8_ESt4lessIS5_ESaIS8_EE15_M_destroy_nodeEPSt13_Rb_tree_nodeIS8_E
FN:559,_ZNSt8_Rb_treeINSt7__cxx1112basic_stringIcSt11char_traitsIcESaIcEEESt4pairIKS5_S5_ESt10_Select1stIS8_ESt4lessIS5_ESaIS8_EE12_M_drop_nodeEPSt13_Rb_tree_nodeIS8_E
FN:580,_ZNSt8_Rb_treeINSt7__cxx1112basic_stringIcSt11char_traitsIcESaIcEEESt4pairIKS5_S5_ESt10_Select1stIS8_ESt4lessIS5_ESaIS8_EE13_Rb_tree_implISC_Lb1EED2Ev
FN:586,_ZNSt8_Rb_treeINSt7__cxx1112basic_stringIcSt11char_traitsIcESaIcEEESt4pairIKS5_S5_ESt10_Select1stIS8_ESt4lessIS5_ESaIS8_EE13_Rb_tree_implISC_Lb1EEC2Ev
FN:614,_ZNSt8_Rb_treeINSt7__cxx1112basic_stringIcSt11char_traitsIcESaIcEEESt4pairIKS5_S5_ESt10_Select1stIS8_ESt4lessIS5_ESaIS8_EE13_Rb_tree_implISC_Lb1EE13_M_initializeEv
FN:651,_ZNSt8_Rb_treeINSt7__cxx1112basic_stringIcSt11char_traitsIcESaIcEEESt4pairIKS5_S5_ESt10_Select1stIS8_ESt4lessIS5_ESaIS8_EE8_M_beginEv
FN:678,_ZNSt8_Rb_treeINSt7__cxx1112basic_stringIcSt11char_traitsIcESaIcEEESt4pairIKS5_S5_ESt10_Select1stIS8_ESt4lessIS5_ESaIS8_EE7_S_leftEPSt18_Rb_tree_node_base
FN:686,_ZNSt8_Rb_treeINSt7__cxx1112basic_stringIcSt11char_traitsIcESaIcEEESt4pairIKS5_S5_ESt10_Select1stIS8_ESt4lessIS5_ESaIS8_EE8_S_rightEPSt18_Rb_tree_node_base
FN:807,_ZNSt8_Rb_treeINSt7__cxx1112basic_stringIcSt11char_traitsIcESaIcEEESt4pairIKS5_S5_ESt10_Select1stIS8_ESt4lessIS5_ESaIS8_EEC2Ev
FN:857,_ZNSt8_Rb_treeINSt7__cxx1112basic_stringIcSt11char_traitsIcESaIcEEESt4pairIKS5_S5_ESt10_Select1stIS8_ESt4lessIS5_ESaIS8_EED2Ev
FN:1606,_ZNSt8_Rb_treeINSt7__cxx1112basic_stringIcSt11char_traitsIcESaIcEEESt4pairIKS5_S5_ESt10_Select1stIS8_ESt4lessIS5_ESaIS8_EE8_M_eraseEPSt13_Rb_tree_nodeIS8_E
FNDA:0,_ZNSt13_Rb_tree_nodeISt4pairIKNSt7__cxx1112basic_stringIcSt11char_traitsIcESaIcEEES6_EE9_M_valptrEv
FNDA:0,_ZNSt8_Rb_treeINSt7__cxx1112basic_stringIcSt11char_traitsIcESaIcEEESt4pairIKS5_S5_ESt10_Select1stIS8_ESt4lessIS5_ESaIS8_EE21_M_get_Node_allocatorEv
FNDA:0,_ZNSt8_Rb_treeINSt7__cxx1112basic_stringIcSt11char_traitsIcESaIcEEESt4pairIKS5_S5_ESt10_Select1stIS8_ESt4lessIS5_ESaIS8_EE11_M_put_nodeEPSt13_Rb_tree_nodeIS8_E
FNDA:0,_ZNSt8_Rb_treeINSt7__cxx1112basic_stringIcSt11char_traitsIcESaIcEEESt4pairIKS5_S5_ESt10_Select1stIS8_ESt4lessIS5_ESaIS8_EE15_M_destroy_nodeEPSt13_Rb_tree_nodeIS8_E
FNDA:0,_ZNSt8_Rb_treeINSt7__cxx1112basic_stringIcSt11char_traitsIcESaIcEEESt4pairIKS5_S5_ESt10_Select1stIS8_ESt4lessIS5_ESaIS8_EE12_M_drop_nodeEPSt13_Rb_tree_nodeIS8_E
FNDA:0,_ZNSt8_Rb_treeINSt7__cxx1112basic_stringIcSt11char_traitsIcESaIcEEESt4pairIKS5_S5_ESt10_Select1stIS8_ESt4lessIS5_ESaIS8_EE13_Rb_tree_implISC_Lb1EED2Ev
FNDA:0,_ZNSt8_Rb_treeINSt7__cxx1112basic_stringIcSt11char_traitsIcESaIcEEESt4pairIKS5_S5_ESt10_Select1stIS8_ESt4lessIS5_ESaIS8_EE13_Rb_tree_implISC_Lb1EEC2Ev
FNDA:0,_ZNSt8_Rb_treeINSt7__cxx1112basic_stringIcSt11char_traitsIcESaIcEEESt4pairIKS5_S5_ESt10_Select1stIS8_ESt4lessIS5_ESaIS8_EE13_Rb_tree_implISC_Lb1EE13_M_initializeEv
FNDA:0,_ZNSt8_Rb_treeINSt7__cxx1112basic_stringIcSt11char_traitsIcESaIcEEESt4pairIKS5_S5_ESt10_Select1stIS8_ESt4lessIS5_ESaIS8_EE8_M_beginEv
FNDA:0,_ZNSt8_Rb_treeINSt7__cxx1112basic_stringIcSt11char_traitsIcESaIcEEESt4pairIKS5_S5_ESt10_Select1stIS8_ESt4lessIS5_ESaIS8_EE7_S_leftEPSt18_Rb_tree_node_base
FNDA:0,_ZNSt8_Rb_treeINSt7__cxx1112basic_stringIcSt11char_traitsIcESaIcEEESt4pairIKS5_S5_ESt10_Select1stIS8_ESt4lessIS5_ESaIS8_EE8_S_rightEPSt18_Rb_tree_node_base
FNDA:0,_ZNSt8_Rb_treeINSt7__cxx1112basic_stringIcSt11char_traitsIcESaIcEEESt4pairIKS5_S5_ESt10_Select1stIS8_ESt4lessIS5_ESaIS8_EEC2Ev
FNDA:0,_ZNSt8_Rb_treeINSt7__cxx1112basic_stringIcSt11char_traitsIcESaIcEEESt4pairIKS5_S5_ESt10_Select1stIS8_ESt4lessIS5_ESaIS8_EED2Ev
FNDA:0,_ZNSt8_Rb_treeINSt7__cxx1112basic_stringIcSt11char_traitsIcESaIcEEESt4pairIKS5_S5_ESt10_Select1stIS8_ESt4lessIS5_ESaIS8_EE8_M_eraseEPSt13_Rb_tree_nodeIS8_E
FNF:14
FNH:0
DA:152,0
DA:153,0
DA:477,0
DA:478,0
DA:494,0
DA:495,0
DA:551,0
DA:553,0
DA:555,0
DA:559,0
DA:561,0
DA:562,0
DA:563,0
DA:580,0
DA:586,0
DA:588,0
DA:589,0
DA:614,0
DA:616,0
DA:617,0
DA:618,0
DA:619,0
DA:620,0
DA:651,0
DA:652,0
DA:678,0
DA:679,0
DA:686,0
DA:687,0
DA:807,0
DA:857,0
DA:858,0
DA:1606,0
DA:1610,0
DA:1612,0
DA:1613,0
DA:1614,0
DA:1615,0
DA:1617,0
LF:39
LH:0
end_of_record
SF:/usr/include/c++/5/ext/aligned_buffer.h
FN:62,_ZN9__gnu_cxx16__aligned_membufISt4pairIKNSt7__cxx1112basic_stringIcSt11char_traitsIcESaIcEEES7_EE7_M_addrEv
FN:70,_ZN9__gnu_cxx16__aligned_membufISt4pairIKNSt7__cxx1112basic_stringIcSt11char_traitsIcESaIcEEES7_EE6_M_ptrEv
FNDA:0,_ZN9__gnu_cxx16__aligned_membufISt4pairIKNSt7__cxx1112basic_stringIcSt11char_traitsIcESaIcEEES7_EE7_M_addrEv
FNDA:0,_ZN9__gnu_cxx16__aligned_membufISt4pairIKNSt7__cxx1112basic_stringIcSt11char_traitsIcESaIcEEES7_EE6_M_ptrEv
FNF:2
FNH:0
DA:62,0
DA:63,0
DA:70,0
DA:71,0
LF:4
LH:0
end_of_record
SF:/usr/include/c++/5/ext/new_allocator.h
FN:79,_ZN9__gnu_cxx13new_allocatorISt13_Rb_tree_nodeISt4pairIKNSt7__cxx1112basic_stringIcSt11char_traitsIcESaIcEEES8_EEEC2Ev
FN:86,_ZN9__gnu_cxx13new_allocatorISt13_Rb_tree_nodeISt4pairIKNSt7__cxx1112basic_stringIcSt11char_traitsIcESaIcEEES8_EEED2Ev
FN:109,_ZN9__gnu_cxx13new_allocatorISt13_Rb_tree_nodeISt4pairIKNSt7__cxx1112basic_stringIcSt11char_traitsIcESaIcEEES8_EEE10deallocateEPSB_m
FN:124,_ZN9__gnu_cxx13new_allocatorISt13_Rb_tree_nodeISt4pairIKNSt7__cxx1112basic_stringIcSt11char_traitsIcESaIcEEES8_EEE7destroyISA_EEvPT_
FNDA:0,_ZN9__gnu_cxx13new_allocatorISt13_Rb_tree_nodeISt4pairIKNSt7__cxx1112basic_stringIcSt11char_traitsIcESaIcEEES8_EEEC2Ev
FNDA:0,_ZN9__gnu_cxx13new_allocatorISt13_Rb_tree_nodeISt4pairIKNSt7__cxx1112basic_stringIcSt11char_traitsIcESaIcEEES8_EEED2Ev
FNDA:0,_ZN9__gnu_cxx13new_allocatorISt13_Rb_tree_nodeISt4pairIKNSt7__cxx1112basic_stringIcSt11char_traitsIcESaIcEEES8_EEE10deallocateEPSB_m
FNDA:0,_ZN9__gnu_cxx13new_allocatorISt13_Rb_tree_nodeISt4pairIKNSt7__cxx1112basic_stringIcSt11char_traitsIcESaIcEEES8_EEE7destroyISA_EEvPT_
FNF:4
FNH:0
DA:79,0
DA:86,0
DA:109,0
DA:110,0
DA:124,0
LF:5
LH:0
end_of_record
SF:/usr/include/c++/5/iostream
DA:74,1
LF:1
LH:1
end_of_record
SF:/usr/include/c++/5/new
FN:129,_ZnwmPv
FNDA:0,_ZnwmPv
FNF:1
FNH:0
DA:129,0
DA:130,0
LF:2
LH:0
end_of_record
SF:/usr/include/c++/5/typeinfo
FN:99,_ZNKSt9type_info4nameEv
FN:120,_ZNKSt9type_infoeqERKS_
FNDA:0,_ZNKSt9type_info4nameEv
FNDA:0,_ZNKSt9type_infoeqERKS_
FNF:2
FNH:0
DA:99,0
DA:100,0
DA:120,0
DA:122,0
DA:123,0
DA:124,0
LF:6
LH:0
end_of_record
TN:
SF:/home/zach/catkin_ws/src/final_map_mobile/src/LaneDetect.cpp
FN:59,_ZN10LaneDetectC2Ev
FN:70,_ZN10LaneDetectD2Ev
FN:81,_ZN10LaneDetect13imageCallbackERKN5boost10shared_ptrIKN11sensor_msgs6Image_ISaIvEEEEE
FN:99,_ZN10LaneDetect13proccessImageEN2cv3MatE
FN:214,_ZN10LaneDetect11getLaneDataEv
FN:217,_GLOBAL__sub_I__ZN10LaneDetectC2Ev
FNDA:2,_ZN10LaneDetectC2Ev
FNDA:2,_ZN10LaneDetectD2Ev
FNDA:1,_ZN10LaneDetect13imageCallbackERKN5boost10shared_ptrIKN11sensor_msgs6Image_ISaIvEEEEE
FNDA:8,_ZN10LaneDetect13proccessImageEN2cv3MatE
FNDA:1,_ZN10LaneDetect11getLaneDataEv
FNDA:1,_GLOBAL__sub_I__ZN10LaneDetectC2Ev
FNDA:1,_Z41__static_initialization_and_destruction_0ii
FNF:7
FNH:7
DA:59,2
DA:60,2
DA:61,2
DA:70,4
DA:71,2
DA:72,2
DA:81,1
DA:82,2
DA:85,1
DA:86,1
DA:87,1
DA:89,0
DA:90,0
DA:93,2
DA:94,1
DA:95,1
DA:96,1
DA:97,1
DA:99,8
DA:100,16
DA:102,8
DA:103,8
DA:104,16
DA:105,8
DA:109,16
DA:110,8
DA:111,8
DA:112,8
DA:113,8
DA:114,16
DA:116,8
DA:117,16
DA:119,8
DA:120,8
DA:121,8
DA:122,8
DA:123,8
DA:124,8
DA:125,8
DA:127,191
DA:128,183
DA:129,183
DA:130,183
DA:131,126
DA:132,126
DA:133,126
DA:135,57
DA:136,57
DA:137,57
DA:140,8
DA:141,8
DA:142,8
DA:143,8
DA:145,8
DA:146,8
DA:147,8
DA:148,8
DA:149,8
DA:150,8
DA:151,8
DA:152,8
DA:153,8
DA:154,8
DA:156,8
DA:157,8
DA:158,8
DA:159,8
DA:160,8
DA:161,8
DA:162,8
DA:163,8
DA:164,8
DA:166,8
DA:167,8
DA:168,8
DA:169,8
DA:170,8
DA:171,8
DA:172,8
DA:173,8
DA:174,8
DA:175,5
DA:176,5
DA:177,5
DA:179,3
DA:181,8
DA:182,8
DA:184,8
DA:185,8
DA:186,8
DA:187,8
DA:188,8
DA:190,8
DA:191,1
DA:192,7
DA:193,6
DA:194,1
DA:195,6
DA:196,1
DA:197,1
DA:199,5
DA:200,8
DA:201,1
DA:202,7
DA:203,1
DA:204,8
DA:205,8
DA:206,16
DA:214,1
DA:215,1
DA:216,1
DA:217,3
LF:112
LH:110
end_of_record
SF:/opt/ros/kinetic/include/opencv-3.3.1-dev/opencv2/core/cvstd.hpp
FN:571,_ZN2cv6StringC2ERKS0_
FN:596,_ZN2cv6StringC2EPKc
FN:646,_ZN2cv6StringD2Ev
FN:652,_ZN2cv6StringaSERKS0_
FN:745,_ZNK2cv6String5c_strEv
FNDA:0,_ZN2cv6StringC2ERKS0_
FNDA:0,_ZN2cv6StringC2EPKc
FNDA:0,_ZN2cv6StringD2Ev
FNDA:0,_ZN2cv6StringaSERKS0_
FNDA:0,_ZNK2cv6String5c_strEv
FNF:5
FNH:0
DA:571,0
DA:572,0
DA:574,0
DA:575,0
DA:576,0
DA:596,0
DA:597,0
DA:599,0
DA:600,0
DA:601,0
DA:602,0
DA:646,0
DA:648,0
DA:649,0
DA:652,0
DA:654,0
DA:656,0
DA:657,0
DA:658,0
DA:659,0
DA:660,0
DA:745,0
DA:747,0
LF:23
LH:0
end_of_record
SF:/opt/ros/kinetic/include/opencv-3.3.1-dev/opencv2/core/fast_math.hpp
FN:101,_ZL7cvRoundd
FNDA:64,_ZL7cvRoundd
FNF:1
FNH:1
DA:101,64
DA:105,64
DA:106,64
LF:3
LH:3
end_of_record
SF:/opt/ros/kinetic/include/opencv-3.3.1-dev/opencv2/core/mat.hpp
FN:281,_ZN2cv12_OutputArrayD2Ev
FN:366,_ZN2cv17_InputOutputArrayD2Ev
FNDA:84,_ZN2cv12_OutputArrayD2Ev
FNDA:38,_ZN2cv17_InputOutputArrayD2Ev
FNF:2
FNH:2
DA:281,84
DA:366,38
LF:2
LH:2
end_of_record
SF:/opt/ros/kinetic/include/opencv-3.3.1-dev/opencv2/core/mat.inl.hpp
FN:66,_ZN2cv11_InputArray4initEiPKv
FN:69,_ZN2cv11_InputArray4initEiPKvNS_5Size_IiEE
FN:76,_ZN2cv11_InputArrayC2Ev
FN:78,_ZN2cv11_InputArrayC2ERKNS_3MatE
FN:114,_ZN2cv11_InputArrayC2IdLi4ELi1EEERKNS_4MatxIT_XT0_EXT1_EEE
FN:143,_ZN2cv11_InputArrayD2Ev
FN:164,_ZN2cv12_OutputArrayC2Ev
FN:166,_ZN2cv12_OutputArrayC2ERNS_3MatE
FN:172,_ZN2cv12_OutputArrayC2INS_3VecIfLi2EEEEERSt6vectorIT_SaIS5_EE
FN:285,_ZN2cv17_InputOutputArrayC2ERNS_3MatE
FN:402,_ZN2cv3MatC2Ev
FN:476,_ZN2cv3MatC2ERKS0_
FN:688,_ZN2cv3MatD2Ev
FN:696,_ZN2cv3MataSERKS0_
FN:801,_ZN2cv3Mat7releaseEv
FN:1401,_ZN2cv7MatSizeC2EPi
FN:1462,_ZN2cv7MatStepC2Em
FN:1468,_ZNK2cv7MatStepixEi
FN:1474,_ZN2cv7MatStepixEi
FNDA:0,_ZN2cv11_InputArray4initEiPKv
FNDA:16,_ZN2cv11_InputArray4initEiPKvNS_5Size_IiEE
FNDA:84,_ZN2cv11_InputArrayC2Ev
FNDA:0,_ZN2cv11_InputArrayC2ERKNS_3MatE
FNDA:16,_ZN2cv11_InputArrayC2IdLi4ELi1EEERKNS_4MatxIT_XT0_EXT1_EEE
FNDA:0,_ZN2cv11_InputArrayD2Ev
FNDA:38,_ZN2cv12_OutputArrayC2Ev
FNDA:38,_ZN2cv12_OutputArrayC2ERNS_3MatE
FNDA:8,_ZN2cv12_OutputArrayC2INS_3VecIfLi2EEEEERSt6vectorIT_SaIS5_EE
FNDA:38,_ZN2cv17_InputOutputArrayC2ERNS_3MatE
FNDA:61,_ZN2cv3MatC2Ev
FNDA:0,_ZN2cv3MatC2ERKS0_
FNDA:0,_ZN2cv3MatD2Ev
FNDA:207,_ZN2cv3MataSERKS0_
FNDA:0,_ZN2cv3Mat7releaseEv
FNDA:0,_ZN2cv7MatSizeC2EPi
FNDA:0,_ZN2cv7MatStepC2Em
FNDA:0,_ZNK2cv7MatStepixEi
FNDA:0,_ZN2cv7MatStepixEi
FNF:19
FNH:9
DA:66,0
DA:67,0
DA:69,16
DA:70,16
DA:76,84
DA:78,0
DA:114,16
DA:115,16
DA:143,0
DA:164,38
DA:166,38
DA:172,8
DA:173,8
DA:285,38
DA:402,61
DA:404,61
DA:405,61
DA:476,0
DA:477,0
DA:478,0
DA:479,0
DA:481,0
DA:482,0
DA:483,0
DA:485,0
DA:489,0
DA:490,0
DA:492,0
DA:688,0
DA:690,0
DA:691,0
DA:692,0
DA:693,0
DA:696,207
DA:698,207
DA:700,207
DA:701,204
DA:702,207
DA:703,206
DA:704,206
DA:706,206
DA:707,206
DA:708,206
DA:709,206
DA:710,207
DA:713,0
DA:714,211
DA:715,211
DA:716,211
DA:717,211
DA:718,211
DA:719,211
DA:721,211
DA:801,0
DA:803,0
DA:804,0
DA:805,0
DA:806,0
DA:807,0
DA:808,0
DA:819,0
DA:1401,0
DA:1402,0
DA:1462,0
DA:1464,0
DA:1465,0
DA:1468,0
DA:1470,0
DA:1474,0
DA:1476,0
LF:70
LH:32
end_of_record
SF:/opt/ros/kinetic/include/opencv-3.3.1-dev/opencv2/core/matx.hpp
FN:537,_ZN2cv4MatxIdLi4ELi1EEC2Ev
FN:972,_ZN2cv3VecIdLi4EEC2Ev
FN:1123,_ZN2cv3VecIfLi2EEixEi
FNDA:54,_ZN2cv4MatxIdLi4ELi1EEC2Ev
FNDA:54,_ZN2cv3VecIdLi4EEC2Ev
FNDA:366,_ZN2cv3VecIfLi2EEixEi
FNF:3
FNH:3
DA:537,54
DA:539,54
DA:540,54
DA:972,54
DA:1123,366
DA:1126,366
LF:6
LH:6
end_of_record
SF:/opt/ros/kinetic/include/opencv-3.3.1-dev/opencv2/core/types.hpp
FN:1149,_ZN2cv6Point_IiEC2Ev
FN:1157,_ZN2cv6Point_IiEC2ERKS1_
FN:1642,_ZN2cv5Size_IiEC2Ev
FN:1646,_ZN2cv5Size_IiEC2Eii
FN:1650,_ZN2cv5Size_IiEC2ERKS1_
FN:1664,_ZN2cv5Size_IiEaSERKS1_
FN:2078,_ZN2cv7Scalar_IdEC2Edddd
FNDA:64,_ZN2cv6Point_IiEC2Ev
FNDA:67,_ZN2cv6Point_IiEC2ERKS1_
FNDA:0,_ZN2cv5Size_IiEC2Ev
FNDA:22,_ZN2cv5Size_IiEC2Eii
FNDA:8,_ZN2cv5Size_IiEC2ERKS1_
FNDA:16,_ZN2cv5Size_IiEaSERKS1_
FNDA:51,_ZN2cv7Scalar_IdEC2Edddd
FNF:7
FNH:6
DA:1149,64
DA:1150,64
DA:1157,67
DA:1158,67
DA:1642,0
DA:1643,0
DA:1646,22
DA:1647,22
DA:1650,8
DA:1651,8
DA:1664,16
DA:1666,16
DA:1667,16
DA:2078,51
DA:2080,51
DA:2081,51
DA:2082,51
DA:2083,51
DA:2084,51
LF:19
LH:17
end_of_record
SF:/opt/ros/kinetic/include/opencv-3.3.1-dev/opencv2/flann/any.h
FN:34,_ZN7cvflann7anyimpllsERSoRKNS0_9empty_anyE
FN:51,_ZN7cvflann7anyimpl15base_any_policyD0Ev
FN:51,_ZN7cvflann7anyimpl15base_any_policyD2Ev
FN:55,_ZN7cvflann7anyimpl21typed_base_any_policyIPKcED2Ev
FN:55,_ZN7cvflann7anyimpl21typed_base_any_policyINS_20flann_centers_init_tEED2Ev
FN:55,_ZN7cvflann7anyimpl21typed_base_any_policyIbED2Ev
FN:55,_ZN7cvflann7anyimpl21typed_base_any_policyINS0_9empty_anyEED0Ev
FN:55,_ZN7cvflann7anyimpl21typed_base_any_policyIiED0Ev
FN:55,_ZN7cvflann7anyimpl21typed_base_any_policyIbED0Ev
FN:55,_ZN7cvflann7anyimpl21typed_base_any_policyIiED2Ev
FN:55,_ZN7cvflann7anyimpl21typed_base_any_policyIfED2Ev
FN:55,_ZN7cvflann7anyimpl21typed_base_any_policyIN2cv6StringEED0Ev
FN:55,_ZN7cvflann7anyimpl21typed_base_any_policyINS_17flann_algorithm_tEED0Ev
FN:55,_ZN7cvflann7anyimpl21typed_base_any_policyINS_17flann_algorithm_tEED2Ev
FN:55,_ZN7cvflann7anyimpl21typed_base_any_policyIPKcED0Ev
FN:55,_ZN7cvflann7anyimpl21typed_base_any_policyIjED0Ev
FN:55,_ZN7cvflann7anyimpl21typed_base_any_policyIjED2Ev
FN:55,_ZN7cvflann7anyimpl21typed_base_any_policyINS_20flann_centers_init_tEED0Ev
FN:55,_ZN7cvflann7anyimpl21typed_base_any_policyIN2cv6StringEED2Ev
FN:55,_ZN7cvflann7anyimpl21typed_base_any_policyIfED0Ev
FN:55,_ZN7cvflann7anyimpl21typed_base_any_policyINS0_9empty_anyEED2Ev
FN:57,_ZN7cvflann7anyimpl21typed_base_any_policyINS_20flann_centers_init_tEE8get_sizeEv
FN:57,_ZN7cvflann7anyimpl21typed_base_any_policyIfE8get_sizeEv
FN:57,_ZN7cvflann7anyimpl21typed_base_any_policyIPKcE8get_sizeEv
FN:57,_ZN7cvflann7anyimpl21typed_base_any_policyIN2cv6StringEE8get_sizeEv
FN:57,_ZN7cvflann7anyimpl21typed_base_any_policyINS0_9empty_anyEE8get_sizeEv
FN:57,_ZN7cvflann7anyimpl21typed_base_any_policyIjE8get_sizeEv
FN:57,_ZN7cvflann7anyimpl21typed_base_any_policyIiE8get_sizeEv
FN:57,_ZN7cvflann7anyimpl21typed_base_any_policyINS_17flann_algorithm_tEE8get_sizeEv
FN:57,_ZN7cvflann7anyimpl21typed_base_any_policyIbE8get_sizeEv
FN:58,_ZN7cvflann7anyimpl21typed_base_any_policyIN2cv6StringEE4typeEv
FN:58,_ZN7cvflann7anyimpl21typed_base_any_policyIbE4typeEv
FN:58,_ZN7cvflann7anyimpl21typed_base_any_policyIiE4typeEv
FN:58,_ZN7cvflann7anyimpl21typed_base_any_policyINS0_9empty_anyEE4typeEv
FN:58,_ZN7cvflann7anyimpl21typed_base_any_policyIfE4typeEv
FN:58,_ZN7cvflann7anyimpl21typed_base_any_policyINS_17flann_algorithm_tEE4typeEv
FN:58,_ZN7cvflann7anyimpl21typed_base_any_policyIjE4typeEv
FN:58,_ZN7cvflann7anyimpl21typed_base_any_policyIPKcE4typeEv
FN:58,_ZN7cvflann7anyimpl21typed_base_any_policyINS_20flann_centers_init_tEE4typeEv
FN:63,_ZN7cvflann7anyimpl16small_any_policyIiED2Ev
FN:63,_ZN7cvflann7anyimpl16small_any_policyIiED0Ev
FN:63,_ZN7cvflann7anyimpl16small_any_policyIbED0Ev
FN:63,_ZN7cvflann7anyimpl16small_any_policyIjED2Ev
FN:63,_ZN7cvflann7anyimpl16small_any_policyIfED0Ev
FN:63,_ZN7cvflann7anyimpl16small_any_policyIfED2Ev
FN:63,_ZN7cvflann7anyimpl16small_any_policyIPKcED2Ev
FN:63,_ZN7cvflann7anyimpl16small_any_policyIPKcED0Ev
FN:63,_ZN7cvflann7anyimpl16small_any_policyIjED0Ev
FN:63,_ZN7cvflann7anyimpl16small_any_policyIbED2Ev
FN:65,_ZN7cvflann7anyimpl16small_any_policyIbE13static_deleteEPPv
FN:65,_ZN7cvflann7anyimpl16small_any_policyIPKcE13static_deleteEPPv
FN:65,_ZN7cvflann7anyimpl16small_any_policyIiE13static_deleteEPPv
FN:65,_ZN7cvflann7anyimpl16small_any_policyIfE13static_deleteEPPv
FN:65,_ZN7cvflann7anyimpl16small_any_policyIjE13static_deleteEPPv
FN:66,_ZN7cvflann7anyimpl16small_any_policyIjE15copy_from_valueEPKvPPv
FN:66,_ZN7cvflann7anyimpl16small_any_policyIbE15copy_from_valueEPKvPPv
FN:66,_ZN7cvflann7anyimpl16small_any_policyIfE15copy_from_valueEPKvPPv
FN:66,_ZN7cvflann7anyimpl16small_any_policyIiE15copy_from_valueEPKvPPv
FN:66,_ZN7cvflann7anyimpl16small_any_policyIPKcE15copy_from_valueEPKvPPv
FN:70,_ZN7cvflann7anyimpl16small_any_policyIjE5cloneEPKPvPS3_
FN:70,_ZN7cvflann7anyimpl16small_any_policyIfE5cloneEPKPvPS3_
FN:70,_ZN7cvflann7anyimpl16small_any_policyIPKcE5cloneEPKPvPS5_
FN:70,_ZN7cvflann7anyimpl16small_any_policyIbE5cloneEPKPvPS3_
FN:70,_ZN7cvflann7anyimpl16small_any_policyIiE5cloneEPKPvPS3_
FN:71,_ZN7cvflann7anyimpl16small_any_policyIbE4moveEPKPvPS3_
FN:71,_ZN7cvflann7anyimpl16small_any_policyIjE4moveEPKPvPS3_
FN:71,_ZN7cvflann7anyimpl16small_any_policyIPKcE4moveEPKPvPS5_
FN:71,_ZN7cvflann7anyimpl16small_any_policyIfE4moveEPKPvPS3_
FN:71,_ZN7cvflann7anyimpl16small_any_policyIiE4moveEPKPvPS3_
FN:72,_ZN7cvflann7anyimpl16small_any_policyIfE9get_valueEPPv
FN:72,_ZN7cvflann7anyimpl16small_any_policyIbE9get_valueEPPv
FN:72,_ZN7cvflann7anyimpl16small_any_policyIPKcE9get_valueEPPv
FN:72,_ZN7cvflann7anyimpl16small_any_policyIjE9get_valueEPPv
FN:72,_ZN7cvflann7anyimpl16small_any_policyIiE9get_valueEPPv
FN:73,_ZN7cvflann7anyimpl16small_any_policyIfE9get_valueEPKPv
FN:73,_ZN7cvflann7anyimpl16small_any_policyIiE9get_valueEPKPv
FN:73,_ZN7cvflann7anyimpl16small_any_policyIPKcE9get_valueEPKPv
FN:73,_ZN7cvflann7anyimpl16small_any_policyIbE9get_valueEPKPv
FN:73,_ZN7cvflann7anyimpl16small_any_policyIjE9get_valueEPKPv
FN:74,_ZN7cvflann7anyimpl16small_any_policyIPKcE5printERSoPKPv
FN:74,_ZN7cvflann7anyimpl16small_any_policyIbE5printERSoPKPv
FN:74,_ZN7cvflann7anyimpl16small_any_policyIfE5printERSoPKPv
FN:74,_ZN7cvflann7anyimpl16small_any_policyIiE5printERSoPKPv
FN:74,_ZN7cvflann7anyimpl16small_any_policyIjE5printERSoPKPv
FN:78,_ZN7cvflann7anyimpl14big_any_policyINS_17flann_algorithm_tEED2Ev
FN:78,_ZN7cvflann7anyimpl14big_any_policyINS_17flann_algorithm_tEED0Ev
FN:78,_ZN7cvflann7anyimpl14big_any_policyINS0_9empty_anyEED2Ev
FN:78,_ZN7cvflann7anyimpl14big_any_policyIN2cv6StringEED2Ev
FN:78,_ZN7cvflann7anyimpl14big_any_policyINS_20flann_centers_init_tEED2Ev
FN:78,_ZN7cvflann7anyimpl14big_any_policyINS_20flann_centers_init_tEED0Ev
FN:78,_ZN7cvflann7anyimpl14big_any_policyIN2cv6StringEED0Ev
FN:78,_ZN7cvflann7anyimpl14big_any_policyINS0_9empty_anyEED0Ev
FN:80,_ZN7cvflann7anyimpl14big_any_policyINS0_9empty_anyEE13static_deleteEPPv
FN:80,_ZN7cvflann7anyimpl14big_any_policyINS_17flann_algorithm_tEE13static_deleteEPPv
FN:80,_ZN7cvflann7anyimpl14big_any_policyINS_20flann_centers_init_tEE13static_deleteEPPv
FN:80,_ZN7cvflann7anyimpl14big_any_policyIN2cv6StringEE13static_deleteEPPv
FN:85,_ZN7cvflann7anyimpl14big_any_policyINS0_9empty_anyEE15copy_from_valueEPKvPPv
FN:85,_ZN7cvflann7anyimpl14big_any_policyIN2cv6StringEE15copy_from_valueEPKvPPv
FN:85,_ZN7cvflann7anyimpl14big_any_policyINS_17flann_algorithm_tEE15copy_from_valueEPKvPPv
FN:85,_ZN7cvflann7anyimpl14big_any_policyINS_20flann_centers_init_tEE15copy_from_valueEPKvPPv
FN:89,_ZN7cvflann7anyimpl14big_any_policyINS_20flann_centers_init_tEE5cloneEPKPvPS4_
FN:89,_ZN7cvflann7anyimpl14big_any_policyINS_17flann_algorithm_tEE5cloneEPKPvPS4_
FN:89,_ZN7cvflann7anyimpl14big_any_policyIN2cv6StringEE5cloneEPKPvPS5_
FN:89,_ZN7cvflann7anyimpl14big_any_policyINS0_9empty_anyEE5cloneEPKPvPS4_
FN:93,_ZN7cvflann7anyimpl14big_any_policyINS0_9empty_anyEE4moveEPKPvPS4_
FN:93,_ZN7cvflann7anyimpl14big_any_policyINS_17flann_algorithm_tEE4moveEPKPvPS4_
FN:93,_ZN7cvflann7anyimpl14big_any_policyIN2cv6StringEE4moveEPKPvPS5_
FN:93,_ZN7cvflann7anyimpl14big_any_policyINS_20flann_centers_init_tEE4moveEPKPvPS4_
FN:98,_ZN7cvflann7anyimpl14big_any_policyINS_17flann_algorithm_tEE9get_valueEPPv
FN:98,_ZN7cvflann7anyimpl14big_any_policyINS0_9empty_anyEE9get_valueEPPv
FN:98,_ZN7cvflann7anyimpl14big_any_policyIN2cv6StringEE9get_valueEPPv
FN:98,_ZN7cvflann7anyimpl14big_any_policyINS_20flann_centers_init_tEE9get_valueEPPv
FN:99,_ZN7cvflann7anyimpl14big_any_policyINS_17flann_algorithm_tEE9get_valueEPKPv
FN:99,_ZN7cvflann7anyimpl14big_any_policyINS_20flann_centers_init_tEE9get_valueEPKPv
FN:99,_ZN7cvflann7anyimpl14big_any_policyINS0_9empty_anyEE9get_valueEPKPv
FN:99,_ZN7cvflann7anyimpl14big_any_policyIN2cv6StringEE9get_valueEPKPv
FN:100,_ZN7cvflann7anyimpl14big_any_policyINS0_9empty_anyEE5printERSoPKPv
FN:103,_ZN7cvflann7anyimpl14big_any_policyINS_20flann_centers_init_tEE5printERSoPKPv
FN:108,_ZN7cvflann7anyimpl14big_any_policyINS_17flann_algorithm_tEE5printERSoPKPv
FN:113,_ZN7cvflann7anyimpl14big_any_policyIN2cv6StringEE5printERSoPKPv
FNDA:0,_ZN7cvflann7anyimpllsERSoRKNS0_9empty_anyE
FNDA:0,_ZN7cvflann7anyimpl15base_any_policyD0Ev
FNDA:0,_ZN7cvflann7anyimpl15base_any_policyD2Ev
FNDA:0,_ZN7cvflann7anyimpl21typed_base_any_policyIN2cv6StringEED0Ev
FNDA:0,_ZN7cvflann7anyimpl21typed_base_any_policyIN2cv6StringEED2Ev
FNDA:0,_ZN7cvflann7anyimpl21typed_base_any_policyIjED0Ev
FNDA:0,_ZN7cvflann7anyimpl21typed_base_any_policyIjED2Ev
FNDA:0,_ZN7cvflann7anyimpl21typed_base_any_policyINS_20flann_centers_init_tEED0Ev
FNDA:0,_ZN7cvflann7anyimpl21typed_base_any_policyINS_20flann_centers_init_tEED2Ev
FNDA:0,_ZN7cvflann7anyimpl21typed_base_any_policyINS_17flann_algorithm_tEED0Ev
FNDA:0,_ZN7cvflann7anyimpl21typed_base_any_policyINS_17flann_algorithm_tEED2Ev
FNDA:0,_ZN7cvflann7anyimpl21typed_base_any_policyIbED0Ev
FNDA:0,_ZN7cvflann7anyimpl21typed_base_any_policyIbED2Ev
FNDA:0,_ZN7cvflann7anyimpl21typed_base_any_policyIfED0Ev
FNDA:0,_ZN7cvflann7anyimpl21typed_base_any_policyIfED2Ev
FNDA:0,_ZN7cvflann7anyimpl21typed_base_any_policyIiED0Ev
FNDA:0,_ZN7cvflann7anyimpl21typed_base_any_policyIiED2Ev
FNDA:0,_ZN7cvflann7anyimpl21typed_base_any_policyIPKcED0Ev
FNDA:0,_ZN7cvflann7anyimpl21typed_base_any_policyIPKcED2Ev
FNDA:0,_ZN7cvflann7anyimpl21typed_base_any_policyINS0_9empty_anyEED0Ev
FNDA:0,_ZN7cvflann7anyimpl21typed_base_any_policyINS0_9empty_anyEED2Ev
FNDA:0,_ZN7cvflann7anyimpl21typed_base_any_policyINS_20flann_centers_init_tEE8get_sizeEv
FNDA:0,_ZN7cvflann7anyimpl21typed_base_any_policyINS_17flann_algorithm_tEE8get_sizeEv
FNDA:0,_ZN7cvflann7anyimpl21typed_base_any_policyIN2cv6StringEE8get_sizeEv
FNDA:0,_ZN7cvflann7anyimpl21typed_base_any_policyINS0_9empty_anyEE8get_sizeEv
FNDA:0,_ZN7cvflann7anyimpl21typed_base_any_policyIPKcE8get_sizeEv
FNDA:0,_ZN7cvflann7anyimpl21typed_base_any_policyIiE8get_sizeEv
FNDA:0,_ZN7cvflann7anyimpl21typed_base_any_policyIfE8get_sizeEv
FNDA:0,_ZN7cvflann7anyimpl21typed_base_any_policyIbE8get_sizeEv
FNDA:0,_ZN7cvflann7anyimpl21typed_base_any_policyIjE8get_sizeEv
FNDA:0,_ZN7cvflann7anyimpl21typed_base_any_policyINS_20flann_centers_init_tEE4typeEv
FNDA:0,_ZN7cvflann7anyimpl21typed_base_any_policyINS_17flann_algorithm_tEE4typeEv
FNDA:0,_ZN7cvflann7anyimpl21typed_base_any_policyIN2cv6StringEE4typeEv
FNDA:0,_ZN7cvflann7anyimpl21typed_base_any_policyINS0_9empty_anyEE4typeEv
FNDA:0,_ZN7cvflann7anyimpl21typed_base_any_policyIPKcE4typeEv
FNDA:0,_ZN7cvflann7anyimpl21typed_base_any_policyIiE4typeEv
FNDA:0,_ZN7cvflann7anyimpl21typed_base_any_policyIfE4typeEv
FNDA:0,_ZN7cvflann7anyimpl21typed_base_any_policyIbE4typeEv
FNDA:0,_ZN7cvflann7anyimpl21typed_base_any_policyIjE4typeEv
FNDA:0,_ZN7cvflann7anyimpl16small_any_policyIjED0Ev
FNDA:0,_ZN7cvflann7anyimpl16small_any_policyIjED2Ev
FNDA:0,_ZN7cvflann7anyimpl16small_any_policyIbED0Ev
FNDA:0,_ZN7cvflann7anyimpl16small_any_policyIbED2Ev
FNDA:0,_ZN7cvflann7anyimpl16small_any_policyIfED0Ev
FNDA:0,_ZN7cvflann7anyimpl16small_any_policyIfED2Ev
FNDA:0,_ZN7cvflann7anyimpl16small_any_policyIiED0Ev
FNDA:0,_ZN7cvflann7anyimpl16small_any_policyIiED2Ev
FNDA:0,_ZN7cvflann7anyimpl16small_any_policyIPKcED0Ev
FNDA:0,_ZN7cvflann7anyimpl16small_any_policyIPKcED2Ev
FNDA:0,_ZN7cvflann7anyimpl16small_any_policyIPKcE13static_deleteEPPv
FNDA:0,_ZN7cvflann7anyimpl16small_any_policyIiE13static_deleteEPPv
FNDA:0,_ZN7cvflann7anyimpl16small_any_policyIfE13static_deleteEPPv
FNDA:0,_ZN7cvflann7anyimpl16small_any_policyIbE13static_deleteEPPv
FNDA:0,_ZN7cvflann7anyimpl16small_any_policyIjE13static_deleteEPPv
FNDA:0,_ZN7cvflann7anyimpl16small_any_policyIPKcE15copy_from_valueEPKvPPv
FNDA:0,_ZN7cvflann7anyimpl16small_any_policyIiE15copy_from_valueEPKvPPv
FNDA:0,_ZN7cvflann7anyimpl16small_any_policyIfE15copy_from_valueEPKvPPv
FNDA:0,_ZN7cvflann7anyimpl16small_any_policyIbE15copy_from_valueEPKvPPv
FNDA:0,_ZN7cvflann7anyimpl16small_any_policyIjE15copy_from_valueEPKvPPv
FNDA:0,_ZN7cvflann7anyimpl16small_any_policyIPKcE5cloneEPKPvPS5_
FNDA:0,_ZN7cvflann7anyimpl16small_any_policyIiE5cloneEPKPvPS3_
FNDA:0,_ZN7cvflann7anyimpl16small_any_policyIfE5cloneEPKPvPS3_
FNDA:0,_ZN7cvflann7anyimpl16small_any_policyIbE5cloneEPKPvPS3_
FNDA:0,_ZN7cvflann7anyimpl16small_any_policyIjE5cloneEPKPvPS3_
FNDA:0,_ZN7cvflann7anyimpl16small_any_policyIPKcE4moveEPKPvPS5_
FNDA:0,_ZN7cvflann7anyimpl16small_any_policyIiE4moveEPKPvPS3_
FNDA:0,_ZN7cvflann7anyimpl16small_any_policyIfE4moveEPKPvPS3_
FNDA:0,_ZN7cvflann7anyimpl16small_any_policyIbE4moveEPKPvPS3_
FNDA:0,_ZN7cvflann7anyimpl16small_any_policyIjE4moveEPKPvPS3_
FNDA:0,_ZN7cvflann7anyimpl16small_any_policyIPKcE9get_valueEPPv
FNDA:0,_ZN7cvflann7anyimpl16small_any_policyIiE9get_valueEPPv
FNDA:0,_ZN7cvflann7anyimpl16small_any_policyIfE9get_valueEPPv
FNDA:0,_ZN7cvflann7anyimpl16small_any_policyIbE9get_valueEPPv
FNDA:0,_ZN7cvflann7anyimpl16small_any_policyIjE9get_valueEPPv
FNDA:0,_ZN7cvflann7anyimpl16small_any_policyIPKcE9get_valueEPKPv
FNDA:0,_ZN7cvflann7anyimpl16small_any_policyIiE9get_valueEPKPv
FNDA:0,_ZN7cvflann7anyimpl16small_any_policyIfE9get_valueEPKPv
FNDA:0,_ZN7cvflann7anyimpl16small_any_policyIbE9get_valueEPKPv
FNDA:0,_ZN7cvflann7anyimpl16small_any_policyIjE9get_valueEPKPv
FNDA:0,_ZN7cvflann7anyimpl16small_any_policyIPKcE5printERSoPKPv
FNDA:0,_ZN7cvflann7anyimpl16small_any_policyIiE5printERSoPKPv
FNDA:0,_ZN7cvflann7anyimpl16small_any_policyIfE5printERSoPKPv
FNDA:0,_ZN7cvflann7anyimpl16small_any_policyIbE5printERSoPKPv
FNDA:0,_ZN7cvflann7anyimpl16small_any_policyIjE5printERSoPKPv
FNDA:0,_ZN7cvflann7anyimpl14big_any_policyIN2cv6StringEED0Ev
FNDA:0,_ZN7cvflann7anyimpl14big_any_policyIN2cv6StringEED2Ev
FNDA:0,_ZN7cvflann7anyimpl14big_any_policyINS_20flann_centers_init_tEED0Ev
FNDA:0,_ZN7cvflann7anyimpl14big_any_policyINS_20flann_centers_init_tEED2Ev
FNDA:0,_ZN7cvflann7anyimpl14big_any_policyINS_17flann_algorithm_tEED0Ev
FNDA:0,_ZN7cvflann7anyimpl14big_any_policyINS_17flann_algorithm_tEED2Ev
FNDA:0,_ZN7cvflann7anyimpl14big_any_policyINS0_9empty_anyEED0Ev
FNDA:0,_ZN7cvflann7anyimpl14big_any_policyINS0_9empty_anyEED2Ev
FNDA:0,_ZN7cvflann7anyimpl14big_any_policyINS_20flann_centers_init_tEE13static_deleteEPPv
FNDA:0,_ZN7cvflann7anyimpl14big_any_policyINS_17flann_algorithm_tEE13static_deleteEPPv
FNDA:0,_ZN7cvflann7anyimpl14big_any_policyIN2cv6StringEE13static_deleteEPPv
FNDA:0,_ZN7cvflann7anyimpl14big_any_policyINS0_9empty_anyEE13static_deleteEPPv
FNDA:0,_ZN7cvflann7anyimpl14big_any_policyINS_20flann_centers_init_tEE15copy_from_valueEPKvPPv
FNDA:0,_ZN7cvflann7anyimpl14big_any_policyINS_17flann_algorithm_tEE15copy_from_valueEPKvPPv
FNDA:0,_ZN7cvflann7anyimpl14big_any_policyIN2cv6StringEE15copy_from_valueEPKvPPv
FNDA:0,_ZN7cvflann7anyimpl14big_any_policyINS0_9empty_anyEE15copy_from_valueEPKvPPv
FNDA:0,_ZN7cvflann7anyimpl14big_any_policyINS_20flann_centers_init_tEE5cloneEPKPvPS4_
FNDA:0,_ZN7cvflann7anyimpl14big_any_policyINS_17flann_algorithm_tEE5cloneEPKPvPS4_
FNDA:0,_ZN7cvflann7anyimpl14big_any_policyIN2cv6StringEE5cloneEPKPvPS5_
FNDA:0,_ZN7cvflann7anyimpl14big_any_policyINS0_9empty_anyEE5cloneEPKPvPS4_
FNDA:0,_ZN7cvflann7anyimpl14big_any_policyINS_20flann_centers_init_tEE4moveEPKPvPS4_
FNDA:0,_ZN7cvflann7anyimpl14big_any_policyINS_17flann_algorithm_tEE4moveEPKPvPS4_
FNDA:0,_ZN7cvflann7anyimpl14big_any_policyIN2cv6StringEE4moveEPKPvPS5_
FNDA:0,_ZN7cvflann7anyimpl14big_any_policyINS0_9empty_anyEE4moveEPKPvPS4_
FNDA:0,_ZN7cvflann7anyimpl14big_any_policyINS_20flann_centers_init_tEE9get_valueEPPv
FNDA:0,_ZN7cvflann7anyimpl14big_any_policyINS_17flann_algorithm_tEE9get_valueEPPv
FNDA:0,_ZN7cvflann7anyimpl14big_any_policyIN2cv6StringEE9get_valueEPPv
FNDA:0,_ZN7cvflann7anyimpl14big_any_policyINS0_9empty_anyEE9get_valueEPPv
FNDA:0,_ZN7cvflann7anyimpl14big_any_policyINS_20flann_centers_init_tEE9get_valueEPKPv
FNDA:0,_ZN7cvflann7anyimpl14big_any_policyINS_17flann_algorithm_tEE9get_valueEPKPv
FNDA:0,_ZN7cvflann7anyimpl14big_any_policyIN2cv6StringEE9get_valueEPKPv
FNDA:0,_ZN7cvflann7anyimpl14big_any_policyINS0_9empty_anyEE9get_valueEPKPv
FNDA:0,_ZN7cvflann7anyimpl14big_any_policyINS0_9empty_anyEE5printERSoPKPv
FNDA:0,_ZN7cvflann7anyimpl14big_any_policyINS_20flann_centers_init_tEE5printERSoPKPv
FNDA:0,_ZN7cvflann7anyimpl14big_any_policyINS_17flann_algorithm_tEE5printERSoPKPv
FNDA:0,_ZN7cvflann7anyimpl14big_any_policyIN2cv6StringEE5printERSoPKPv
FNF:120
FNH:0
DA:34,0
DA:36,0
DA:37,0
DA:51,0
DA:55,0
DA:57,0
DA:58,0
DA:63,0
DA:65,0
DA:66,0
DA:68,0
DA:69,0
DA:70,0
DA:71,0
DA:72,0
DA:73,0
DA:74,0
DA:78,0
DA:80,0
DA:82,0
DA:83,0
DA:84,0
DA:85,0
DA:87,0
DA:88,0
DA:89,0
DA:91,0
DA:92,0
DA:93,0
DA:95,0
DA:96,0
DA:97,0
DA:98,0
DA:99,0
DA:100,0
DA:103,0
DA:105,0
DA:106,0
DA:108,0
DA:110,0
DA:111,0
DA:113,0
DA:115,0
DA:116,0
DA:174,1
LF:45
LH:1
end_of_record
SF:/opt/ros/kinetic/include/ros/advertise_options.h
FN:41,_ZN3ros16AdvertiseOptionsD2Ev
FN:43,_ZN3ros16AdvertiseOptionsC2Ev
FN:84,_ZN3ros16AdvertiseOptions4initIN8std_msgs8Float32_ISaIvEEEEEvRKNSt7__cxx1112basic_stringIcSt11char_traitsIcESaIcEEEjRKN5boost8functionIFvRKNS_25SingleSubscriberPublisherEEEESM_
FNDA:17,_ZN3ros16AdvertiseOptionsD2Ev
FNDA:17,_ZN3ros16AdvertiseOptionsC2Ev
FNDA:5,_ZN3ros16AdvertiseOptions4initIN8std_msgs8Float32_ISaIvEEEEEvRKNSt7__cxx1112basic_stringIcSt11char_traitsIcESaIcEEEjRKN5boost8functionIFvRKNS_25SingleSubscriberPublisherEEEESM_
FNF:3
FNH:3
DA:41,17
DA:43,17
DA:45,17
DA:47,17
DA:84,5
DA:88,5
DA:89,5
DA:90,5
DA:91,5
DA:92,5
DA:93,5
DA:94,5
DA:95,5
DA:96,5
LF:14
LH:14
end_of_record
SF:/opt/ros/kinetic/include/ros/message_traits.h
FN:226,_ZN3ros14message_traits6md5sumIN8std_msgs8Float32_ISaIvEEEEEPKcv
FN:235,_ZN3ros14message_traits8datatypeIN8std_msgs8Float32_ISaIvEEEEEPKcv
FN:244,_ZN3ros14message_traits10definitionIN8std_msgs8Float32_ISaIvEEEEEPKcv
FN:253,_ZN3ros14message_traits6md5sumIN8std_msgs8Float32_ISaIvEEEEEPKcRKT_
FN:262,_ZN3ros14message_traits8datatypeIN8std_msgs8Float32_ISaIvEEEEEPKcRKT_
FN:352,_ZN3ros14message_traits9hasHeaderIN8std_msgs8Float32_ISaIvEEEEEbv
FNDA:8,_ZN3ros14message_traits6md5sumIN8std_msgs8Float32_ISaIvEEEEEPKcv
FNDA:8,_ZN3ros14message_traits8datatypeIN8std_msgs8Float32_ISaIvEEEEEPKcv
FNDA:5,_ZN3ros14message_traits10definitionIN8std_msgs8Float32_ISaIvEEEEEPKcv
FNDA:22,_ZN3ros14message_traits6md5sumIN8std_msgs8Float32_ISaIvEEEEEPKcRKT_
FNDA:0,_ZN3ros14message_traits8datatypeIN8std_msgs8Float32_ISaIvEEEEEPKcRKT_
FNDA:8,_ZN3ros14message_traits9hasHeaderIN8std_msgs8Float32_ISaIvEEEEEbv
FNF:6
FNH:5
DA:226,8
DA:228,8
DA:235,8
DA:237,8
DA:244,5
DA:246,5
DA:253,22
DA:255,22
DA:262,0
DA:264,0
DA:352,8
DA:354,8
LF:12
LH:10
end_of_record
SF:/opt/ros/kinetic/include/ros/node_handle.h
FN:249,_ZN3ros10NodeHandle9advertiseIN8std_msgs8Float32_ISaIvEEEEENS_9PublisherERKNSt7__cxx1112basic_stringIcSt11char_traitsIcESaIcEEEjb
FNDA:5,_ZN3ros10NodeHandle9advertiseIN8std_msgs8Float32_ISaIvEEEEENS_9PublisherERKNSt7__cxx1112basic_stringIcSt11char_traitsIcESaIcEEEjb
FNF:1
FNH:1
DA:249,5
DA:251,10
DA:252,5
DA:253,5
DA:254,10
LF:5
LH:5
end_of_record
SF:/opt/ros/kinetic/include/ros/publisher.h
FN:47,_ZN3ros9PublisheraSERKS0_
FN:50,_ZN3ros9PublisherC2Ev
FN:95,_ZNK3ros9Publisher7publishIN8std_msgs8Float32_ISaIvEEEEEvRKT_
FNDA:11,_ZN3ros9PublisheraSERKS0_
FNDA:11,_ZN3ros9PublisherC2Ev
FNDA:11,_ZNK3ros9Publisher7publishIN8std_msgs8Float32_ISaIvEEEEEvRKT_
FNF:3
FNH:3
DA:47,11
DA:50,11
DA:95,11
DA:100,11
DA:102,0
DA:103,0
DA:106,11
DA:108,0
DA:109,0
DA:112,11
DA:117,22
DA:118,11
LF:12
LH:8
end_of_record
SF:/opt/ros/kinetic/include/ros/serialization.h
FN:152,_ZN3ros13serialization9serializeIfNS0_7OStreamEEEvRT0_RKT_
FN:152,_ZN3ros13serialization9serializeIjNS0_7OStreamEEEvRT0_RKT_
FN:152,_ZN3ros13serialization9serializeIN8std_msgs8Float32_ISaIvEEENS0_7OStreamEEEvRT0_RKT_
FN:170,_ZN3ros13serialization19serializationLengthIfEEjRKT_
FN:170,_ZN3ros13serialization19serializationLengthIN8std_msgs8Float32_ISaIvEEEEEjRKT_
FN:198,_ZN3ros13serialization10SerializerIjE5writeINS0_7OStreamEEEvRT_j
FN:202,_ZN3ros13serialization10SerializerIfE16serializedLengthERKf
FN:202,_ZN3ros13serialization10SerializerIfE5writeINS0_7OStreamEEEvRT_f
FN:667,_ZN3ros13serialization6Stream7getDataEv
FN:692,_ZN3ros13serialization6StreamC2EPhj
FN:737,_ZN3ros13serialization7OStreamC2EPhj
FN:769,_ZN3ros13serialization7LStreamC2Ev
FN:795,_ZN3ros13serialization7LStream9getLengthEv
FN:805,_ZN3ros13serialization16serializeMessageIN8std_msgs8Float32_ISaIvEEEEENS_17SerializedMessageERKT_
FNDA:3,_ZN3ros13serialization9serializeIfNS0_7OStreamEEEvRT0_RKT_
FNDA:3,_ZN3ros13serialization9serializeIN8std_msgs8Float32_ISaIvEEENS0_7OStreamEEEvRT0_RKT_
FNDA:6,_ZN3ros13serialization9serializeIjNS0_7OStreamEEEvRT0_RKT_
FNDA:3,_ZN3ros13serialization19serializationLengthIfEEjRKT_
FNDA:3,_ZN3ros13serialization19serializationLengthIN8std_msgs8Float32_ISaIvEEEEEjRKT_
FNDA:6,_ZN3ros13serialization10SerializerIjE5writeINS0_7OStreamEEEvRT_j
FNDA:3,_ZN3ros13serialization10SerializerIfE5writeINS0_7OStreamEEEvRT_f
FNDA:3,_ZN3ros13serialization10SerializerIfE16serializedLengthERKf
FNDA:6,_ZN3ros13serialization6Stream7getDataEv
FNDA:12,_ZN3ros13serialization6StreamC2EPhj
FNDA:6,_ZN3ros13serialization7OStreamC2EPhj
FNDA:6,_ZN3ros13serialization7LStreamC2Ev
FNDA:6,_ZN3ros13serialization7LStream9getLengthEv
FNDA:3,_ZN3ros13serialization16serializeMessageIN8std_msgs8Float32_ISaIvEEEEENS_17SerializedMessageERKT_
FNF:14
FNH:14
DA:152,12
DA:154,12
DA:155,12
DA:170,6
DA:172,6
DA:198,12
DA:202,9
DA:667,6
DA:675,9
DA:676,9
DA:677,9
DA:681,0
DA:683,9
DA:692,12
DA:694,12
DA:695,12
DA:737,6
DA:738,6
DA:739,6
DA:747,3
DA:769,6
DA:770,6
DA:771,6
DA:779,3
DA:795,6
DA:805,3
DA:807,3
DA:808,3
DA:809,3
DA:810,3
DA:812,3
DA:813,3
DA:814,3
DA:815,3
DA:817,3
LF:35
LH:34
end_of_record
SF:/opt/ros/kinetic/include/ros/serialized_message.h
FN:39,_ZN3ros17SerializedMessageD2Ev
FN:49,_ZN3ros17SerializedMessageC2Ev
FNDA:6039782,_ZN3ros17SerializedMessageD2Ev
FNDA:6039788,_ZN3ros17SerializedMessageC2Ev
FNF:2
FNH:2
DA:39,6039782
DA:49,6039788
DA:53,6039788
DA:54,6039788
LF:4
LH:4
end_of_record
SF:/opt/ros/kinetic/include/sensor_msgs/image_encodings.h
FN:104,__tcf_0
FNDA:1,__tcf_0
FNF:1
FNH:1
DA:47,1
DA:48,1
DA:49,1
DA:50,1
DA:51,1
DA:52,1
DA:53,1
DA:54,1
DA:55,1
DA:56,1
DA:59,1
DA:60,1
DA:61,1
DA:62,1
DA:63,1
DA:64,1
DA:65,1
DA:66,1
DA:67,1
DA:68,1
DA:69,1
DA:70,1
DA:71,1
DA:72,1
DA:73,1
DA:74,1
DA:75,1
DA:76,1
DA:77,1
DA:78,1
DA:79,1
DA:80,1
DA:81,1
DA:82,1
DA:83,1
DA:84,1
DA:85,1
DA:86,1
DA:89,1
DA:90,1
DA:91,1
DA:92,1
DA:93,1
DA:94,1
DA:95,1
DA:96,1
DA:101,1
DA:104,2
DA:105,1
LF:49
LH:49
end_of_record
SF:/opt/ros/kinetic/include/std_msgs/Float32.h
FN:26,_ZN8std_msgs8Float32_ISaIvEEC2Ev
FN:115,_ZN3ros14message_traits6MD5SumIN8std_msgs8Float32_ISaIvEEEE5valueEv
FN:120,_ZN3ros14message_traits6MD5SumIN8std_msgs8Float32_ISaIvEEEE5valueERKS5_
FN:128,_ZN3ros14message_traits8DataTypeIN8std_msgs8Float32_ISaIvEEEE5valueEv
FN:133,_ZN3ros14message_traits8DataTypeIN8std_msgs8Float32_ISaIvEEEE5valueERKS5_
FN:139,_ZN3ros14message_traits10DefinitionIN8std_msgs8Float32_ISaIvEEEE5valueEv
FN:158,_ZN3ros13serialization10SerializerIN8std_msgs8Float32_ISaIvEEEE8allInOneINS0_7LStreamERKS5_EEvRT_T0_
FN:158,_ZN3ros13serialization10SerializerIN8std_msgs8Float32_ISaIvEEEE8allInOneINS0_7OStreamERKS5_EEvRT_T0_
FN:163,_ZN3ros13serialization10SerializerIN8std_msgs8Float32_ISaIvEEEE16serializedLengthIS5_EEjRKT_
FN:163,_ZN3ros13serialization10SerializerIN8std_msgs8Float32_ISaIvEEEE5writeINS0_7OStreamES5_EEvRT_RKT0_
FNDA:8,_ZN8std_msgs8Float32_ISaIvEEC2Ev
FNDA:30,_ZN3ros14message_traits6MD5SumIN8std_msgs8Float32_ISaIvEEEE5valueEv
FNDA:22,_ZN3ros14message_traits6MD5SumIN8std_msgs8Float32_ISaIvEEEE5valueERKS5_
FNDA:8,_ZN3ros14message_traits8DataTypeIN8std_msgs8Float32_ISaIvEEEE5valueEv
FNDA:0,_ZN3ros14message_traits8DataTypeIN8std_msgs8Float32_ISaIvEEEE5valueERKS5_
FNDA:5,_ZN3ros14message_traits10DefinitionIN8std_msgs8Float32_ISaIvEEEE5valueEv
FNDA:3,_ZN3ros13serialization10SerializerIN8std_msgs8Float32_ISaIvEEEE8allInOneINS0_7OStreamERKS5_EEvRT_T0_
FNDA:3,_ZN3ros13serialization10SerializerIN8std_msgs8Float32_ISaIvEEEE8allInOneINS0_7LStreamERKS5_EEvRT_T0_
FNDA:3,_ZN3ros13serialization10SerializerIN8std_msgs8Float32_ISaIvEEEE5writeINS0_7OStreamES5_EEvRT_RKT0_
FNDA:3,_ZN3ros13serialization10SerializerIN8std_msgs8Float32_ISaIvEEEE16serializedLengthIS5_EEjRKT_
FNF:10
FNH:9
DA:26,8
DA:27,8
DA:28,8
DA:115,30
DA:117,30
DA:120,22
DA:128,8
DA:130,8
DA:133,0
DA:139,5
DA:141,5
DA:158,6
DA:160,6
DA:161,6
DA:163,6
LF:15
LH:14
end_of_record
SF:/usr/include/boost/bind/arg.hpp
FN:31,_ZN5boost3argILi1EEC2Ev
FN:31,_ZN5boost3argILi8EEC2Ev
FN:31,_ZN5boost3argILi4EEC2Ev
FN:31,_ZN5boost3argILi3EEC2Ev
FN:31,_ZN5boost3argILi7EEC2Ev
FN:31,_ZN5boost3argILi2EEC2Ev
FN:31,_ZN5boost3argILi9EEC2Ev
FN:31,_ZN5boost3argILi6EEC2Ev
FN:31,_ZN5boost3argILi5EEC2Ev
FNDA:0,_ZN5boost3argILi9EEC2Ev
FNDA:0,_ZN5boost3argILi8EEC2Ev
FNDA:0,_ZN5boost3argILi7EEC2Ev
FNDA:0,_ZN5boost3argILi6EEC2Ev
FNDA:0,_ZN5boost3argILi5EEC2Ev
FNDA:0,_ZN5boost3argILi4EEC2Ev
FNDA:0,_ZN5boost3argILi3EEC2Ev
FNDA:0,_ZN5boost3argILi2EEC2Ev
FNDA:0,_ZN5boost3argILi1EEC2Ev
FNF:9
FNH:0
DA:31,0
DA:33,0
LF:2
LH:0
end_of_record
SF:/usr/include/boost/bind/bind.hpp
FN:146,_ZN5boost3_bi9unwrapperIPFN3ros17SerializedMessageERKN8std_msgs8Float32_ISaIvEEEEE6unwrapERSB_l
FN:168,_ZN5boost3_bi5list0C2Ev
FN:174,_ZNK5boost3_bi5list0ixIKN8std_msgs8Float32_ISaIvEEEEERT_RKNS_17reference_wrapperIS8_EE
FN:225,_ZN5boost3_bi5list1INS_17reference_wrapperIKN8std_msgs8Float32_ISaIvEEEEEEC2ES8_
FN:241,_ZN5boost3_bi5list1INS_17reference_wrapperIKN8std_msgs8Float32_ISaIvEEEEEEclIN3ros17SerializedMessageEPFSC_RS7_ENS0_5list0EEET_NS0_4typeISH_EERT0_RT1_l
FN:886,_ZN5boost3_bi6bind_tIN3ros17SerializedMessageEPFS3_RKN8std_msgs8Float32_ISaIvEEEENS0_5list1INS_17reference_wrapperIS8_EEEEEC2ESB_RKSF_
FN:890,_ZN5boost3_bi6bind_tIN3ros17SerializedMessageEPFS3_RKN8std_msgs8Float32_ISaIvEEEENS0_5list1INS_17reference_wrapperIS8_EEEEEclEv
FNDA:3,_ZN5boost3_bi9unwrapperIPFN3ros17SerializedMessageERKN8std_msgs8Float32_ISaIvEEEEE6unwrapERSB_l
FNDA:6,_ZN5boost3_bi5list0C2Ev
FNDA:3,_ZNK5boost3_bi5list0ixIKN8std_msgs8Float32_ISaIvEEEEERT_RKNS_17reference_wrapperIS8_EE
FNDA:11,_ZN5boost3_bi5list1INS_17reference_wrapperIKN8std_msgs8Float32_ISaIvEEEEEEC2ES8_
FNDA:3,_ZN5boost3_bi5list1INS_17reference_wrapperIKN8std_msgs8Float32_ISaIvEEEEEEclIN3ros17SerializedMessageEPFSC_RS7_ENS0_5list0EEET_NS0_4typeISH_EERT0_RT1_l
FNDA:11,_ZN5boost3_bi6bind_tIN3ros17SerializedMessageEPFS3_RKN8std_msgs8Float32_ISaIvEEEENS0_5list1INS_17reference_wrapperIS8_EEEEEC2ESB_RKSF_
FNDA:3,_ZN5boost3_bi6bind_tIN3ros17SerializedMessageEPFS3_RKN8std_msgs8Float32_ISaIvEEEENS0_5list1INS_17reference_wrapperIS8_EEEEEclEv
FNF:7
FNH:7
DA:146,3
DA:148,3
DA:168,6
DA:174,6
DA:225,11
DA:241,3
DA:243,3
DA:886,11
DA:890,3
DA:892,3
DA:893,3
LF:11
LH:11
end_of_record
SF:/usr/include/boost/bind/bind_cc.hpp
FN:26,_ZN5boost4bindIN3ros17SerializedMessageERKN8std_msgs8Float32_ISaIvEEENS_17reference_wrapperIS7_EEEENS_3_bi6bind_tIT_PFSD_T0_ENSB_9list_av_1IT1_E4typeEEESG_SI_
FNDA:11,_ZN5boost4bindIN3ros17SerializedMessageERKN8std_msgs8Float32_ISaIvEEENS_17reference_wrapperIS7_EEEENS_3_bi6bind_tIT_PFSD_T0_ENSB_9list_av_1IT1_E4typeEEESG_SI_
FNF:1
FNH:1
DA:26,11
DA:30,11
LF:2
LH:2
end_of_record
SF:/usr/include/boost/bind/placeholders.hpp
DA:55,1
DA:56,1
DA:57,1
DA:58,1
DA:59,1
DA:60,1
DA:61,1
DA:62,1
DA:63,1
LF:9
LH:9
end_of_record
SF:/usr/include/boost/bind/storage.hpp
FN:42,_ZN5boost3_bi8storage1INS_17reference_wrapperIKN8std_msgs8Float32_ISaIvEEEEEEC2ES8_
FNDA:11,_ZN5boost3_bi8storage1INS_17reference_wrapperIKN8std_msgs8Float32_ISaIvEEEEEEC2ES8_
FNF:1
FNH:1
DA:42,11
LF:1
LH:1
end_of_record
SF:/usr/include/boost/core/addressof.hpp
DA:29,22
DA:30,22
DA:41,22
DA:116,44
LF:4
LH:4
end_of_record
SF:/usr/include/boost/core/checked_delete.hpp
FN:37,_ZN5boost20checked_array_deleteIhEEvPT_
FN:61,_ZNK5boost21checked_array_deleterIhEclEPh
FNDA:76,_ZN5boost20checked_array_deleteIhEEvPT_
FNDA:76,_ZNK5boost21checked_array_deleterIhEclEPh
FNF:2
FNH:2
DA:37,76
DA:41,76
DA:42,76
DA:61,76
DA:63,76
DA:64,76
LF:6
LH:6
end_of_record
SF:/usr/include/boost/core/ref.hpp
DA:73,11
DA:99,3
DA:139,11
LF:3
LH:3
end_of_record
SF:/usr/include/boost/function/function_base.hpp
FN:312,_ZN5boost6detail8function22functor_manager_commonINS_3_bi6bind_tIN3ros17SerializedMessageEPFS6_RKN8std_msgs8Float32_ISaIvEEEENS3_5list1INS_17reference_wrapperISB_EEEEEEE12manage_smallERKNS1_15function_bufferERSL_NS1_30functor_manager_operation_typeE
FN:361,_ZN5boost6detail8function15functor_managerINS_3_bi6bind_tIN3ros17SerializedMessageEPFS6_RKN8std_msgs8Float32_ISaIvEEEENS3_5list1INS_17reference_wrapperISB_EEEEEEE7managerERKNS1_15function_bufferERSL_NS1_30functor_manager_operation_typeEN4mpl_5bool_ILb1EEE
FN:409,_ZN5boost6detail8function15functor_managerINS_3_bi6bind_tIN3ros17SerializedMessageEPFS6_RKN8std_msgs8Float32_ISaIvEEEENS3_5list1INS_17reference_wrapperISB_EEEEEEE7managerERKNS1_15function_bufferERSL_NS1_30functor_manager_operation_typeENS1_16function_obj_tagE
FN:428,_ZN5boost6detail8function15functor_managerINS_3_bi6bind_tIN3ros17SerializedMessageEPFS6_RKN8std_msgs8Float32_ISaIvEEEENS3_5list1INS_17reference_wrapperISB_EEEEEEE6manageERKNS1_15function_bufferERSL_NS1_30functor_manager_operation_typeE
FN:633,_ZN5boost13function_baseC2Ev
FN:636,_ZNK5boost13function_base5emptyEv
FN:719,_ZNK5boost13function_base28has_trivial_copy_and_destroyEv
FN:886,_ZN5boost6detail8function16has_empty_targetEz
FNDA:0,_ZN5boost6detail8function22functor_manager_commonINS_3_bi6bind_tIN3ros17SerializedMessageEPFS6_RKN8std_msgs8Float32_ISaIvEEEENS3_5list1INS_17reference_wrapperISB_EEEEEEE12manage_smallERKNS1_15function_bufferERSL_NS1_30functor_manager_operation_typeE
FNDA:0,_ZN5boost6detail8function15functor_managerINS_3_bi6bind_tIN3ros17SerializedMessageEPFS6_RKN8std_msgs8Float32_ISaIvEEEENS3_5list1INS_17reference_wrapperISB_EEEEEEE7managerERKNS1_15function_bufferERSL_NS1_30functor_manager_operation_typeEN4mpl_5bool_ILb1EEE
FNDA:0,_ZN5boost6detail8function15functor_managerINS_3_bi6bind_tIN3ros17SerializedMessageEPFS6_RKN8std_msgs8Float32_ISaIvEEEENS3_5list1INS_17reference_wrapperISB_EEEEEEE7managerERKNS1_15function_bufferERSL_NS1_30functor_manager_operation_typeENS1_16function_obj_tagE
FNDA:0,_ZN5boost6detail8function15functor_managerINS_3_bi6bind_tIN3ros17SerializedMessageEPFS6_RKN8std_msgs8Float32_ISaIvEEEENS3_5list1INS_17reference_wrapperISB_EEEEEEE6manageERKNS1_15function_bufferERSL_NS1_30functor_manager_operation_typeE
FNDA:6040014,_ZN5boost13function_baseC2Ev
FNDA:244,_ZNK5boost13function_base5emptyEv
FNDA:6039944,_ZNK5boost13function_base28has_trivial_copy_and_destroyEv
FNDA:6040135,_ZN5boost6detail8function16has_empty_targetEz
FNF:8
FNH:4
DA:312,0
DA:315,0
DA:317,0
DA:318,0
DA:320,0
DA:321,0
DA:324,0
DA:325,0
DA:327,0
DA:330,0
DA:332,0
DA:333,0
DA:334,0
DA:336,0
DA:338,0
DA:339,0
DA:340,0
DA:342,0
DA:361,0
DA:364,0
DA:365,0
DA:409,0
DA:412,0
DA:414,0
DA:428,0
DA:432,0
DA:434,0
DA:435,0
DA:436,0
DA:437,0
DA:440,0
DA:441,0
DA:633,6040014
DA:636,244
DA:719,6039944
DA:720,6039944
DA:886,6040135
DA:888,6040135
LF:38
LH:6
end_of_record
SF:/usr/include/boost/function/function_template.hpp
FN:129,_ZN5boost6detail8function21function_obj_invoker0INS_3_bi6bind_tIN3ros17SerializedMessageEPFS6_RKN8std_msgs8Float32_ISaIvEEEENS3_5list1INS_17reference_wrapperISB_EEEEEES6_E6invokeERNS1_15function_bufferE
FN:495,_ZNK5boost6detail8function13basic_vtable0IN3ros17SerializedMessageEE9assign_toINS_3_bi6bind_tIS4_PFS4_RKN8std_msgs8Float32_ISaIvEEEENS7_5list1INS_17reference_wrapperISD_EEEEEEEEbT_RNS1_15function_bufferE
FN:507,_ZNK5boost6detail8function13basic_vtable1IvRKN3ros25SingleSubscriberPublisherEE5clearERNS1_15function_bufferE
FN:507,_ZNK5boost6detail8function13basic_vtable0IN3ros17SerializedMessageEE5clearERNS1_15function_bufferE
FN:570,_ZNK5boost6detail8function13basic_vtable0IN3ros17SerializedMessageEE14assign_functorINS_3_bi6bind_tIS4_PFS4_RKN8std_msgs8Float32_ISaIvEEEENS7_5list1INS_17reference_wrapperISD_EEEEEEEEvT_RNS1_15function_bufferEN4mpl_5bool_ILb1EEE
FN:605,_ZNK5boost6detail8function13basic_vtable0IN3ros17SerializedMessageEE9assign_toINS_3_bi6bind_tIS4_PFS4_RKN8std_msgs8Float32_ISaIvEEEENS7_5list1INS_17reference_wrapperISD_EEEEEEEEbT_RNS1_15function_bufferENS1_16function_obj_tagE
FN:684,_ZNK5boost9function0IN3ros17SerializedMessageEE10get_vtableEv
FN:684,_ZNK5boost9function1IvRKN3ros25SingleSubscriberPublisherEE10get_vtableEv
FN:713,_ZN5boost9function1IvRKN3ros25SingleSubscriberPublisherEEC2Ev
FN:718,_ZN5boost9function0IN3ros17SerializedMessageEEC2INS_3_bi6bind_tIS2_PFS2_RKN8std_msgs8Float32_ISaIvEEEENS5_5list1INS_17reference_wrapperISB_EEEEEEEET_NS_11enable_if_cIXsrNS_11type_traits7ice_notIXsrNS_11is_integralISK_EE5valueEEE5valueEiE4typeE
FN:753,_ZN5boost9function1IvRKN3ros25SingleSubscriberPublisherEEC2ERKS5_
FN:765,_ZN5boost9function1IvRKN3ros25SingleSubscriberPublisherEED2Ev
FN:765,_ZN5boost9function0IN3ros17SerializedMessageEED2Ev
FN:867,_ZN5boost9function1IvRKN3ros25SingleSubscriberPublisherEE4swapERS5_
FN:879,_ZN5boost9function1IvRKN3ros25SingleSubscriberPublisherEE5clearEv
FN:879,_ZN5boost9function0IN3ros17SerializedMessageEE5clearEv
FN:908,_ZN5boost9function1IvRKN3ros25SingleSubscriberPublisherEE13assign_to_ownERKS5_
FN:921,_ZN5boost9function0IN3ros17SerializedMessageEE9assign_toINS_3_bi6bind_tIS2_PFS2_RKN8std_msgs8Float32_ISaIvEEEENS5_5list1INS_17reference_wrapperISB_EEEEEEEEvT_
FN:992,_ZN5boost9function1IvRKN3ros25SingleSubscriberPublisherEE11move_assignERS5_
FN:1056,_ZN5boost8functionIFvRKN3ros25SingleSubscriberPublisherEEED2Ev
FN:1056,_ZN5boost8functionIFN3ros17SerializedMessageEvEED2Ev
FN:1066,_ZN5boost8functionIFvRKN3ros25SingleSubscriberPublisherEEEC2Ev
FN:1069,_ZN5boost8functionIFN3ros17SerializedMessageEvEEC2INS_3_bi6bind_tIS2_PFS2_RKN8std_msgs8Float32_ISaIvEEEENS6_5list1INS_17reference_wrapperISC_EEEEEEEET_NS_11enable_if_cIXsrNS_11type_traits7ice_notIXsrNS_11is_integralISL_EE5valueEEE5valueEiE4typeE
FN:1097,_ZN5boost8functionIFvRKN3ros25SingleSubscriberPublisherEEEC2ERKS6_
FN:1107,_ZN5boost8functionIFvRKN3ros25SingleSubscriberPublisherEEEaSERKS6_
FNDA:3,_ZN5boost6detail8function21function_obj_invoker0INS_3_bi6bind_tIN3ros17SerializedMessageEPFS6_RKN8std_msgs8Float32_ISaIvEEEENS3_5list1INS_17reference_wrapperISB_EEEEEES6_E6invokeERNS1_15function_bufferE
FNDA:11,_ZNK5boost6detail8function13basic_vtable0IN3ros17SerializedMessageEE9assign_toINS_3_bi6bind_tIS4_PFS4_RKN8std_msgs8Float32_ISaIvEEEENS7_5list1INS_17reference_wrapperISD_EEEEEEEEbT_RNS1_15function_bufferE
FNDA:0,_ZNK5boost6detail8function13basic_vtable0IN3ros17SerializedMessageEE5clearERNS1_15function_bufferE
FNDA:0,_ZNK5boost6detail8function13basic_vtable1IvRKN3ros25SingleSubscriberPublisherEE5clearERNS1_15function_bufferE
FNDA:11,_ZNK5boost6detail8function13basic_vtable0IN3ros17SerializedMessageEE14assign_functorINS_3_bi6bind_tIS4_PFS4_RKN8std_msgs8Float32_ISaIvEEEENS7_5list1INS_17reference_wrapperISD_EEEEEEEEvT_RNS1_15function_bufferEN4mpl_5bool_ILb1EEE
FNDA:11,_ZNK5boost6detail8function13basic_vtable0IN3ros17SerializedMessageEE9assign_toINS_3_bi6bind_tIS4_PFS4_RKN8std_msgs8Float32_ISaIvEEEENS7_5list1INS_17reference_wrapperISD_EEEEEEEEbT_RNS1_15function_bufferENS1_16function_obj_tagE
FNDA:0,_ZNK5boost9function0IN3ros17SerializedMessageEE10get_vtableEv
FNDA:0,_ZNK5boost9function1IvRKN3ros25SingleSubscriberPublisherEE10get_vtableEv
FNDA:102,_ZN5boost9function1IvRKN3ros25SingleSubscriberPublisherEEC2Ev
FNDA:11,_ZN5boost9function0IN3ros17SerializedMessageEEC2INS_3_bi6bind_tIS2_PFS2_RKN8std_msgs8Float32_ISaIvEEEENS5_5list1INS_17reference_wrapperISB_EEEEEEEET_NS_11enable_if_cIXsrNS_11type_traits7ice_notIXsrNS_11is_integralISK_EE5valueEEE5valueEiE4typeE
FNDA:34,_ZN5boost9function1IvRKN3ros25SingleSubscriberPublisherEEC2ERKS5_
FNDA:6039782,_ZN5boost9function0IN3ros17SerializedMessageEED2Ev
FNDA:136,_ZN5boost9function1IvRKN3ros25SingleSubscriberPublisherEED2Ev
FNDA:34,_ZN5boost9function1IvRKN3ros25SingleSubscriberPublisherEE4swapERS5_
FNDA:6039782,_ZN5boost9function0IN3ros17SerializedMessageEE5clearEv
FNDA:238,_ZN5boost9function1IvRKN3ros25SingleSubscriberPublisherEE5clearEv
FNDA:34,_ZN5boost9function1IvRKN3ros25SingleSubscriberPublisherEE13assign_to_ownERKS5_
FNDA:11,_ZN5boost9function0IN3ros17SerializedMessageEE9assign_toINS_3_bi6bind_tIS2_PFS2_RKN8std_msgs8Float32_ISaIvEEEENS5_5list1INS_17reference_wrapperISB_EEEEEEEEvT_
FNDA:102,_ZN5boost9function1IvRKN3ros25SingleSubscriberPublisherEE11move_assignERS5_
FNDA:6039782,_ZN5boost8functionIFN3ros17SerializedMessageEvEED2Ev
FNDA:102,_ZN5boost8functionIFvRKN3ros25SingleSubscriberPublisherEEED2Ev
FNDA:68,_ZN5boost8functionIFvRKN3ros25SingleSubscriberPublisherEEEC2Ev
FNDA:11,_ZN5boost8functionIFN3ros17SerializedMessageEvEEC2INS_3_bi6bind_tIS2_PFS2_RKN8std_msgs8Float32_ISaIvEEEENS6_5list1INS_17reference_wrapperISC_EEEEEEEET_NS_11enable_if_cIXsrNS_11type_traits7ice_notIXsrNS_11is_integralISL_EE5valueEEE5valueEiE4typeE
FNDA:34,_ZN5boost8functionIFvRKN3ros25SingleSubscriberPublisherEEEC2ERKS6_
FNDA:34,_ZN5boost8functionIFvRKN3ros25SingleSubscriberPublisherEEEaSERKS6_
FNF:25
FNH:21
DA:129,3
DA:135,3
DA:138,3
DA:495,11
DA:498,11
DA:507,0
DA:509,0
DA:510,0
DA:511,0
DA:570,11
DA:572,11
DA:573,11
DA:605,11
DA:607,11
DA:608,11
DA:610,11
DA:612,0
DA:684,0
DA:686,0
DA:713,102
DA:718,11
DA:726,11
DA:728,11
DA:729,11
DA:753,34
DA:755,34
DA:756,34
DA:765,6039918
DA:867,34
DA:869,34
DA:870,0
DA:872,68
DA:873,34
DA:874,34
DA:875,34
DA:879,6040020
DA:881,6040020
DA:882,6039782
DA:883,0
DA:884,6039782
DA:886,6040020
DA:908,34
DA:910,34
DA:911,0
DA:912,0
DA:913,0
DA:915,0
DA:918,34
DA:921,11
DA:942,11
DA:943,11
DA:948,11
DA:949,11
DA:951,0
DA:952,11
DA:992,102
DA:994,102
DA:995,0
DA:998,102
DA:999,0
DA:1000,0
DA:1001,0
DA:1003,0
DA:1005,0
DA:1007,102
DA:1009,0
DA:1010,0
DA:1011,0
DA:1056,6039884
DA:1066,68
DA:1069,11
DA:1077,11
DA:1079,11
DA:1097,34
DA:1107,34
DA:1109,34
DA:1110,34
LF:77
LH:54
end_of_record
SF:/usr/include/boost/smart_ptr/detail/operator_bool.hpp
FN:60,_ZNK5boost10shared_ptrIN3ros9Publisher4ImplEEntEv
FNDA:6039782,_ZNK5boost10shared_ptrIN3ros9Publisher4ImplEEntEv
FNF:1
FNH:1
DA:60,6039782
DA:62,6039782
LF:2
LH:2
end_of_record
SF:/usr/include/boost/smart_ptr/detail/shared_count.hpp
FN:114,_ZN5boost6detail12shared_countC2Ev
FN:154,_ZN5boost6detail12shared_countC2IPhNS_21checked_array_deleterIhEEEET_T0_
FN:441,_ZN5boost6detail12shared_countD2Ev
FN:449,_ZN5boost6detail12shared_countC2ERKS1_
FN:486,_ZN5boost6detail12shared_count4swapERS1_
FNDA:0,_ZN5boost6detail12shared_countC2Ev
FNDA:6,_ZN5boost6detail12shared_countC2IPhNS_21checked_array_deleterIhEEEET_T0_
FNDA:0,_ZN5boost6detail12shared_countD2Ev
FNDA:0,_ZN5boost6detail12shared_countC2ERKS1_
FNDA:81,_ZN5boost6detail12shared_count4swapERS1_
FNF:5
FNH:2
DA:114,0
DA:119,0
DA:154,6
DA:167,6
DA:169,0
DA:171,0
DA:172,0
DA:186,6
DA:441,0
DA:442,0
DA:443,0
DA:447,0
DA:449,0
DA:454,0
DA:455,0
DA:486,81
DA:488,81
DA:489,81
DA:490,81
DA:491,81
LF:20
LH:8
end_of_record
SF:/usr/include/boost/smart_ptr/detail/sp_counted_base_gcc_x86.hpp
FN:35,_ZN5boost6detail23atomic_exchange_and_addEPii
FN:55,_ZN5boost6detail16atomic_incrementEPi
FN:109,_ZN5boost6detail15sp_counted_baseC2Ev
FN:113,_ZN5boost6detail15sp_counted_baseD0Ev
FN:113,_ZN5boost6detail15sp_counted_baseD2Ev
FN:124,_ZN5boost6detail15sp_counted_base7destroyEv
FN:132,_ZN5boost6detail15sp_counted_base12add_ref_copyEv
FN:142,_ZN5boost6detail15sp_counted_base7releaseEv
FN:156,_ZN5boost6detail15sp_counted_base12weak_releaseEv
FNDA:0,_ZN5boost6detail23atomic_exchange_and_addEPii
FNDA:0,_ZN5boost6detail16atomic_incrementEPi
FNDA:18,_ZN5boost6detail15sp_counted_baseC2Ev
FNDA:0,_ZN5boost6detail15sp_counted_baseD0Ev
FNDA:88,_ZN5boost6detail15sp_counted_baseD2Ev
FNDA:52,_ZN5boost6detail15sp_counted_base7destroyEv
FNDA:0,_ZN5boost6detail15sp_counted_base12add_ref_copyEv
FNDA:0,_ZN5boost6detail15sp_counted_base7releaseEv
FNDA:0,_ZN5boost6detail15sp_counted_base12weak_releaseEv
FNF:9
FNH:3
DA:35,0
DA:50,0
DA:52,0
DA:55,0
DA:66,0
DA:67,0
DA:109,18
DA:111,18
DA:113,88
DA:114,88
DA:115,88
DA:124,52
DA:126,52
DA:127,52
DA:132,0
DA:134,0
DA:135,0
DA:142,0
DA:144,0
DA:146,0
DA:147,0
DA:149,0
DA:156,0
DA:158,0
DA:160,0
DA:162,0
LF:26
LH:8
end_of_record
SF:/usr/include/boost/smart_ptr/detail/sp_counted_impl.hpp
FN:127,_ZN5boost6detail18sp_counted_impl_pdIPhNS_21checked_array_deleterIhEEED2Ev
FN:127,_ZN5boost6detail18sp_counted_impl_pdIPhNS_21checked_array_deleterIhEEED0Ev
FN:143,_ZN5boost6detail18sp_counted_impl_pdIPhNS_21checked_array_deleterIhEEEC2ES2_RS4_
FN:151,_ZN5boost6detail18sp_counted_impl_pdIPhNS_21checked_array_deleterIhEEE7disposeEv
FN:156,_ZN5boost6detail18sp_counted_impl_pdIPhNS_21checked_array_deleterIhEEE11get_deleterERKSt9type_info
FN:161,_ZN5boost6detail18sp_counted_impl_pdIPhNS_21checked_array_deleterIhEEE19get_untyped_deleterEv
FNDA:76,_ZN5boost6detail18sp_counted_impl_pdIPhNS_21checked_array_deleterIhEEED0Ev
FNDA:76,_ZN5boost6detail18sp_counted_impl_pdIPhNS_21checked_array_deleterIhEEED2Ev
FNDA:6,_ZN5boost6detail18sp_counted_impl_pdIPhNS_21checked_array_deleterIhEEEC2ES2_RS4_
FNDA:76,_ZN5boost6detail18sp_counted_impl_pdIPhNS_21checked_array_deleterIhEEE7disposeEv
FNDA:0,_ZN5boost6detail18sp_counted_impl_pdIPhNS_21checked_array_deleterIhEEE11get_deleterERKSt9type_info
FNDA:0,_ZN5boost6detail18sp_counted_impl_pdIPhNS_21checked_array_deleterIhEEE19get_untyped_deleterEv
FNF:6
FNH:4
DA:127,152
DA:143,6
DA:145,6
DA:151,76
DA:153,76
DA:154,76
DA:156,0
DA:158,0
DA:161,0
DA:163,0
LF:10
LH:6
end_of_record
SF:/usr/include/boost/smart_ptr/shared_array.hpp
FN:44,_ZN5boost12shared_arrayIhED2Ev
FN:56,_ZN5boost12shared_arrayIhEC2Ev
FN:69,_ZN5boost12shared_arrayIhEC2IhEEPT_
FN:175,_ZN5boost12shared_arrayIhE5resetIhEEvPT_
FN:203,_ZNK5boost12shared_arrayIhE3getEv
FN:221,_ZN5boost12shared_arrayIhE4swapERS1_
FNDA:6039788,_ZN5boost12shared_arrayIhED2Ev
FNDA:6039788,_ZN5boost12shared_arrayIhEC2Ev
FNDA:6,_ZN5boost12shared_arrayIhEC2IhEEPT_
FNDA:6,_ZN5boost12shared_arrayIhE5resetIhEEvPT_
FNDA:6,_ZNK5boost12shared_arrayIhE3getEv
FNDA:6,_ZN5boost12shared_arrayIhE4swapERS1_
FNF:6
FNH:6
DA:44,6039788
DA:56,6039788
DA:58,6039788
DA:69,6
DA:71,6
DA:72,6
DA:175,6
DA:177,6
DA:178,6
DA:179,6
DA:203,6
DA:205,6
DA:221,6
DA:223,6
DA:224,6
DA:225,6
LF:16
LH:16
end_of_record
SF:/usr/include/boost/smart_ptr/shared_ptr.hpp
FN:251,_ZN5boost6detail21sp_assert_convertibleIA_hS2_EEvv
FN:323,_ZN5boost10shared_ptrIN9cv_bridge7CvImageEED2Ev
FN:323,_ZN5boost10shared_ptrIN3ros9Publisher4ImplEED2Ev
FN:323,_ZN5boost10shared_ptrIKvED2Ev
FN:334,_ZN5boost10shared_ptrIN9cv_bridge7CvImageEEC2Ev
FN:334,_ZN5boost10shared_ptrIKvEC2Ev
FN:334,_ZN5boost10shared_ptrIN3ros9Publisher4ImplEEC2Ev
FN:392,_ZN5boost10shared_ptrIN3ros9Publisher4ImplEEC2ERKS4_
FN:500,_ZN5boost10shared_ptrIN3ros9Publisher4ImplEEaSERKS4_
FN:563,_ZN5boost10shared_ptrIN9cv_bridge7CvImageEEC2EOS3_
FN:587,_ZN5boost10shared_ptrIN9cv_bridge7CvImageEEaSEOS3_
FN:646,_ZNK5boost10shared_ptrIKN11sensor_msgs6Image_ISaIvEEEEptEv
FN:646,_ZNK5boost10shared_ptrIN3ros9Publisher4ImplEEptEv
FN:646,_ZNK5boost10shared_ptrIN9cv_bridge7CvImageEEptEv
FN:679,_ZN5boost10shared_ptrIN9cv_bridge7CvImageEE4swapERS3_
FN:679,_ZN5boost10shared_ptrIN3ros9Publisher4ImplEE4swapERS4_
FNDA:6,_ZN5boost6detail21sp_assert_convertibleIA_hS2_EEvv
FNDA:8,_ZN5boost10shared_ptrIN9cv_bridge7CvImageEED2Ev
FNDA:11,_ZN5boost10shared_ptrIN3ros9Publisher4ImplEED2Ev
FNDA:0,_ZN5boost10shared_ptrIKvED2Ev
FNDA:4,_ZN5boost10shared_ptrIN9cv_bridge7CvImageEEC2Ev
FNDA:11,_ZN5boost10shared_ptrIN3ros9Publisher4ImplEEC2Ev
FNDA:0,_ZN5boost10shared_ptrIKvEC2Ev
FNDA:11,_ZN5boost10shared_ptrIN3ros9Publisher4ImplEEC2ERKS4_
FNDA:11,_ZN5boost10shared_ptrIN3ros9Publisher4ImplEEaSERKS4_
FNDA:2,_ZN5boost10shared_ptrIN9cv_bridge7CvImageEEC2EOS3_
FNDA:2,_ZN5boost10shared_ptrIN9cv_bridge7CvImageEEaSEOS3_
FNDA:0,_ZNK5boost10shared_ptrIKN11sensor_msgs6Image_ISaIvEEEEptEv
FNDA:2,_ZNK5boost10shared_ptrIN9cv_bridge7CvImageEEptEv
FNDA:18119346,_ZNK5boost10shared_ptrIN3ros9Publisher4ImplEEptEv
FNDA:2,_ZN5boost10shared_ptrIN9cv_bridge7CvImageEE4swapERS3_
FNDA:11,_ZN5boost10shared_ptrIN3ros9Publisher4ImplEE4swapERS4_
FNF:16
FNH:13
DA:251,6
DA:265,6
DA:323,19
DA:334,15
DA:336,15
DA:392,11
DA:394,11
DA:500,11
DA:502,11
DA:503,11
DA:563,2
DA:565,2
DA:566,2
DA:567,2
DA:587,2
DA:589,2
DA:590,2
DA:646,18119348
DA:648,18119348
DA:649,18119348
DA:679,13
DA:681,13
DA:682,13
DA:683,13
LF:24
LH:24
end_of_record
SF:/usr/include/c++/5/bits/alloc_traits.h
FN:516,_ZNSt16allocator_traitsISaISt13_Rb_tree_nodeISt4pairIKNSt7__cxx1112basic_stringIcSt11char_traitsIcESaIcEEES7_EEEE10deallocateERSB_PSA_m
FN:516,_ZNSt16allocator_traitsISaIN2cv3VecIfLi2EEEEE10deallocateERS3_PS2_m
FN:541,_ZNSt16allocator_traitsISaISt13_Rb_tree_nodeISt4pairIKNSt7__cxx1112basic_stringIcSt11char_traitsIcESaIcEEES7_EEEE7destroyIS9_EEvRSB_PT_
FNDA:0,_ZNSt16allocator_traitsISaISt13_Rb_tree_nodeISt4pairIKNSt7__cxx1112basic_stringIcSt11char_traitsIcESaIcEEES7_EEEE10deallocateERSB_PSA_m
FNDA:7,_ZNSt16allocator_traitsISaIN2cv3VecIfLi2EEEEE10deallocateERS3_PS2_m
FNDA:0,_ZNSt16allocator_traitsISaISt13_Rb_tree_nodeISt4pairIKNSt7__cxx1112basic_stringIcSt11char_traitsIcESaIcEEES7_EEEE7destroyIS9_EEvRSB_PT_
FNF:3
FNH:1
DA:516,7
DA:517,7
DA:541,0
DA:542,0
LF:4
LH:2
end_of_record
SF:/usr/include/c++/5/bits/allocator.h
FN:113,_ZNSaISt13_Rb_tree_nodeISt4pairIKNSt7__cxx1112basic_stringIcSt11char_traitsIcESaIcEEES6_EEEC2Ev
FN:113,_ZNSaIN2cv3VecIfLi2EEEEC2Ev
FN:121,_ZNSaISt13_Rb_tree_nodeISt4pairIKNSt7__cxx1112basic_stringIcSt11char_traitsIcESaIcEEES6_EEED2Ev
FN:121,_ZNSaIN2cv3VecIfLi2EEEED2Ev
FNDA:8,_ZNSaIN2cv3VecIfLi2EEEEC2Ev
FNDA:0,_ZNSaISt13_Rb_tree_nodeISt4pairIKNSt7__cxx1112basic_stringIcSt11char_traitsIcESaIcEEES6_EEEC2Ev
FNDA:8,_ZNSaIN2cv3VecIfLi2EEEED2Ev
FNDA:0,_ZNSaISt13_Rb_tree_nodeISt4pairIKNSt7__cxx1112basic_stringIcSt11char_traitsIcESaIcEEES6_EEED2Ev
FNF:4
FNH:2
DA:113,8
DA:121,8
LF:2
LH:2
end_of_record
SF:/usr/include/c++/5/bits/basic_string.h
FN:4937,_ZSteqIcSt11char_traitsIcESaIcEEbRKNSt7__cxx1112basic_stringIT_T0_T1_EEPKS5_
FNDA:18119607,_ZSteqIcSt11char_traitsIcESaIcEEbRKNSt7__cxx1112basic_stringIT_T0_T1_EEPKS5_
FNF:1
FNH:1
DA:4937,18119607
DA:4939,18119607
LF:2
LH:2
end_of_record
SF:/usr/include/c++/5/bits/ios_base.h
FN:129,_ZStorSt13_Ios_OpenmodeS_
FNDA:0,_ZStorSt13_Ios_OpenmodeS_
FNF:1
FNH:0
DA:129,0
DA:130,0
LF:2
LH:0
end_of_record
SF:/usr/include/c++/5/bits/move.h
FN:101,_ZSt4moveIRPN9cv_bridge7CvImageEEONSt16remove_referenceIT_E4typeEOS5_
FN:101,_ZSt4moveIRPN3ros9Publisher4ImplEEONSt16remove_referenceIT_E4typeEOS6_
FN:101,_ZSt4moveIRPhEONSt16remove_referenceIT_E4typeEOS3_
FN:176,_ZSt4swapIPN3ros9Publisher4ImplEEvRT_S5_
FN:176,_ZSt4swapIPN9cv_bridge7CvImageEEvRT_S4_
FN:176,_ZSt4swapIPhEvRT_S2_
FNDA:6,_ZSt4moveIRPN9cv_bridge7CvImageEEONSt16remove_referenceIT_E4typeEOS5_
FNDA:33,_ZSt4moveIRPN3ros9Publisher4ImplEEONSt16remove_referenceIT_E4typeEOS6_
FNDA:18,_ZSt4moveIRPhEONSt16remove_referenceIT_E4typeEOS3_
FNDA:2,_ZSt4swapIPN9cv_bridge7CvImageEEvRT_S4_
FNDA:11,_ZSt4swapIPN3ros9Publisher4ImplEEvRT_S5_
FNDA:6,_ZSt4swapIPhEvRT_S2_
FNF:6
FNH:6
DA:101,57
DA:102,57
DA:176,19
DA:185,19
DA:186,19
DA:187,19
DA:188,19
LF:7
LH:7
end_of_record
SF:/usr/include/c++/5/bits/stl_construct.h
FN:112,_ZNSt12_Destroy_auxILb1EE9__destroyIPN2cv3VecIfLi2EEEEEvT_S6_
FN:122,_ZSt8_DestroyIPN2cv3VecIfLi2EEEEvT_S4_
FN:148,_ZSt8_DestroyIPN2cv3VecIfLi2EEES2_EvT_S4_RSaIT0_E
FNDA:8,_ZNSt12_Destroy_auxILb1EE9__destroyIPN2cv3VecIfLi2EEEEEvT_S6_
FNDA:8,_ZSt8_DestroyIPN2cv3VecIfLi2EEEEvT_S4_
FNDA:8,_ZSt8_DestroyIPN2cv3VecIfLi2EEES2_EvT_S4_RSaIT0_E
FNF:3
FNH:3
DA:112,8
DA:122,8
DA:126,8
DA:128,8
DA:148,8
DA:151,8
DA:152,8
LF:7
LH:7
end_of_record
SF:/usr/include/c++/5/bits/stl_function.h
FN:105,_ZNSt14unary_functionIRKN3ros25SingleSubscriberPublisherEvEC2Ev
FNDA:136,_ZNSt14unary_functionIRKN3ros25SingleSubscriberPublisherEvEC2Ev
FNF:1
FNH:1
DA:105,136
LF:1
LH:1
end_of_record
SF:/usr/include/c++/5/bits/stl_map.h
FN:96,_ZNSt3mapINSt7__cxx1112basic_stringIcSt11char_traitsIcESaIcEEES5_St4lessIS5_ESaISt4pairIKS5_S5_EEED2Ev
FN:162,_ZNSt3mapINSt7__cxx1112basic_stringIcSt11char_traitsIcESaIcEEES5_St4lessIS5_ESaISt4pairIKS5_S5_EEEC2Ev
FNDA:0,_ZNSt3mapINSt7__cxx1112basic_stringIcSt11char_traitsIcESaIcEEES5_St4lessIS5_ESaISt4pairIKS5_S5_EEED2Ev
FNDA:0,_ZNSt3mapINSt7__cxx1112basic_stringIcSt11char_traitsIcESaIcEEES5_St4lessIS5_ESaISt4pairIKS5_S5_EEEC2Ev
FNF:2
FNH:0
DA:96,0
DA:162,0
DA:166,0
LF:3
LH:0
end_of_record
SF:/usr/include/c++/5/bits/stl_pair.h
FN:96,_ZNSt4pairIKNSt7__cxx1112basic_stringIcSt11char_traitsIcESaIcEEES5_ED2Ev
FNDA:0,_ZNSt4pairIKNSt7__cxx1112basic_stringIcSt11char_traitsIcESaIcEEES5_ED2Ev
FNF:1
FNH:0
DA:96,0
LF:1
LH:0
end_of_record
SF:/usr/include/c++/5/bits/stl_tree.h
FN:152,_ZNSt13_Rb_tree_nodeISt4pairIKNSt7__cxx1112basic_stringIcSt11char_traitsIcESaIcEEES6_EE9_M_valptrEv
FN:477,_ZNSt8_Rb_treeINSt7__cxx1112basic_stringIcSt11char_traitsIcESaIcEEESt4pairIKS5_S5_ESt10_Select1stIS8_ESt4lessIS5_ESaIS8_EE21_M_get_Node_allocatorEv
FN:494,_ZNSt8_Rb_treeINSt7__cxx1112basic_stringIcSt11char_traitsIcESaIcEEESt4pairIKS5_S5_ESt10_Select1stIS8_ESt4lessIS5_ESaIS8_EE11_M_put_nodeEPSt13_Rb_tree_nodeIS8_E
FN:551,_ZNSt8_Rb_treeINSt7__cxx1112basic_stringIcSt11char_traitsIcESaIcEEESt4pairIKS5_S5_ESt10_Select1stIS8_ESt4lessIS5_ESaIS8_EE15_M_destroy_nodeEPSt13_Rb_tree_nodeIS8_E
FN:559,_ZNSt8_Rb_treeINSt7__cxx1112basic_stringIcSt11char_traitsIcESaIcEEESt4pairIKS5_S5_ESt10_Select1stIS8_ESt4lessIS5_ESaIS8_EE12_M_drop_nodeEPSt13_Rb_tree_nodeIS8_E
FN:580,_ZNSt8_Rb_treeINSt7__cxx1112basic_stringIcSt11char_traitsIcESaIcEEESt4pairIKS5_S5_ESt10_Select1stIS8_ESt4lessIS5_ESaIS8_EE13_Rb_tree_implISC_Lb1EED2Ev
FN:586,_ZNSt8_Rb_treeINSt7__cxx1112basic_stringIcSt11char_traitsIcESaIcEEESt4pairIKS5_S5_ESt10_Select1stIS8_ESt4lessIS5_ESaIS8_EE13_Rb_tree_implISC_Lb1EEC2Ev
FN:614,_ZNSt8_Rb_treeINSt7__cxx1112basic_stringIcSt11char_traitsIcESaIcEEESt4pairIKS5_S5_ESt10_Select1stIS8_ESt4lessIS5_ESaIS8_EE13_Rb_tree_implISC_Lb1EE13_M_initializeEv
FN:651,_ZNSt8_Rb_treeINSt7__cxx1112basic_stringIcSt11char_traitsIcESaIcEEESt4pairIKS5_S5_ESt10_Select1stIS8_ESt4lessIS5_ESaIS8_EE8_M_beginEv
FN:678,_ZNSt8_Rb_treeINSt7__cxx1112basic_stringIcSt11char_traitsIcESaIcEEESt4pairIKS5_S5_ESt10_Select1stIS8_ESt4lessIS5_ESaIS8_EE7_S_leftEPSt18_Rb_tree_node_base
FN:686,_ZNSt8_Rb_treeINSt7__cxx1112basic_stringIcSt11char_traitsIcESaIcEEESt4pairIKS5_S5_ESt10_Select1stIS8_ESt4lessIS5_ESaIS8_EE8_S_rightEPSt18_Rb_tree_node_base
FN:807,_ZNSt8_Rb_treeINSt7__cxx1112basic_stringIcSt11char_traitsIcESaIcEEESt4pairIKS5_S5_ESt10_Select1stIS8_ESt4lessIS5_ESaIS8_EEC2Ev
FN:857,_ZNSt8_Rb_treeINSt7__cxx1112basic_stringIcSt11char_traitsIcESaIcEEESt4pairIKS5_S5_ESt10_Select1stIS8_ESt4lessIS5_ESaIS8_EED2Ev
FN:1606,_ZNSt8_Rb_treeINSt7__cxx1112basic_stringIcSt11char_traitsIcESaIcEEESt4pairIKS5_S5_ESt10_Select1stIS8_ESt4lessIS5_ESaIS8_EE8_M_eraseEPSt13_Rb_tree_nodeIS8_E
FNDA:0,_ZNSt13_Rb_tree_nodeISt4pairIKNSt7__cxx1112basic_stringIcSt11char_traitsIcESaIcEEES6_EE9_M_valptrEv
FNDA:0,_ZNSt8_Rb_treeINSt7__cxx1112basic_stringIcSt11char_traitsIcESaIcEEESt4pairIKS5_S5_ESt10_Select1stIS8_ESt4lessIS5_ESaIS8_EE21_M_get_Node_allocatorEv
FNDA:0,_ZNSt8_Rb_treeINSt7__cxx1112basic_stringIcSt11char_traitsIcESaIcEEESt4pairIKS5_S5_ESt10_Select1stIS8_ESt4lessIS5_ESaIS8_EE11_M_put_nodeEPSt13_Rb_tree_nodeIS8_E
FNDA:0,_ZNSt8_Rb_treeINSt7__cxx1112basic_stringIcSt11char_traitsIcESaIcEEESt4pairIKS5_S5_ESt10_Select1stIS8_ESt4lessIS5_ESaIS8_EE15_M_destroy_nodeEPSt13_Rb_tree_nodeIS8_E
FNDA:0,_ZNSt8_Rb_treeINSt7__cxx1112basic_stringIcSt11char_traitsIcESaIcEEESt4pairIKS5_S5_ESt10_Select1stIS8_ESt4lessIS5_ESaIS8_EE12_M_drop_nodeEPSt13_Rb_tree_nodeIS8_E
FNDA:0,_ZNSt8_Rb_treeINSt7__cxx1112basic_stringIcSt11char_traitsIcESaIcEEESt4pairIKS5_S5_ESt10_Select1stIS8_ESt4lessIS5_ESaIS8_EE13_Rb_tree_implISC_Lb1EED2Ev
FNDA:0,_ZNSt8_Rb_treeINSt7__cxx1112basic_stringIcSt11char_traitsIcESaIcEEESt4pairIKS5_S5_ESt10_Select1stIS8_ESt4lessIS5_ESaIS8_EE13_Rb_tree_implISC_Lb1EEC2Ev
FNDA:0,_ZNSt8_Rb_treeINSt7__cxx1112basic_stringIcSt11char_traitsIcESaIcEEESt4pairIKS5_S5_ESt10_Select1stIS8_ESt4lessIS5_ESaIS8_EE13_Rb_tree_implISC_Lb1EE13_M_initializeEv
FNDA:0,_ZNSt8_Rb_treeINSt7__cxx1112basic_stringIcSt11char_traitsIcESaIcEEESt4pairIKS5_S5_ESt10_Select1stIS8_ESt4lessIS5_ESaIS8_EE8_M_beginEv
FNDA:0,_ZNSt8_Rb_treeINSt7__cxx1112basic_stringIcSt11char_traitsIcESaIcEEESt4pairIKS5_S5_ESt10_Select1stIS8_ESt4lessIS5_ESaIS8_EE7_S_leftEPSt18_Rb_tree_node_base
FNDA:0,_ZNSt8_Rb_treeINSt7__cxx1112basic_stringIcSt11char_traitsIcESaIcEEESt4pairIKS5_S5_ESt10_Select1stIS8_ESt4lessIS5_ESaIS8_EE8_S_rightEPSt18_Rb_tree_node_base
FNDA:0,_ZNSt8_Rb_treeINSt7__cxx1112basic_stringIcSt11char_traitsIcESaIcEEESt4pairIKS5_S5_ESt10_Select1stIS8_ESt4lessIS5_ESaIS8_EEC2Ev
FNDA:0,_ZNSt8_Rb_treeINSt7__cxx1112basic_stringIcSt11char_traitsIcESaIcEEESt4pairIKS5_S5_ESt10_Select1stIS8_ESt4lessIS5_ESaIS8_EED2Ev
FNDA:0,_ZNSt8_Rb_treeINSt7__cxx1112basic_stringIcSt11char_traitsIcESaIcEEESt4pairIKS5_S5_ESt10_Select1stIS8_ESt4lessIS5_ESaIS8_EE8_M_eraseEPSt13_Rb_tree_nodeIS8_E
FNF:14
FNH:0
DA:152,0
DA:153,0
DA:477,0
DA:478,0
DA:494,0
DA:495,0
DA:551,0
DA:553,0
DA:555,0
DA:559,0
DA:561,0
DA:562,0
DA:563,0
DA:580,0
DA:586,0
DA:588,0
DA:589,0
DA:614,0
DA:616,0
DA:617,0
DA:618,0
DA:619,0
DA:620,0
DA:651,0
DA:652,0
DA:678,0
DA:679,0
DA:686,0
DA:687,0
DA:807,0
DA:857,0
DA:858,0
DA:1606,0
DA:1610,0
DA:1612,0
DA:1613,0
DA:1614,0
DA:1615,0
DA:1617,0
LF:39
LH:0
end_of_record
SF:/usr/include/c++/5/bits/stl_vector.h
FN:79,_ZNSt12_Vector_baseIN2cv3VecIfLi2EEESaIS2_EE12_Vector_implD2Ev
FN:86,_ZNSt12_Vector_baseIN2cv3VecIfLi2EEESaIS2_EE12_Vector_implC2Ev
FN:113,_ZNSt12_Vector_baseIN2cv3VecIfLi2EEESaIS2_EE19_M_get_Tp_allocatorEv
FN:124,_ZNSt12_Vector_baseIN2cv3VecIfLi2EEESaIS2_EEC2Ev
FN:159,_ZNSt12_Vector_baseIN2cv3VecIfLi2EEESaIS2_EED2Ev
FN:174,_ZNSt12_Vector_baseIN2cv3VecIfLi2EEESaIS2_EE13_M_deallocateEPS2_m
FN:253,_ZNSt6vectorIN2cv3VecIfLi2EEESaIS2_EEC2Ev
FN:423,_ZNSt6vectorIN2cv3VecIfLi2EEESaIS2_EED2Ev
FN:654,_ZNKSt6vectorIN2cv3VecIfLi2EEESaIS2_EE4sizeEv
FN:779,_ZNSt6vectorIN2cv3VecIfLi2EEESaIS2_EEixEm
FNDA:8,_ZNSt12_Vector_baseIN2cv3VecIfLi2EEESaIS2_EE12_Vector_implD2Ev
FNDA:8,_ZNSt12_Vector_baseIN2cv3VecIfLi2EEESaIS2_EE12_Vector_implC2Ev
FNDA:8,_ZNSt12_Vector_baseIN2cv3VecIfLi2EEESaIS2_EE19_M_get_Tp_allocatorEv
FNDA:8,_ZNSt12_Vector_baseIN2cv3VecIfLi2EEESaIS2_EEC2Ev
FNDA:8,_ZNSt12_Vector_baseIN2cv3VecIfLi2EEESaIS2_EED2Ev
FNDA:8,_ZNSt12_Vector_baseIN2cv3VecIfLi2EEESaIS2_EE13_M_deallocateEPS2_m
FNDA:8,_ZNSt6vectorIN2cv3VecIfLi2EEESaIS2_EEC2Ev
FNDA:8,_ZNSt6vectorIN2cv3VecIfLi2EEESaIS2_EED2Ev
FNDA:191,_ZNKSt6vectorIN2cv3VecIfLi2EEESaIS2_EE4sizeEv
FNDA:366,_ZNSt6vectorIN2cv3VecIfLi2EEESaIS2_EEixEm
FNF:10
FNH:10
DA:79,8
DA:86,8
DA:87,8
DA:88,8
DA:113,8
DA:114,8
DA:124,8
DA:125,8
DA:159,8
DA:160,16
DA:161,24
DA:174,8
DA:177,8
DA:178,7
DA:179,8
DA:253,8
DA:257,8
DA:423,8
DA:424,8
DA:425,16
DA:654,191
DA:655,191
DA:779,366
DA:780,366
LF:24
LH:24
end_of_record
SF:/usr/include/c++/5/ext/aligned_buffer.h
FN:62,_ZN9__gnu_cxx16__aligned_membufISt4pairIKNSt7__cxx1112basic_stringIcSt11char_traitsIcESaIcEEES7_EE7_M_addrEv
FN:70,_ZN9__gnu_cxx16__aligned_membufISt4pairIKNSt7__cxx1112basic_stringIcSt11char_traitsIcESaIcEEES7_EE6_M_ptrEv
FNDA:0,_ZN9__gnu_cxx16__aligned_membufISt4pairIKNSt7__cxx1112basic_stringIcSt11char_traitsIcESaIcEEES7_EE7_M_addrEv
FNDA:0,_ZN9__gnu_cxx16__aligned_membufISt4pairIKNSt7__cxx1112basic_stringIcSt11char_traitsIcESaIcEEES7_EE6_M_ptrEv
FNF:2
FNH:0
DA:62,0
DA:63,0
DA:70,0
DA:71,0
LF:4
LH:0
end_of_record
SF:/usr/include/c++/5/ext/new_allocator.h
FN:79,_ZN9__gnu_cxx13new_allocatorISt13_Rb_tree_nodeISt4pairIKNSt7__cxx1112basic_stringIcSt11char_traitsIcESaIcEEES8_EEEC2Ev
FN:79,_ZN9__gnu_cxx13new_allocatorIN2cv3VecIfLi2EEEEC2Ev
FN:86,_ZN9__gnu_cxx13new_allocatorISt13_Rb_tree_nodeISt4pairIKNSt7__cxx1112basic_stringIcSt11char_traitsIcESaIcEEES8_EEED2Ev
FN:86,_ZN9__gnu_cxx13new_allocatorIN2cv3VecIfLi2EEEED2Ev
FN:109,_ZN9__gnu_cxx13new_allocatorISt13_Rb_tree_nodeISt4pairIKNSt7__cxx1112basic_stringIcSt11char_traitsIcESaIcEEES8_EEE10deallocateEPSB_m
FN:109,_ZN9__gnu_cxx13new_allocatorIN2cv3VecIfLi2EEEE10deallocateEPS3_m
FN:124,_ZN9__gnu_cxx13new_allocatorISt13_Rb_tree_nodeISt4pairIKNSt7__cxx1112basic_stringIcSt11char_traitsIcESaIcEEES8_EEE7destroyISA_EEvPT_
FNDA:8,_ZN9__gnu_cxx13new_allocatorIN2cv3VecIfLi2EEEEC2Ev
FNDA:0,_ZN9__gnu_cxx13new_allocatorISt13_Rb_tree_nodeISt4pairIKNSt7__cxx1112basic_stringIcSt11char_traitsIcESaIcEEES8_EEEC2Ev
FNDA:8,_ZN9__gnu_cxx13new_allocatorIN2cv3VecIfLi2EEEED2Ev
FNDA:0,_ZN9__gnu_cxx13new_allocatorISt13_Rb_tree_nodeISt4pairIKNSt7__cxx1112basic_stringIcSt11char_traitsIcESaIcEEES8_EEED2Ev
FNDA:0,_ZN9__gnu_cxx13new_allocatorISt13_Rb_tree_nodeISt4pairIKNSt7__cxx1112basic_stringIcSt11char_traitsIcESaIcEEES8_EEE10deallocateEPSB_m
FNDA:7,_ZN9__gnu_cxx13new_allocatorIN2cv3VecIfLi2EEEE10deallocateEPS3_m
FNDA:0,_ZN9__gnu_cxx13new_allocatorISt13_Rb_tree_nodeISt4pairIKNSt7__cxx1112basic_stringIcSt11char_traitsIcESaIcEEES8_EEE7destroyISA_EEvPT_
FNF:7
FNH:3
DA:79,8
DA:86,8
DA:109,7
DA:110,7
DA:124,0
LF:5
LH:4
end_of_record
SF:/usr/include/c++/5/iostream
DA:74,1
LF:1
LH:1
end_of_record
SF:/usr/include/c++/5/new
FN:129,_ZnwmPv
FNDA:0,_ZnwmPv
FNF:1
FNH:0
DA:129,0
DA:130,0
LF:2
LH:0
end_of_record
SF:/usr/include/c++/5/typeinfo
FN:99,_ZNKSt9type_info4nameEv
FN:120,_ZNKSt9type_infoeqERKS_
FNDA:0,_ZNKSt9type_info4nameEv
FNDA:0,_ZNKSt9type_infoeqERKS_
FNF:2
FNH:0
DA:99,0
DA:100,0
DA:120,0
DA:122,0
DA:123,0
DA:124,0
LF:6
LH:0
end_of_record
SF:/usr/lib/gcc/x86_64-linux-gnu/5/include/emmintrin.h
DA:63,64
DA:827,64
LF:2
LH:2
end_of_record
TN:
SF:/home/zach/catkin_ws/src/final_map_mobile/src/SignDetect.cpp
FN:61,_ZN10SignDetectC2Ev
FN:72,_ZN10SignDetectD2Ev
FN:83,_ZN10SignDetect12imageConvertERKN5boost10shared_ptrIKN11sensor_msgs6Image_ISaIvEEEEE
FN:103,_ZN10SignDetect10detectSignEN2cv3MatE
FN:143,_GLOBAL__sub_I__ZN10SignDetectC2Ev
FNDA:3,_ZN10SignDetectC2Ev
FNDA:3,_ZN10SignDetectD2Ev
FNDA:1,_ZN10SignDetect12imageConvertERKN5boost10shared_ptrIKN11sensor_msgs6Image_ISaIvEEEEE
FNDA:3,_ZN10SignDetect10detectSignEN2cv3MatE
FNDA:1,_GLOBAL__sub_I__ZN10SignDetectC2Ev
FNDA:1,_Z41__static_initialization_and_destruction_0ii
FNF:6
FNH:6
DA:61,3
DA:62,3
DA:63,3
DA:72,6
DA:73,3
DA:74,3
DA:83,1
DA:86,1
DA:87,1
DA:89,0
DA:90,0
DA:93,1
DA:94,1
DA:103,3
DA:105,3
DA:106,3
DA:109,6
DA:110,6
DA:111,6
DA:112,3
DA:113,3
DA:114,3
DA:117,3
DA:121,6
DA:123,3
DA:124,7
DA:125,4
DA:126,8
DA:127,4
DA:128,12
DA:129,6
DA:130,3
DA:131,6
DA:132,3
DA:133,3
DA:134,1
DA:135,1
DA:140,3
DA:141,3
DA:142,6
DA:143,3
LF:41
LH:39
end_of_record
SF:/opt/ros/kinetic/include/opencv-3.3.1-dev/opencv2/core/cvstd.hpp
FN:571,_ZN2cv6StringC2ERKS0_
FN:596,_ZN2cv6StringC2EPKc
FN:646,_ZN2cv6StringD2Ev
FN:652,_ZN2cv6StringaSERKS0_
FN:745,_ZNK2cv6String5c_strEv
FNDA:0,_ZN2cv6StringC2ERKS0_
FNDA:0,_ZN2cv6StringC2EPKc
FNDA:0,_ZN2cv6StringD2Ev
FNDA:0,_ZN2cv6StringaSERKS0_
FNDA:0,_ZNK2cv6String5c_strEv
FNF:5
FNH:0
DA:571,0
DA:572,0
DA:574,0
DA:575,0
DA:576,0
DA:596,0
DA:597,0
DA:599,0
DA:600,0
DA:601,0
DA:602,0
DA:646,0
DA:648,0
DA:649,0
DA:652,0
DA:654,0
DA:656,0
DA:657,0
DA:658,0
DA:659,0
DA:660,0
DA:745,0
DA:747,0
LF:23
LH:0
end_of_record
SF:/opt/ros/kinetic/include/opencv-3.3.1-dev/opencv2/core/cvstd.inl.hpp
FN:77,_ZN2cv6StringC2ERKNSt7__cxx1112basic_stringIcSt11char_traitsIcESaIcEEE
FNDA:6,_ZN2cv6StringC2ERKNSt7__cxx1112basic_stringIcSt11char_traitsIcESaIcEEE
FNF:1
FNH:1
DA:77,6
DA:78,6
DA:80,6
DA:82,6
DA:83,6
DA:85,6
LF:6
LH:6
end_of_record
SF:/opt/ros/kinetic/include/opencv-3.3.1-dev/opencv2/core/mat.hpp
FN:281,_ZN2cv12_OutputArrayD2Ev
FN:366,_ZN2cv17_InputOutputArrayD2Ev
FNDA:0,_ZN2cv12_OutputArrayD2Ev
FNDA:0,_ZN2cv17_InputOutputArrayD2Ev
FNF:2
FNH:0
DA:281,0
DA:366,0
LF:2
LH:0
end_of_record
SF:/opt/ros/kinetic/include/opencv-3.3.1-dev/opencv2/core/mat.inl.hpp
FN:66,_ZN2cv11_InputArray4initEiPKv
FN:76,_ZN2cv11_InputArrayC2Ev
FN:78,_ZN2cv11_InputArrayC2ERKNS_3MatE
FN:143,_ZN2cv11_InputArrayD2Ev
FN:164,_ZN2cv12_OutputArrayC2Ev
FN:166,_ZN2cv12_OutputArrayC2ERNS_3MatE
FN:285,_ZN2cv17_InputOutputArrayC2ERNS_3MatE
FN:402,_ZN2cv3MatC2Ev
FN:476,_ZN2cv3MatC2ERKS0_
FN:688,_ZN2cv3MatD2Ev
FN:696,_ZN2cv3MataSERKS0_
FN:801,_ZN2cv3Mat7releaseEv
FN:1401,_ZN2cv7MatSizeC2EPi
FN:1462,_ZN2cv7MatStepC2Em
FN:1468,_ZNK2cv7MatStepixEi
FN:1474,_ZN2cv7MatStepixEi
FNDA:0,_ZN2cv11_InputArray4initEiPKv
FNDA:0,_ZN2cv11_InputArrayC2Ev
FNDA:0,_ZN2cv11_InputArrayC2ERKNS_3MatE
FNDA:0,_ZN2cv11_InputArrayD2Ev
FNDA:0,_ZN2cv12_OutputArrayC2Ev
FNDA:0,_ZN2cv12_OutputArrayC2ERNS_3MatE
FNDA:0,_ZN2cv17_InputOutputArrayC2ERNS_3MatE
FNDA:0,_ZN2cv3MatC2Ev
FNDA:0,_ZN2cv3MatC2ERKS0_
FNDA:0,_ZN2cv3MatD2Ev
FNDA:0,_ZN2cv3MataSERKS0_
FNDA:0,_ZN2cv3Mat7releaseEv
FNDA:0,_ZN2cv7MatSizeC2EPi
FNDA:0,_ZN2cv7MatStepC2Em
FNDA:0,_ZNK2cv7MatStepixEi
FNDA:0,_ZN2cv7MatStepixEi
FNF:16
FNH:0
DA:66,0
DA:67,0
DA:76,0
DA:78,0
DA:143,0
DA:164,0
DA:166,0
DA:285,0
DA:402,0
DA:404,0
DA:405,0
DA:476,0
DA:477,0
DA:478,0
DA:479,0
DA:481,0
DA:482,0
DA:483,0
DA:485,0
DA:489,0
DA:490,0
DA:492,0
DA:688,0
DA:690,0
DA:691,0
DA:692,0
DA:693,0
DA:696,0
DA:698,0
DA:700,0
DA:701,0
DA:702,0
DA:703,0
DA:704,0
DA:706,0
DA:707,0
DA:708,0
DA:709,0
DA:710,0
DA:713,0
DA:714,0
DA:715,0
DA:716,0
DA:717,0
DA:718,0
DA:719,0
DA:721,0
DA:801,0
DA:803,0
DA:804,0
DA:805,0
DA:806,0
DA:807,0
DA:808,0
DA:819,0
DA:1401,0
DA:1402,0
DA:1462,0
DA:1464,0
DA:1465,0
DA:1468,0
DA:1470,0
DA:1474,0
DA:1476,0
LF:64
LH:0
end_of_record
SF:/opt/ros/kinetic/include/opencv-3.3.1-dev/opencv2/core/matx.hpp
FN:537,_ZN2cv4MatxIdLi4ELi1EEC2Ev
FN:972,_ZN2cv3VecIdLi4EEC2Ev
FNDA:0,_ZN2cv4MatxIdLi4ELi1EEC2Ev
FNDA:0,_ZN2cv3VecIdLi4EEC2Ev
FNF:2
FNH:0
DA:537,0
DA:539,0
DA:540,0
DA:972,0
LF:4
LH:0
end_of_record
SF:/opt/ros/kinetic/include/opencv-3.3.1-dev/opencv2/core/types.hpp
FN:1153,_ZN2cv6Point_IiEC2Eii
FN:1157,_ZN2cv6Point_IiEC2ERKS1_
FN:1642,_ZN2cv5Size_IiEC2Ev
FN:1646,_ZN2cv5Size_IiEC2Eii
FN:2078,_ZN2cv7Scalar_IdEC2Edddd
FN:2097,_ZN2cv7Scalar_IdEC2Ed
FNDA:7,_ZN2cv6Point_IiEC2Eii
FNDA:0,_ZN2cv6Point_IiEC2ERKS1_
FNDA:0,_ZN2cv5Size_IiEC2Ev
FNDA:0,_ZN2cv5Size_IiEC2Eii
FNDA:0,_ZN2cv7Scalar_IdEC2Edddd
FNDA:3,_ZN2cv7Scalar_IdEC2Ed
FNF:6
FNH:2
DA:1153,7
DA:1154,7
DA:1157,0
DA:1158,0
DA:1642,0
DA:1643,0
DA:1646,0
DA:1647,0
DA:2078,0
DA:2080,0
DA:2081,0
DA:2082,0
DA:2083,0
DA:2084,0
DA:2097,3
DA:2099,3
DA:2100,3
DA:2101,3
LF:18
LH:6
end_of_record
SF:/opt/ros/kinetic/include/opencv-3.3.1-dev/opencv2/flann/any.h
FN:34,_ZN7cvflann7anyimpllsERSoRKNS0_9empty_anyE
FN:51,_ZN7cvflann7anyimpl15base_any_policyD0Ev
FN:51,_ZN7cvflann7anyimpl15base_any_policyD2Ev
FN:55,_ZN7cvflann7anyimpl21typed_base_any_policyIPKcED2Ev
FN:55,_ZN7cvflann7anyimpl21typed_base_any_policyINS_20flann_centers_init_tEED2Ev
FN:55,_ZN7cvflann7anyimpl21typed_base_any_policyINS0_9empty_anyEED0Ev
FN:55,_ZN7cvflann7anyimpl21typed_base_any_policyIbED2Ev
FN:55,_ZN7cvflann7anyimpl21typed_base_any_policyINS_17flann_algorithm_tEED0Ev
FN:55,_ZN7cvflann7anyimpl21typed_base_any_policyIN2cv6StringEED0Ev
FN:55,_ZN7cvflann7anyimpl21typed_base_any_policyIfED2Ev
FN:55,_ZN7cvflann7anyimpl21typed_base_any_policyIiED2Ev
FN:55,_ZN7cvflann7anyimpl21typed_base_any_policyIbED0Ev
FN:55,_ZN7cvflann7anyimpl21typed_base_any_policyIiED0Ev
FN:55,_ZN7cvflann7anyimpl21typed_base_any_policyIPKcED0Ev
FN:55,_ZN7cvflann7anyimpl21typed_base_any_policyINS_17flann_algorithm_tEED2Ev
FN:55,_ZN7cvflann7anyimpl21typed_base_any_policyIN2cv6StringEED2Ev
FN:55,_ZN7cvflann7anyimpl21typed_base_any_policyINS_20flann_centers_init_tEED0Ev
FN:55,_ZN7cvflann7anyimpl21typed_base_any_policyIjED2Ev
FN:55,_ZN7cvflann7anyimpl21typed_base_any_policyIjED0Ev
FN:55,_ZN7cvflann7anyimpl21typed_base_any_policyIfED0Ev
FN:55,_ZN7cvflann7anyimpl21typed_base_any_policyINS0_9empty_anyEED2Ev
FN:57,_ZN7cvflann7anyimpl21typed_base_any_policyINS_20flann_centers_init_tEE8get_sizeEv
FN:57,_ZN7cvflann7anyimpl21typed_base_any_policyIfE8get_sizeEv
FN:57,_ZN7cvflann7anyimpl21typed_base_any_policyIN2cv6StringEE8get_sizeEv
FN:57,_ZN7cvflann7anyimpl21typed_base_any_policyIPKcE8get_sizeEv
FN:57,_ZN7cvflann7anyimpl21typed_base_any_policyIiE8get_sizeEv
FN:57,_ZN7cvflann7anyimpl21typed_base_any_policyIjE8get_sizeEv
FN:57,_ZN7cvflann7anyimpl21typed_base_any_policyINS0_9empty_anyEE8get_sizeEv
FN:57,_ZN7cvflann7anyimpl21typed_base_any_policyINS_17flann_algorithm_tEE8get_sizeEv
FN:57,_ZN7cvflann7anyimpl21typed_base_any_policyIbE8get_sizeEv
FN:58,_ZN7cvflann7anyimpl21typed_base_any_policyIiE4typeEv
FN:58,_ZN7cvflann7anyimpl21typed_base_any_policyIbE4typeEv
FN:58,_ZN7cvflann7anyimpl21typed_base_any_policyIN2cv6StringEE4typeEv
FN:58,_ZN7cvflann7anyimpl21typed_base_any_policyINS0_9empty_anyEE4typeEv
FN:58,_ZN7cvflann7anyimpl21typed_base_any_policyINS_17flann_algorithm_tEE4typeEv
FN:58,_ZN7cvflann7anyimpl21typed_base_any_policyIfE4typeEv
FN:58,_ZN7cvflann7anyimpl21typed_base_any_policyIjE4typeEv
FN:58,_ZN7cvflann7anyimpl21typed_base_any_policyINS_20flann_centers_init_tEE4typeEv
FN:58,_ZN7cvflann7anyimpl21typed_base_any_policyIPKcE4typeEv
FN:63,_ZN7cvflann7anyimpl16small_any_policyIiED2Ev
FN:63,_ZN7cvflann7anyimpl16small_any_policyIiED0Ev
FN:63,_ZN7cvflann7anyimpl16small_any_policyIfED2Ev
FN:63,_ZN7cvflann7anyimpl16small_any_policyIfED0Ev
FN:63,_ZN7cvflann7anyimpl16small_any_policyIjED2Ev
FN:63,_ZN7cvflann7anyimpl16small_any_policyIbED0Ev
FN:63,_ZN7cvflann7anyimpl16small_any_policyIPKcED2Ev
FN:63,_ZN7cvflann7anyimpl16small_any_policyIjED0Ev
FN:63,_ZN7cvflann7anyimpl16small_any_policyIPKcED0Ev
FN:63,_ZN7cvflann7anyimpl16small_any_policyIbED2Ev
FN:65,_ZN7cvflann7anyimpl16small_any_policyIbE13static_deleteEPPv
FN:65,_ZN7cvflann7anyimpl16small_any_policyIPKcE13static_deleteEPPv
FN:65,_ZN7cvflann7anyimpl16small_any_policyIfE13static_deleteEPPv
FN:65,_ZN7cvflann7anyimpl16small_any_policyIiE13static_deleteEPPv
FN:65,_ZN7cvflann7anyimpl16small_any_policyIjE13static_deleteEPPv
FN:66,_ZN7cvflann7anyimpl16small_any_policyIjE15copy_from_valueEPKvPPv
FN:66,_ZN7cvflann7anyimpl16small_any_policyIfE15copy_from_valueEPKvPPv
FN:66,_ZN7cvflann7anyimpl16small_any_policyIbE15copy_from_valueEPKvPPv
FN:66,_ZN7cvflann7anyimpl16small_any_policyIiE15copy_from_valueEPKvPPv
FN:66,_ZN7cvflann7anyimpl16small_any_policyIPKcE15copy_from_valueEPKvPPv
FN:70,_ZN7cvflann7anyimpl16small_any_policyIfE5cloneEPKPvPS3_
FN:70,_ZN7cvflann7anyimpl16small_any_policyIjE5cloneEPKPvPS3_
FN:70,_ZN7cvflann7anyimpl16small_any_policyIPKcE5cloneEPKPvPS5_
FN:70,_ZN7cvflann7anyimpl16small_any_policyIbE5cloneEPKPvPS3_
FN:70,_ZN7cvflann7anyimpl16small_any_policyIiE5cloneEPKPvPS3_
FN:71,_ZN7cvflann7anyimpl16small_any_policyIbE4moveEPKPvPS3_
FN:71,_ZN7cvflann7anyimpl16small_any_policyIjE4moveEPKPvPS3_
FN:71,_ZN7cvflann7anyimpl16small_any_policyIiE4moveEPKPvPS3_
FN:71,_ZN7cvflann7anyimpl16small_any_policyIfE4moveEPKPvPS3_
FN:71,_ZN7cvflann7anyimpl16small_any_policyIPKcE4moveEPKPvPS5_
FN:72,_ZN7cvflann7anyimpl16small_any_policyIfE9get_valueEPPv
FN:72,_ZN7cvflann7anyimpl16small_any_policyIbE9get_valueEPPv
FN:72,_ZN7cvflann7anyimpl16small_any_policyIPKcE9get_valueEPPv
FN:72,_ZN7cvflann7anyimpl16small_any_policyIjE9get_valueEPPv
FN:72,_ZN7cvflann7anyimpl16small_any_policyIiE9get_valueEPPv
FN:73,_ZN7cvflann7anyimpl16small_any_policyIfE9get_valueEPKPv
FN:73,_ZN7cvflann7anyimpl16small_any_policyIPKcE9get_valueEPKPv
FN:73,_ZN7cvflann7anyimpl16small_any_policyIiE9get_valueEPKPv
FN:73,_ZN7cvflann7anyimpl16small_any_policyIjE9get_valueEPKPv
FN:73,_ZN7cvflann7anyimpl16small_any_policyIbE9get_valueEPKPv
FN:74,_ZN7cvflann7anyimpl16small_any_policyIPKcE5printERSoPKPv
FN:74,_ZN7cvflann7anyimpl16small_any_policyIbE5printERSoPKPv
FN:74,_ZN7cvflann7anyimpl16small_any_policyIfE5printERSoPKPv
FN:74,_ZN7cvflann7anyimpl16small_any_policyIiE5printERSoPKPv
FN:74,_ZN7cvflann7anyimpl16small_any_policyIjE5printERSoPKPv
FN:78,_ZN7cvflann7anyimpl14big_any_policyINS0_9empty_anyEED2Ev
FN:78,_ZN7cvflann7anyimpl14big_any_policyINS_17flann_algorithm_tEED0Ev
FN:78,_ZN7cvflann7anyimpl14big_any_policyINS_17flann_algorithm_tEED2Ev
FN:78,_ZN7cvflann7anyimpl14big_any_policyIN2cv6StringEED2Ev
FN:78,_ZN7cvflann7anyimpl14big_any_policyINS_20flann_centers_init_tEED2Ev
FN:78,_ZN7cvflann7anyimpl14big_any_policyIN2cv6StringEED0Ev
FN:78,_ZN7cvflann7anyimpl14big_any_policyINS_20flann_centers_init_tEED0Ev
FN:78,_ZN7cvflann7anyimpl14big_any_policyINS0_9empty_anyEED0Ev
FN:80,_ZN7cvflann7anyimpl14big_any_policyINS_20flann_centers_init_tEE13static_deleteEPPv
FN:80,_ZN7cvflann7anyimpl14big_any_policyINS_17flann_algorithm_tEE13static_deleteEPPv
FN:80,_ZN7cvflann7anyimpl14big_any_policyINS0_9empty_anyEE13static_deleteEPPv
FN:80,_ZN7cvflann7anyimpl14big_any_policyIN2cv6StringEE13static_deleteEPPv
FN:85,_ZN7cvflann7anyimpl14big_any_policyINS0_9empty_anyEE15copy_from_valueEPKvPPv
FN:85,_ZN7cvflann7anyimpl14big_any_policyIN2cv6StringEE15copy_from_valueEPKvPPv
FN:85,_ZN7cvflann7anyimpl14big_any_policyINS_17flann_algorithm_tEE15copy_from_valueEPKvPPv
FN:85,_ZN7cvflann7anyimpl14big_any_policyINS_20flann_centers_init_tEE15copy_from_valueEPKvPPv
FN:89,_ZN7cvflann7anyimpl14big_any_policyIN2cv6StringEE5cloneEPKPvPS5_
FN:89,_ZN7cvflann7anyimpl14big_any_policyINS_17flann_algorithm_tEE5cloneEPKPvPS4_
FN:89,_ZN7cvflann7anyimpl14big_any_policyINS_20flann_centers_init_tEE5cloneEPKPvPS4_
FN:89,_ZN7cvflann7anyimpl14big_any_policyINS0_9empty_anyEE5cloneEPKPvPS4_
FN:93,_ZN7cvflann7anyimpl14big_any_policyINS0_9empty_anyEE4moveEPKPvPS4_
FN:93,_ZN7cvflann7anyimpl14big_any_policyINS_17flann_algorithm_tEE4moveEPKPvPS4_
FN:93,_ZN7cvflann7anyimpl14big_any_policyINS_20flann_centers_init_tEE4moveEPKPvPS4_
FN:93,_ZN7cvflann7anyimpl14big_any_policyIN2cv6StringEE4moveEPKPvPS5_
FN:98,_ZN7cvflann7anyimpl14big_any_policyINS_17flann_algorithm_tEE9get_valueEPPv
FN:98,_ZN7cvflann7anyimpl14big_any_policyINS0_9empty_anyEE9get_valueEPPv
FN:98,_ZN7cvflann7anyimpl14big_any_policyIN2cv6StringEE9get_valueEPPv
FN:98,_ZN7cvflann7anyimpl14big_any_policyINS_20flann_centers_init_tEE9get_valueEPPv
FN:99,_ZN7cvflann7anyimpl14big_any_policyINS_17flann_algorithm_tEE9get_valueEPKPv
FN:99,_ZN7cvflann7anyimpl14big_any_policyINS_20flann_centers_init_tEE9get_valueEPKPv
FN:99,_ZN7cvflann7anyimpl14big_any_policyINS0_9empty_anyEE9get_valueEPKPv
FN:99,_ZN7cvflann7anyimpl14big_any_policyIN2cv6StringEE9get_valueEPKPv
FN:100,_ZN7cvflann7anyimpl14big_any_policyINS0_9empty_anyEE5printERSoPKPv
FN:103,_ZN7cvflann7anyimpl14big_any_policyINS_20flann_centers_init_tEE5printERSoPKPv
FN:108,_ZN7cvflann7anyimpl14big_any_policyINS_17flann_algorithm_tEE5printERSoPKPv
FN:113,_ZN7cvflann7anyimpl14big_any_policyIN2cv6StringEE5printERSoPKPv
FNDA:0,_ZN7cvflann7anyimpllsERSoRKNS0_9empty_anyE
FNDA:0,_ZN7cvflann7anyimpl15base_any_policyD0Ev
FNDA:0,_ZN7cvflann7anyimpl15base_any_policyD2Ev
FNDA:0,_ZN7cvflann7anyimpl21typed_base_any_policyIN2cv6StringEED0Ev
FNDA:0,_ZN7cvflann7anyimpl21typed_base_any_policyIN2cv6StringEED2Ev
FNDA:0,_ZN7cvflann7anyimpl21typed_base_any_policyIjED0Ev
FNDA:0,_ZN7cvflann7anyimpl21typed_base_any_policyIjED2Ev
FNDA:0,_ZN7cvflann7anyimpl21typed_base_any_policyINS_20flann_centers_init_tEED0Ev
FNDA:0,_ZN7cvflann7anyimpl21typed_base_any_policyINS_20flann_centers_init_tEED2Ev
FNDA:0,_ZN7cvflann7anyimpl21typed_base_any_policyINS_17flann_algorithm_tEED0Ev
FNDA:0,_ZN7cvflann7anyimpl21typed_base_any_policyINS_17flann_algorithm_tEED2Ev
FNDA:0,_ZN7cvflann7anyimpl21typed_base_any_policyIbED0Ev
FNDA:0,_ZN7cvflann7anyimpl21typed_base_any_policyIbED2Ev
FNDA:0,_ZN7cvflann7anyimpl21typed_base_any_policyIfED0Ev
FNDA:0,_ZN7cvflann7anyimpl21typed_base_any_policyIfED2Ev
FNDA:0,_ZN7cvflann7anyimpl21typed_base_any_policyIiED0Ev
FNDA:0,_ZN7cvflann7anyimpl21typed_base_any_policyIiED2Ev
FNDA:0,_ZN7cvflann7anyimpl21typed_base_any_policyIPKcED0Ev
FNDA:0,_ZN7cvflann7anyimpl21typed_base_any_policyIPKcED2Ev
FNDA:0,_ZN7cvflann7anyimpl21typed_base_any_policyINS0_9empty_anyEED0Ev
FNDA:0,_ZN7cvflann7anyimpl21typed_base_any_policyINS0_9empty_anyEED2Ev
FNDA:0,_ZN7cvflann7anyimpl21typed_base_any_policyINS_20flann_centers_init_tEE8get_sizeEv
FNDA:0,_ZN7cvflann7anyimpl21typed_base_any_policyINS_17flann_algorithm_tEE8get_sizeEv
FNDA:0,_ZN7cvflann7anyimpl21typed_base_any_policyIN2cv6StringEE8get_sizeEv
FNDA:0,_ZN7cvflann7anyimpl21typed_base_any_policyINS0_9empty_anyEE8get_sizeEv
FNDA:0,_ZN7cvflann7anyimpl21typed_base_any_policyIPKcE8get_sizeEv
FNDA:0,_ZN7cvflann7anyimpl21typed_base_any_policyIiE8get_sizeEv
FNDA:0,_ZN7cvflann7anyimpl21typed_base_any_policyIfE8get_sizeEv
FNDA:0,_ZN7cvflann7anyimpl21typed_base_any_policyIbE8get_sizeEv
FNDA:0,_ZN7cvflann7anyimpl21typed_base_any_policyIjE8get_sizeEv
FNDA:0,_ZN7cvflann7anyimpl21typed_base_any_policyINS_20flann_centers_init_tEE4typeEv
FNDA:0,_ZN7cvflann7anyimpl21typed_base_any_policyINS_17flann_algorithm_tEE4typeEv
FNDA:0,_ZN7cvflann7anyimpl21typed_base_any_policyIN2cv6StringEE4typeEv
FNDA:0,_ZN7cvflann7anyimpl21typed_base_any_policyINS0_9empty_anyEE4typeEv
FNDA:0,_ZN7cvflann7anyimpl21typed_base_any_policyIPKcE4typeEv
FNDA:0,_ZN7cvflann7anyimpl21typed_base_any_policyIiE4typeEv
FNDA:0,_ZN7cvflann7anyimpl21typed_base_any_policyIfE4typeEv
FNDA:0,_ZN7cvflann7anyimpl21typed_base_any_policyIbE4typeEv
FNDA:0,_ZN7cvflann7anyimpl21typed_base_any_policyIjE4typeEv
FNDA:0,_ZN7cvflann7anyimpl16small_any_policyIjED0Ev
FNDA:0,_ZN7cvflann7anyimpl16small_any_policyIjED2Ev
FNDA:0,_ZN7cvflann7anyimpl16small_any_policyIbED0Ev
FNDA:0,_ZN7cvflann7anyimpl16small_any_policyIbED2Ev
FNDA:0,_ZN7cvflann7anyimpl16small_any_policyIfED0Ev
FNDA:0,_ZN7cvflann7anyimpl16small_any_policyIfED2Ev
FNDA:0,_ZN7cvflann7anyimpl16small_any_policyIiED0Ev
FNDA:0,_ZN7cvflann7anyimpl16small_any_policyIiED2Ev
FNDA:0,_ZN7cvflann7anyimpl16small_any_policyIPKcED0Ev
FNDA:0,_ZN7cvflann7anyimpl16small_any_policyIPKcED2Ev
FNDA:0,_ZN7cvflann7anyimpl16small_any_policyIPKcE13static_deleteEPPv
FNDA:0,_ZN7cvflann7anyimpl16small_any_policyIiE13static_deleteEPPv
FNDA:0,_ZN7cvflann7anyimpl16small_any_policyIfE13static_deleteEPPv
FNDA:0,_ZN7cvflann7anyimpl16small_any_policyIbE13static_deleteEPPv
FNDA:0,_ZN7cvflann7anyimpl16small_any_policyIjE13static_deleteEPPv
FNDA:0,_ZN7cvflann7anyimpl16small_any_policyIPKcE15copy_from_valueEPKvPPv
FNDA:0,_ZN7cvflann7anyimpl16small_any_policyIiE15copy_from_valueEPKvPPv
FNDA:0,_ZN7cvflann7anyimpl16small_any_policyIfE15copy_from_valueEPKvPPv
FNDA:0,_ZN7cvflann7anyimpl16small_any_policyIbE15copy_from_valueEPKvPPv
FNDA:0,_ZN7cvflann7anyimpl16small_any_policyIjE15copy_from_valueEPKvPPv
FNDA:0,_ZN7cvflann7anyimpl16small_any_policyIPKcE5cloneEPKPvPS5_
FNDA:0,_ZN7cvflann7anyimpl16small_any_policyIiE5cloneEPKPvPS3_
FNDA:0,_ZN7cvflann7anyimpl16small_any_policyIfE5cloneEPKPvPS3_
FNDA:0,_ZN7cvflann7anyimpl16small_any_policyIbE5cloneEPKPvPS3_
FNDA:0,_ZN7cvflann7anyimpl16small_any_policyIjE5cloneEPKPvPS3_
FNDA:0,_ZN7cvflann7anyimpl16small_any_policyIPKcE4moveEPKPvPS5_
FNDA:0,_ZN7cvflann7anyimpl16small_any_policyIiE4moveEPKPvPS3_
FNDA:0,_ZN7cvflann7anyimpl16small_any_policyIfE4moveEPKPvPS3_
FNDA:0,_ZN7cvflann7anyimpl16small_any_policyIbE4moveEPKPvPS3_
FNDA:0,_ZN7cvflann7anyimpl16small_any_policyIjE4moveEPKPvPS3_
FNDA:0,_ZN7cvflann7anyimpl16small_any_policyIPKcE9get_valueEPPv
FNDA:0,_ZN7cvflann7anyimpl16small_any_policyIiE9get_valueEPPv
FNDA:0,_ZN7cvflann7anyimpl16small_any_policyIfE9get_valueEPPv
FNDA:0,_ZN7cvflann7anyimpl16small_any_policyIbE9get_valueEPPv
FNDA:0,_ZN7cvflann7anyimpl16small_any_policyIjE9get_valueEPPv
FNDA:0,_ZN7cvflann7anyimpl16small_any_policyIPKcE9get_valueEPKPv
FNDA:0,_ZN7cvflann7anyimpl16small_any_policyIiE9get_valueEPKPv
FNDA:0,_ZN7cvflann7anyimpl16small_any_policyIfE9get_valueEPKPv
FNDA:0,_ZN7cvflann7anyimpl16small_any_policyIbE9get_valueEPKPv
FNDA:0,_ZN7cvflann7anyimpl16small_any_policyIjE9get_valueEPKPv
FNDA:0,_ZN7cvflann7anyimpl16small_any_policyIPKcE5printERSoPKPv
FNDA:0,_ZN7cvflann7anyimpl16small_any_policyIiE5printERSoPKPv
FNDA:0,_ZN7cvflann7anyimpl16small_any_policyIfE5printERSoPKPv
FNDA:0,_ZN7cvflann7anyimpl16small_any_policyIbE5printERSoPKPv
FNDA:0,_ZN7cvflann7anyimpl16small_any_policyIjE5printERSoPKPv
FNDA:0,_ZN7cvflann7anyimpl14big_any_policyIN2cv6StringEED0Ev
FNDA:0,_ZN7cvflann7anyimpl14big_any_policyIN2cv6StringEED2Ev
FNDA:0,_ZN7cvflann7anyimpl14big_any_policyINS_20flann_centers_init_tEED0Ev
FNDA:0,_ZN7cvflann7anyimpl14big_any_policyINS_20flann_centers_init_tEED2Ev
FNDA:0,_ZN7cvflann7anyimpl14big_any_policyINS_17flann_algorithm_tEED0Ev
FNDA:0,_ZN7cvflann7anyimpl14big_any_policyINS_17flann_algorithm_tEED2Ev
FNDA:0,_ZN7cvflann7anyimpl14big_any_policyINS0_9empty_anyEED0Ev
FNDA:0,_ZN7cvflann7anyimpl14big_any_policyINS0_9empty_anyEED2Ev
FNDA:0,_ZN7cvflann7anyimpl14big_any_policyINS_20flann_centers_init_tEE13static_deleteEPPv
FNDA:0,_ZN7cvflann7anyimpl14big_any_policyINS_17flann_algorithm_tEE13static_deleteEPPv
FNDA:0,_ZN7cvflann7anyimpl14big_any_policyIN2cv6StringEE13static_deleteEPPv
FNDA:0,_ZN7cvflann7anyimpl14big_any_policyINS0_9empty_anyEE13static_deleteEPPv
FNDA:0,_ZN7cvflann7anyimpl14big_any_policyINS_20flann_centers_init_tEE15copy_from_valueEPKvPPv
FNDA:0,_ZN7cvflann7anyimpl14big_any_policyINS_17flann_algorithm_tEE15copy_from_valueEPKvPPv
FNDA:0,_ZN7cvflann7anyimpl14big_any_policyIN2cv6StringEE15copy_from_valueEPKvPPv
FNDA:0,_ZN7cvflann7anyimpl14big_any_policyINS0_9empty_anyEE15copy_from_valueEPKvPPv
FNDA:0,_ZN7cvflann7anyimpl14big_any_policyINS_20flann_centers_init_tEE5cloneEPKPvPS4_
FNDA:0,_ZN7cvflann7anyimpl14big_any_policyINS_17flann_algorithm_tEE5cloneEPKPvPS4_
FNDA:0,_ZN7cvflann7anyimpl14big_any_policyIN2cv6StringEE5cloneEPKPvPS5_
FNDA:0,_ZN7cvflann7anyimpl14big_any_policyINS0_9empty_anyEE5cloneEPKPvPS4_
FNDA:0,_ZN7cvflann7anyimpl14big_any_policyINS_20flann_centers_init_tEE4moveEPKPvPS4_
FNDA:0,_ZN7cvflann7anyimpl14big_any_policyINS_17flann_algorithm_tEE4moveEPKPvPS4_
FNDA:0,_ZN7cvflann7anyimpl14big_any_policyIN2cv6StringEE4moveEPKPvPS5_
FNDA:0,_ZN7cvflann7anyimpl14big_any_policyINS0_9empty_anyEE4moveEPKPvPS4_
FNDA:0,_ZN7cvflann7anyimpl14big_any_policyINS_20flann_centers_init_tEE9get_valueEPPv
FNDA:0,_ZN7cvflann7anyimpl14big_any_policyINS_17flann_algorithm_tEE9get_valueEPPv
FNDA:0,_ZN7cvflann7anyimpl14big_any_policyIN2cv6StringEE9get_valueEPPv
FNDA:0,_ZN7cvflann7anyimpl14big_any_policyINS0_9empty_anyEE9get_valueEPPv
FNDA:0,_ZN7cvflann7anyimpl14big_any_policyINS_20flann_centers_init_tEE9get_valueEPKPv
FNDA:0,_ZN7cvflann7anyimpl14big_any_policyINS_17flann_algorithm_tEE9get_valueEPKPv
FNDA:0,_ZN7cvflann7anyimpl14big_any_policyIN2cv6StringEE9get_valueEPKPv
FNDA:0,_ZN7cvflann7anyimpl14big_any_policyINS0_9empty_anyEE9get_valueEPKPv
FNDA:0,_ZN7cvflann7anyimpl14big_any_policyINS0_9empty_anyEE5printERSoPKPv
FNDA:0,_ZN7cvflann7anyimpl14big_any_policyINS_20flann_centers_init_tEE5printERSoPKPv
FNDA:0,_ZN7cvflann7anyimpl14big_any_policyINS_17flann_algorithm_tEE5printERSoPKPv
FNDA:0,_ZN7cvflann7anyimpl14big_any_policyIN2cv6StringEE5printERSoPKPv
FNF:120
FNH:0
DA:34,0
DA:36,0
DA:37,0
DA:51,0
DA:55,0
DA:57,0
DA:58,0
DA:63,0
DA:65,0
DA:66,0
DA:68,0
DA:69,0
DA:70,0
DA:71,0
DA:72,0
DA:73,0
DA:74,0
DA:78,0
DA:80,0
DA:82,0
DA:83,0
DA:84,0
DA:85,0
DA:87,0
DA:88,0
DA:89,0
DA:91,0
DA:92,0
DA:93,0
DA:95,0
DA:96,0
DA:97,0
DA:98,0
DA:99,0
DA:100,0
DA:103,0
DA:105,0
DA:106,0
DA:108,0
DA:110,0
DA:111,0
DA:113,0
DA:115,0
DA:116,0
DA:174,1
LF:45
LH:1
end_of_record
SF:/opt/ros/kinetic/include/ros/advertise_options.h
FN:41,_ZN3ros16AdvertiseOptionsD2Ev
FN:43,_ZN3ros16AdvertiseOptionsC2Ev
FN:84,_ZN3ros16AdvertiseOptions4initIN8std_msgs5Int8_ISaIvEEEEEvRKNSt7__cxx1112basic_stringIcSt11char_traitsIcESaIcEEEjRKN5boost8functionIFvRKNS_25SingleSubscriberPublisherEEEESM_
FNDA:0,_ZN3ros16AdvertiseOptionsD2Ev
FNDA:0,_ZN3ros16AdvertiseOptionsC2Ev
FNDA:6,_ZN3ros16AdvertiseOptions4initIN8std_msgs5Int8_ISaIvEEEEEvRKNSt7__cxx1112basic_stringIcSt11char_traitsIcESaIcEEEjRKN5boost8functionIFvRKNS_25SingleSubscriberPublisherEEEESM_
FNF:3
FNH:1
DA:41,0
DA:43,0
DA:45,0
DA:47,0
DA:84,6
DA:88,6
DA:89,6
DA:90,6
DA:91,6
DA:92,6
DA:93,6
DA:94,6
DA:95,6
DA:96,6
LF:14
LH:10
end_of_record
SF:/opt/ros/kinetic/include/ros/message_traits.h
FN:226,_ZN3ros14message_traits6md5sumIN8std_msgs5Int8_ISaIvEEEEEPKcv
FN:235,_ZN3ros14message_traits8datatypeIN8std_msgs5Int8_ISaIvEEEEEPKcv
FN:244,_ZN3ros14message_traits10definitionIN8std_msgs5Int8_ISaIvEEEEEPKcv
FN:253,_ZN3ros14message_traits6md5sumIN8std_msgs5Int8_ISaIvEEEEEPKcRKT_
FN:262,_ZN3ros14message_traits8datatypeIN8std_msgs5Int8_ISaIvEEEEEPKcRKT_
FN:352,_ZN3ros14message_traits9hasHeaderIN8std_msgs5Int8_ISaIvEEEEEbv
FNDA:9,_ZN3ros14message_traits6md5sumIN8std_msgs5Int8_ISaIvEEEEEPKcv
FNDA:9,_ZN3ros14message_traits8datatypeIN8std_msgs5Int8_ISaIvEEEEEPKcv
FNDA:6,_ZN3ros14message_traits10definitionIN8std_msgs5Int8_ISaIvEEEEEPKcv
FNDA:12,_ZN3ros14message_traits6md5sumIN8std_msgs5Int8_ISaIvEEEEEPKcRKT_
FNDA:0,_ZN3ros14message_traits8datatypeIN8std_msgs5Int8_ISaIvEEEEEPKcRKT_
FNDA:9,_ZN3ros14message_traits9hasHeaderIN8std_msgs5Int8_ISaIvEEEEEbv
FNF:6
FNH:5
DA:226,9
DA:228,9
DA:235,9
DA:237,9
DA:244,6
DA:246,6
DA:253,12
DA:255,12
DA:262,0
DA:264,0
DA:352,9
DA:354,9
LF:12
LH:10
end_of_record
SF:/opt/ros/kinetic/include/ros/node_handle.h
FN:249,_ZN3ros10NodeHandle9advertiseIN8std_msgs5Int8_ISaIvEEEEENS_9PublisherERKNSt7__cxx1112basic_stringIcSt11char_traitsIcESaIcEEEjb
FNDA:6,_ZN3ros10NodeHandle9advertiseIN8std_msgs5Int8_ISaIvEEEEENS_9PublisherERKNSt7__cxx1112basic_stringIcSt11char_traitsIcESaIcEEEjb
FNF:1
FNH:1
DA:249,6
DA:251,12
DA:252,6
DA:253,6
DA:254,12
LF:5
LH:5
end_of_record
SF:/opt/ros/kinetic/include/ros/publisher.h
FN:47,_ZN3ros9PublisheraSERKS0_
FN:50,_ZN3ros9PublisherC2Ev
FN:95,_ZNK3ros9Publisher7publishIN8std_msgs5Int8_ISaIvEEEEEvRKT_
FNDA:0,_ZN3ros9PublisheraSERKS0_
FNDA:0,_ZN3ros9PublisherC2Ev
FNDA:6,_ZNK3ros9Publisher7publishIN8std_msgs5Int8_ISaIvEEEEEvRKT_
FNF:3
FNH:1
DA:47,0
DA:50,0
DA:95,6
DA:100,6
DA:102,0
DA:103,0
DA:106,6
DA:108,0
DA:109,0
DA:112,6
DA:117,12
DA:118,6
LF:12
LH:6
end_of_record
SF:/opt/ros/kinetic/include/ros/serialization.h
FN:152,_ZN3ros13serialization9serializeIjNS0_7OStreamEEEvRT0_RKT_
FN:152,_ZN3ros13serialization9serializeIN8std_msgs5Int8_ISaIvEEENS0_7OStreamEEEvRT0_RKT_
FN:152,_ZN3ros13serialization9serializeIaNS0_7OStreamEEEvRT0_RKT_
FN:170,_ZN3ros13serialization19serializationLengthIN8std_msgs5Int8_ISaIvEEEEEjRKT_
FN:170,_ZN3ros13serialization19serializationLengthIaEEjRKT_
FN:195,_ZN3ros13serialization10SerializerIaE5writeINS0_7OStreamEEEvRT_a
FN:195,_ZN3ros13serialization10SerializerIaE16serializedLengthERKa
FN:198,_ZN3ros13serialization10SerializerIjE5writeINS0_7OStreamEEEvRT_j
FN:667,_ZN3ros13serialization6Stream7getDataEv
FN:692,_ZN3ros13serialization6StreamC2EPhj
FN:737,_ZN3ros13serialization7OStreamC2EPhj
FN:769,_ZN3ros13serialization7LStreamC2Ev
FN:795,_ZN3ros13serialization7LStream9getLengthEv
FN:805,_ZN3ros13serialization16serializeMessageIN8std_msgs5Int8_ISaIvEEEEENS_17SerializedMessageERKT_
FNDA:3,_ZN3ros13serialization9serializeIaNS0_7OStreamEEEvRT0_RKT_
FNDA:3,_ZN3ros13serialization9serializeIN8std_msgs5Int8_ISaIvEEENS0_7OStreamEEEvRT0_RKT_
FNDA:0,_ZN3ros13serialization9serializeIjNS0_7OStreamEEEvRT0_RKT_
FNDA:3,_ZN3ros13serialization19serializationLengthIaEEjRKT_
FNDA:3,_ZN3ros13serialization19serializationLengthIN8std_msgs5Int8_ISaIvEEEEEjRKT_
FNDA:3,_ZN3ros13serialization10SerializerIaE5writeINS0_7OStreamEEEvRT_a
FNDA:3,_ZN3ros13serialization10SerializerIaE16serializedLengthERKa
FNDA:0,_ZN3ros13serialization10SerializerIjE5writeINS0_7OStreamEEEvRT_j
FNDA:0,_ZN3ros13serialization6Stream7getDataEv
FNDA:0,_ZN3ros13serialization6StreamC2EPhj
FNDA:0,_ZN3ros13serialization7OStreamC2EPhj
FNDA:0,_ZN3ros13serialization7LStreamC2Ev
FNDA:0,_ZN3ros13serialization7LStream9getLengthEv
FNDA:3,_ZN3ros13serialization16serializeMessageIN8std_msgs5Int8_ISaIvEEEEENS_17SerializedMessageERKT_
FNF:14
FNH:7
DA:152,6
DA:154,6
DA:155,6
DA:170,6
DA:172,6
DA:195,9
DA:198,0
DA:667,0
DA:675,3
DA:676,3
DA:677,3
DA:681,0
DA:683,3
DA:692,0
DA:694,0
DA:695,0
DA:737,0
DA:738,0
DA:739,0
DA:747,3
DA:769,0
DA:770,0
DA:771,0
DA:779,3
DA:795,0
DA:805,3
DA:807,3
DA:808,3
DA:809,3
DA:810,3
DA:812,3
DA:813,3
DA:814,3
DA:815,3
DA:817,3
LF:35
LH:22
end_of_record
SF:/opt/ros/kinetic/include/ros/serialized_message.h
FN:39,_ZN3ros17SerializedMessageD2Ev
FN:49,_ZN3ros17SerializedMessageC2Ev
FNDA:0,_ZN3ros17SerializedMessageD2Ev
FNDA:0,_ZN3ros17SerializedMessageC2Ev
FNF:2
FNH:0
DA:39,0
DA:49,0
DA:53,0
DA:54,0
LF:4
LH:0
end_of_record
SF:/opt/ros/kinetic/include/ros/subscriber.h
FN:49,_ZN3ros10SubscriberC2Ev
FNDA:3,_ZN3ros10SubscriberC2Ev
FNF:1
FNH:1
DA:49,3
LF:1
LH:1
end_of_record
SF:/opt/ros/kinetic/include/sensor_msgs/image_encodings.h
FN:104,__tcf_0
FNDA:1,__tcf_0
FNF:1
FNH:1
DA:47,1
DA:48,1
DA:49,1
DA:50,1
DA:51,1
DA:52,1
DA:53,1
DA:54,1
DA:55,1
DA:56,1
DA:59,1
DA:60,1
DA:61,1
DA:62,1
DA:63,1
DA:64,1
DA:65,1
DA:66,1
DA:67,1
DA:68,1
DA:69,1
DA:70,1
DA:71,1
DA:72,1
DA:73,1
DA:74,1
DA:75,1
DA:76,1
DA:77,1
DA:78,1
DA:79,1
DA:80,1
DA:81,1
DA:82,1
DA:83,1
DA:84,1
DA:85,1
DA:86,1
DA:89,1
DA:90,1
DA:91,1
DA:92,1
DA:93,1
DA:94,1
DA:95,1
DA:96,1
DA:101,1
DA:104,2
DA:105,1
LF:49
LH:49
end_of_record
SF:/opt/ros/kinetic/include/std_msgs/Int8.h
FN:26,_ZN8std_msgs5Int8_ISaIvEEC2Ev
FN:115,_ZN3ros14message_traits6MD5SumIN8std_msgs5Int8_ISaIvEEEE5valueEv
FN:120,_ZN3ros14message_traits6MD5SumIN8std_msgs5Int8_ISaIvEEEE5valueERKS5_
FN:128,_ZN3ros14message_traits8DataTypeIN8std_msgs5Int8_ISaIvEEEE5valueEv
FN:133,_ZN3ros14message_traits8DataTypeIN8std_msgs5Int8_ISaIvEEEE5valueERKS5_
FN:139,_ZN3ros14message_traits10DefinitionIN8std_msgs5Int8_ISaIvEEEE5valueEv
FN:158,_ZN3ros13serialization10SerializerIN8std_msgs5Int8_ISaIvEEEE8allInOneINS0_7LStreamERKS5_EEvRT_T0_
FN:158,_ZN3ros13serialization10SerializerIN8std_msgs5Int8_ISaIvEEEE8allInOneINS0_7OStreamERKS5_EEvRT_T0_
FN:163,_ZN3ros13serialization10SerializerIN8std_msgs5Int8_ISaIvEEEE5writeINS0_7OStreamES5_EEvRT_RKT0_
FN:163,_ZN3ros13serialization10SerializerIN8std_msgs5Int8_ISaIvEEEE16serializedLengthIS5_EEjRKT_
FNDA:9,_ZN8std_msgs5Int8_ISaIvEEC2Ev
FNDA:21,_ZN3ros14message_traits6MD5SumIN8std_msgs5Int8_ISaIvEEEE5valueEv
FNDA:12,_ZN3ros14message_traits6MD5SumIN8std_msgs5Int8_ISaIvEEEE5valueERKS5_
FNDA:9,_ZN3ros14message_traits8DataTypeIN8std_msgs5Int8_ISaIvEEEE5valueEv
FNDA:0,_ZN3ros14message_traits8DataTypeIN8std_msgs5Int8_ISaIvEEEE5valueERKS5_
FNDA:6,_ZN3ros14message_traits10DefinitionIN8std_msgs5Int8_ISaIvEEEE5valueEv
FNDA:3,_ZN3ros13serialization10SerializerIN8std_msgs5Int8_ISaIvEEEE8allInOneINS0_7OStreamERKS5_EEvRT_T0_
FNDA:3,_ZN3ros13serialization10SerializerIN8std_msgs5Int8_ISaIvEEEE8allInOneINS0_7LStreamERKS5_EEvRT_T0_
FNDA:3,_ZN3ros13serialization10SerializerIN8std_msgs5Int8_ISaIvEEEE5writeINS0_7OStreamES5_EEvRT_RKT0_
FNDA:3,_ZN3ros13serialization10SerializerIN8std_msgs5Int8_ISaIvEEEE16serializedLengthIS5_EEjRKT_
FNF:10
FNH:9
DA:26,9
DA:27,9
DA:28,9
DA:115,21
DA:117,21
DA:120,12
DA:128,9
DA:130,9
DA:133,0
DA:139,6
DA:141,6
DA:158,6
DA:160,6
DA:161,6
DA:163,6
LF:15
LH:14
end_of_record
SF:/usr/include/boost/bind/arg.hpp
FN:31,_ZN5boost3argILi8EEC2Ev
FN:31,_ZN5boost3argILi1EEC2Ev
FN:31,_ZN5boost3argILi4EEC2Ev
FN:31,_ZN5boost3argILi7EEC2Ev
FN:31,_ZN5boost3argILi2EEC2Ev
FN:31,_ZN5boost3argILi3EEC2Ev
FN:31,_ZN5boost3argILi6EEC2Ev
FN:31,_ZN5boost3argILi9EEC2Ev
FN:31,_ZN5boost3argILi5EEC2Ev
FNDA:0,_ZN5boost3argILi9EEC2Ev
FNDA:0,_ZN5boost3argILi8EEC2Ev
FNDA:0,_ZN5boost3argILi7EEC2Ev
FNDA:0,_ZN5boost3argILi6EEC2Ev
FNDA:0,_ZN5boost3argILi5EEC2Ev
FNDA:0,_ZN5boost3argILi4EEC2Ev
FNDA:0,_ZN5boost3argILi3EEC2Ev
FNDA:0,_ZN5boost3argILi2EEC2Ev
FNDA:0,_ZN5boost3argILi1EEC2Ev
FNF:9
FNH:0
DA:31,0
DA:33,0
LF:2
LH:0
end_of_record
SF:/usr/include/boost/bind/bind.hpp
FN:146,_ZN5boost3_bi9unwrapperIPFN3ros17SerializedMessageERKN8std_msgs5Int8_ISaIvEEEEE6unwrapERSB_l
FN:168,_ZN5boost3_bi5list0C2Ev
FN:174,_ZNK5boost3_bi5list0ixIKN8std_msgs5Int8_ISaIvEEEEERT_RKNS_17reference_wrapperIS8_EE
FN:225,_ZN5boost3_bi5list1INS_17reference_wrapperIKN8std_msgs5Int8_ISaIvEEEEEEC2ES8_
FN:241,_ZN5boost3_bi5list1INS_17reference_wrapperIKN8std_msgs5Int8_ISaIvEEEEEEclIN3ros17SerializedMessageEPFSC_RS7_ENS0_5list0EEET_NS0_4typeISH_EERT0_RT1_l
FN:886,_ZN5boost3_bi6bind_tIN3ros17SerializedMessageEPFS3_RKN8std_msgs5Int8_ISaIvEEEENS0_5list1INS_17reference_wrapperIS8_EEEEEC2ESB_RKSF_
FN:890,_ZN5boost3_bi6bind_tIN3ros17SerializedMessageEPFS3_RKN8std_msgs5Int8_ISaIvEEEENS0_5list1INS_17reference_wrapperIS8_EEEEEclEv
FNDA:3,_ZN5boost3_bi9unwrapperIPFN3ros17SerializedMessageERKN8std_msgs5Int8_ISaIvEEEEE6unwrapERSB_l
FNDA:0,_ZN5boost3_bi5list0C2Ev
FNDA:3,_ZNK5boost3_bi5list0ixIKN8std_msgs5Int8_ISaIvEEEEERT_RKNS_17reference_wrapperIS8_EE
FNDA:6,_ZN5boost3_bi5list1INS_17reference_wrapperIKN8std_msgs5Int8_ISaIvEEEEEEC2ES8_
FNDA:3,_ZN5boost3_bi5list1INS_17reference_wrapperIKN8std_msgs5Int8_ISaIvEEEEEEclIN3ros17SerializedMessageEPFSC_RS7_ENS0_5list0EEET_NS0_4typeISH_EERT0_RT1_l
FNDA:6,_ZN5boost3_bi6bind_tIN3ros17SerializedMessageEPFS3_RKN8std_msgs5Int8_ISaIvEEEENS0_5list1INS_17reference_wrapperIS8_EEEEEC2ESB_RKSF_
FNDA:3,_ZN5boost3_bi6bind_tIN3ros17SerializedMessageEPFS3_RKN8std_msgs5Int8_ISaIvEEEENS0_5list1INS_17reference_wrapperIS8_EEEEEclEv
FNF:7
FNH:6
DA:146,3
DA:148,3
DA:168,0
DA:174,6
DA:225,6
DA:241,3
DA:243,3
DA:886,6
DA:890,3
DA:892,3
DA:893,3
LF:11
LH:10
end_of_record
SF:/usr/include/boost/bind/bind_cc.hpp
FN:26,_ZN5boost4bindIN3ros17SerializedMessageERKN8std_msgs5Int8_ISaIvEEENS_17reference_wrapperIS7_EEEENS_3_bi6bind_tIT_PFSD_T0_ENSB_9list_av_1IT1_E4typeEEESG_SI_
FNDA:6,_ZN5boost4bindIN3ros17SerializedMessageERKN8std_msgs5Int8_ISaIvEEENS_17reference_wrapperIS7_EEEENS_3_bi6bind_tIT_PFSD_T0_ENSB_9list_av_1IT1_E4typeEEESG_SI_
FNF:1
FNH:1
DA:26,6
DA:30,6
LF:2
LH:2
end_of_record
SF:/usr/include/boost/bind/placeholders.hpp
DA:55,1
DA:56,1
DA:57,1
DA:58,1
DA:59,1
DA:60,1
DA:61,1
DA:62,1
DA:63,1
LF:9
LH:9
end_of_record
SF:/usr/include/boost/bind/storage.hpp
FN:42,_ZN5boost3_bi8storage1INS_17reference_wrapperIKN8std_msgs5Int8_ISaIvEEEEEEC2ES8_
FNDA:6,_ZN5boost3_bi8storage1INS_17reference_wrapperIKN8std_msgs5Int8_ISaIvEEEEEEC2ES8_
FNF:1
FNH:1
DA:42,6
LF:1
LH:1
end_of_record
SF:/usr/include/boost/core/addressof.hpp
DA:29,12
DA:30,12
DA:41,12
DA:116,24
LF:4
LH:4
end_of_record
SF:/usr/include/boost/core/checked_delete.hpp
FN:37,_ZN5boost20checked_array_deleteIhEEvPT_
FN:61,_ZNK5boost21checked_array_deleterIhEclEPh
FNDA:0,_ZN5boost20checked_array_deleteIhEEvPT_
FNDA:0,_ZNK5boost21checked_array_deleterIhEclEPh
FNF:2
FNH:0
DA:37,0
DA:41,0
DA:42,0
DA:61,0
DA:63,0
DA:64,0
LF:6
LH:0
end_of_record
SF:/usr/include/boost/core/ref.hpp
DA:73,6
DA:99,3
DA:139,6
LF:3
LH:3
end_of_record
SF:/usr/include/boost/function/function_base.hpp
FN:312,_ZN5boost6detail8function22functor_manager_commonINS_3_bi6bind_tIN3ros17SerializedMessageEPFS6_RKN8std_msgs5Int8_ISaIvEEEENS3_5list1INS_17reference_wrapperISB_EEEEEEE12manage_smallERKNS1_15function_bufferERSL_NS1_30functor_manager_operation_typeE
FN:361,_ZN5boost6detail8function15functor_managerINS_3_bi6bind_tIN3ros17SerializedMessageEPFS6_RKN8std_msgs5Int8_ISaIvEEEENS3_5list1INS_17reference_wrapperISB_EEEEEEE7managerERKNS1_15function_bufferERSL_NS1_30functor_manager_operation_typeEN4mpl_5bool_ILb1EEE
FN:409,_ZN5boost6detail8function15functor_managerINS_3_bi6bind_tIN3ros17SerializedMessageEPFS6_RKN8std_msgs5Int8_ISaIvEEEENS3_5list1INS_17reference_wrapperISB_EEEEEEE7managerERKNS1_15function_bufferERSL_NS1_30functor_manager_operation_typeENS1_16function_obj_tagE
FN:428,_ZN5boost6detail8function15functor_managerINS_3_bi6bind_tIN3ros17SerializedMessageEPFS6_RKN8std_msgs5Int8_ISaIvEEEENS3_5list1INS_17reference_wrapperISB_EEEEEEE6manageERKNS1_15function_bufferERSL_NS1_30functor_manager_operation_typeE
FN:633,_ZN5boost13function_baseC2Ev
FN:636,_ZNK5boost13function_base5emptyEv
FN:719,_ZNK5boost13function_base28has_trivial_copy_and_destroyEv
FN:886,_ZN5boost6detail8function16has_empty_targetEz
FNDA:0,_ZN5boost6detail8function22functor_manager_commonINS_3_bi6bind_tIN3ros17SerializedMessageEPFS6_RKN8std_msgs5Int8_ISaIvEEEENS3_5list1INS_17reference_wrapperISB_EEEEEEE12manage_smallERKNS1_15function_bufferERSL_NS1_30functor_manager_operation_typeE
FNDA:0,_ZN5boost6detail8function15functor_managerINS_3_bi6bind_tIN3ros17SerializedMessageEPFS6_RKN8std_msgs5Int8_ISaIvEEEENS3_5list1INS_17reference_wrapperISB_EEEEEEE7managerERKNS1_15function_bufferERSL_NS1_30functor_manager_operation_typeEN4mpl_5bool_ILb1EEE
FNDA:0,_ZN5boost6detail8function15functor_managerINS_3_bi6bind_tIN3ros17SerializedMessageEPFS6_RKN8std_msgs5Int8_ISaIvEEEENS3_5list1INS_17reference_wrapperISB_EEEEEEE7managerERKNS1_15function_bufferERSL_NS1_30functor_manager_operation_typeENS1_16function_obj_tagE
FNDA:0,_ZN5boost6detail8function15functor_managerINS_3_bi6bind_tIN3ros17SerializedMessageEPFS6_RKN8std_msgs5Int8_ISaIvEEEENS3_5list1INS_17reference_wrapperISB_EEEEEEE6manageERKNS1_15function_bufferERSL_NS1_30functor_manager_operation_typeE
FNDA:0,_ZN5boost13function_baseC2Ev
FNDA:0,_ZNK5boost13function_base5emptyEv
FNDA:0,_ZNK5boost13function_base28has_trivial_copy_and_destroyEv
FNDA:0,_ZN5boost6detail8function16has_empty_targetEz
FNF:8
FNH:0
DA:312,0
DA:315,0
DA:317,0
DA:318,0
DA:320,0
DA:321,0
DA:324,0
DA:325,0
DA:327,0
DA:330,0
DA:332,0
DA:333,0
DA:334,0
DA:336,0
DA:338,0
DA:339,0
DA:340,0
DA:342,0
DA:361,0
DA:364,0
DA:365,0
DA:409,0
DA:412,0
DA:414,0
DA:428,0
DA:432,0
DA:434,0
DA:435,0
DA:436,0
DA:437,0
DA:440,0
DA:441,0
DA:633,0
DA:636,0
DA:719,0
DA:720,0
DA:886,0
DA:888,0
LF:38
LH:0
end_of_record
SF:/usr/include/boost/function/function_template.hpp
FN:129,_ZN5boost6detail8function21function_obj_invoker0INS_3_bi6bind_tIN3ros17SerializedMessageEPFS6_RKN8std_msgs5Int8_ISaIvEEEENS3_5list1INS_17reference_wrapperISB_EEEEEES6_E6invokeERNS1_15function_bufferE
FN:495,_ZNK5boost6detail8function13basic_vtable0IN3ros17SerializedMessageEE9assign_toINS_3_bi6bind_tIS4_PFS4_RKN8std_msgs5Int8_ISaIvEEEENS7_5list1INS_17reference_wrapperISD_EEEEEEEEbT_RNS1_15function_bufferE
FN:507,_ZNK5boost6detail8function13basic_vtable1IvRKN3ros25SingleSubscriberPublisherEE5clearERNS1_15function_bufferE
FN:507,_ZNK5boost6detail8function13basic_vtable0IN3ros17SerializedMessageEE5clearERNS1_15function_bufferE
FN:570,_ZNK5boost6detail8function13basic_vtable0IN3ros17SerializedMessageEE14assign_functorINS_3_bi6bind_tIS4_PFS4_RKN8std_msgs5Int8_ISaIvEEEENS7_5list1INS_17reference_wrapperISD_EEEEEEEEvT_RNS1_15function_bufferEN4mpl_5bool_ILb1EEE
FN:605,_ZNK5boost6detail8function13basic_vtable0IN3ros17SerializedMessageEE9assign_toINS_3_bi6bind_tIS4_PFS4_RKN8std_msgs5Int8_ISaIvEEEENS7_5list1INS_17reference_wrapperISD_EEEEEEEEbT_RNS1_15function_bufferENS1_16function_obj_tagE
FN:684,_ZNK5boost9function0IN3ros17SerializedMessageEE10get_vtableEv
FN:684,_ZNK5boost9function1IvRKN3ros25SingleSubscriberPublisherEE10get_vtableEv
FN:713,_ZN5boost9function1IvRKN3ros25SingleSubscriberPublisherEEC2Ev
FN:718,_ZN5boost9function0IN3ros17SerializedMessageEEC2INS_3_bi6bind_tIS2_PFS2_RKN8std_msgs5Int8_ISaIvEEEENS5_5list1INS_17reference_wrapperISB_EEEEEEEET_NS_11enable_if_cIXsrNS_11type_traits7ice_notIXsrNS_11is_integralISK_EE5valueEEE5valueEiE4typeE
FN:753,_ZN5boost9function1IvRKN3ros25SingleSubscriberPublisherEEC2ERKS5_
FN:765,_ZN5boost9function1IvRKN3ros25SingleSubscriberPublisherEED2Ev
FN:765,_ZN5boost9function0IN3ros17SerializedMessageEED2Ev
FN:867,_ZN5boost9function1IvRKN3ros25SingleSubscriberPublisherEE4swapERS5_
FN:879,_ZN5boost9function1IvRKN3ros25SingleSubscriberPublisherEE5clearEv
FN:879,_ZN5boost9function0IN3ros17SerializedMessageEE5clearEv
FN:908,_ZN5boost9function1IvRKN3ros25SingleSubscriberPublisherEE13assign_to_ownERKS5_
FN:921,_ZN5boost9function0IN3ros17SerializedMessageEE9assign_toINS_3_bi6bind_tIS2_PFS2_RKN8std_msgs5Int8_ISaIvEEEENS5_5list1INS_17reference_wrapperISB_EEEEEEEEvT_
FN:992,_ZN5boost9function1IvRKN3ros25SingleSubscriberPublisherEE11move_assignERS5_
FN:1056,_ZN5boost8functionIFvRKN3ros25SingleSubscriberPublisherEEED2Ev
FN:1056,_ZN5boost8functionIFN3ros17SerializedMessageEvEED2Ev
FN:1066,_ZN5boost8functionIFvRKN3ros25SingleSubscriberPublisherEEEC2Ev
FN:1069,_ZN5boost8functionIFN3ros17SerializedMessageEvEEC2INS_3_bi6bind_tIS2_PFS2_RKN8std_msgs5Int8_ISaIvEEEENS6_5list1INS_17reference_wrapperISC_EEEEEEEET_NS_11enable_if_cIXsrNS_11type_traits7ice_notIXsrNS_11is_integralISL_EE5valueEEE5valueEiE4typeE
FN:1097,_ZN5boost8functionIFvRKN3ros25SingleSubscriberPublisherEEEC2ERKS6_
FN:1107,_ZN5boost8functionIFvRKN3ros25SingleSubscriberPublisherEEEaSERKS6_
FNDA:3,_ZN5boost6detail8function21function_obj_invoker0INS_3_bi6bind_tIN3ros17SerializedMessageEPFS6_RKN8std_msgs5Int8_ISaIvEEEENS3_5list1INS_17reference_wrapperISB_EEEEEES6_E6invokeERNS1_15function_bufferE
FNDA:6,_ZNK5boost6detail8function13basic_vtable0IN3ros17SerializedMessageEE9assign_toINS_3_bi6bind_tIS4_PFS4_RKN8std_msgs5Int8_ISaIvEEEENS7_5list1INS_17reference_wrapperISD_EEEEEEEEbT_RNS1_15function_bufferE
FNDA:0,_ZNK5boost6detail8function13basic_vtable0IN3ros17SerializedMessageEE5clearERNS1_15function_bufferE
FNDA:0,_ZNK5boost6detail8function13basic_vtable1IvRKN3ros25SingleSubscriberPublisherEE5clearERNS1_15function_bufferE
FNDA:6,_ZNK5boost6detail8function13basic_vtable0IN3ros17SerializedMessageEE14assign_functorINS_3_bi6bind_tIS4_PFS4_RKN8std_msgs5Int8_ISaIvEEEENS7_5list1INS_17reference_wrapperISD_EEEEEEEEvT_RNS1_15function_bufferEN4mpl_5bool_ILb1EEE
FNDA:6,_ZNK5boost6detail8function13basic_vtable0IN3ros17SerializedMessageEE9assign_toINS_3_bi6bind_tIS4_PFS4_RKN8std_msgs5Int8_ISaIvEEEENS7_5list1INS_17reference_wrapperISD_EEEEEEEEbT_RNS1_15function_bufferENS1_16function_obj_tagE
FNDA:0,_ZNK5boost9function0IN3ros17SerializedMessageEE10get_vtableEv
FNDA:0,_ZNK5boost9function1IvRKN3ros25SingleSubscriberPublisherEE10get_vtableEv
FNDA:0,_ZN5boost9function1IvRKN3ros25SingleSubscriberPublisherEEC2Ev
FNDA:6,_ZN5boost9function0IN3ros17SerializedMessageEEC2INS_3_bi6bind_tIS2_PFS2_RKN8std_msgs5Int8_ISaIvEEEENS5_5list1INS_17reference_wrapperISB_EEEEEEEET_NS_11enable_if_cIXsrNS_11type_traits7ice_notIXsrNS_11is_integralISK_EE5valueEEE5valueEiE4typeE
FNDA:0,_ZN5boost9function1IvRKN3ros25SingleSubscriberPublisherEEC2ERKS5_
FNDA:0,_ZN5boost9function0IN3ros17SerializedMessageEED2Ev
FNDA:0,_ZN5boost9function1IvRKN3ros25SingleSubscriberPublisherEED2Ev
FNDA:0,_ZN5boost9function1IvRKN3ros25SingleSubscriberPublisherEE4swapERS5_
FNDA:0,_ZN5boost9function0IN3ros17SerializedMessageEE5clearEv
FNDA:0,_ZN5boost9function1IvRKN3ros25SingleSubscriberPublisherEE5clearEv
FNDA:0,_ZN5boost9function1IvRKN3ros25SingleSubscriberPublisherEE13assign_to_ownERKS5_
FNDA:6,_ZN5boost9function0IN3ros17SerializedMessageEE9assign_toINS_3_bi6bind_tIS2_PFS2_RKN8std_msgs5Int8_ISaIvEEEENS5_5list1INS_17reference_wrapperISB_EEEEEEEEvT_
FNDA:0,_ZN5boost9function1IvRKN3ros25SingleSubscriberPublisherEE11move_assignERS5_
FNDA:0,_ZN5boost8functionIFN3ros17SerializedMessageEvEED2Ev
FNDA:0,_ZN5boost8functionIFvRKN3ros25SingleSubscriberPublisherEEED2Ev
FNDA:0,_ZN5boost8functionIFvRKN3ros25SingleSubscriberPublisherEEEC2Ev
FNDA:6,_ZN5boost8functionIFN3ros17SerializedMessageEvEEC2INS_3_bi6bind_tIS2_PFS2_RKN8std_msgs5Int8_ISaIvEEEENS6_5list1INS_17reference_wrapperISC_EEEEEEEET_NS_11enable_if_cIXsrNS_11type_traits7ice_notIXsrNS_11is_integralISL_EE5valueEEE5valueEiE4typeE
FNDA:0,_ZN5boost8functionIFvRKN3ros25SingleSubscriberPublisherEEEC2ERKS6_
FNDA:0,_ZN5boost8functionIFvRKN3ros25SingleSubscriberPublisherEEEaSERKS6_
FNF:25
FNH:7
DA:129,3
DA:135,3
DA:138,3
DA:495,6
DA:498,6
DA:507,0
DA:509,0
DA:510,0
DA:511,0
DA:570,6
DA:572,6
DA:573,6
DA:605,6
DA:607,6
DA:608,6
DA:610,6
DA:612,0
DA:684,0
DA:686,0
DA:713,0
DA:718,6
DA:726,6
DA:728,6
DA:729,6
DA:753,0
DA:755,0
DA:756,0
DA:765,0
DA:867,0
DA:869,0
DA:870,0
DA:872,0
DA:873,0
DA:874,0
DA:875,0
DA:879,0
DA:881,0
DA:882,0
DA:883,0
DA:884,0
DA:886,0
DA:908,0
DA:910,0
DA:911,0
DA:912,0
DA:913,0
DA:915,0
DA:918,0
DA:921,6
DA:942,6
DA:943,6
DA:948,6
DA:949,6
DA:951,0
DA:952,6
DA:992,0
DA:994,0
DA:995,0
DA:998,0
DA:999,0
DA:1000,0
DA:1001,0
DA:1003,0
DA:1005,0
DA:1007,0
DA:1009,0
DA:1010,0
DA:1011,0
DA:1056,0
DA:1066,0
DA:1069,6
DA:1077,6
DA:1079,6
DA:1097,0
DA:1107,0
DA:1109,0
DA:1110,0
LF:77
LH:25
end_of_record
SF:/usr/include/boost/smart_ptr/detail/operator_bool.hpp
FN:60,_ZNK5boost10shared_ptrIN3ros9Publisher4ImplEEntEv
FNDA:0,_ZNK5boost10shared_ptrIN3ros9Publisher4ImplEEntEv
FNF:1
FNH:0
DA:60,0
DA:62,0
LF:2
LH:0
end_of_record
SF:/usr/include/boost/smart_ptr/detail/shared_count.hpp
FN:114,_ZN5boost6detail12shared_countC2Ev
FN:154,_ZN5boost6detail12shared_countC2IPhNS_21checked_array_deleterIhEEEET_T0_
FN:441,_ZN5boost6detail12shared_countD2Ev
FN:449,_ZN5boost6detail12shared_countC2ERKS1_
FN:486,_ZN5boost6detail12shared_count4swapERS1_
FNDA:0,_ZN5boost6detail12shared_countC2Ev
FNDA:0,_ZN5boost6detail12shared_countC2IPhNS_21checked_array_deleterIhEEEET_T0_
FNDA:0,_ZN5boost6detail12shared_countD2Ev
FNDA:0,_ZN5boost6detail12shared_countC2ERKS1_
FNDA:0,_ZN5boost6detail12shared_count4swapERS1_
FNF:5
FNH:0
DA:114,0
DA:119,0
DA:154,0
DA:167,0
DA:169,0
DA:171,0
DA:172,0
DA:186,0
DA:441,0
DA:442,0
DA:443,0
DA:447,0
DA:449,0
DA:454,0
DA:455,0
DA:486,0
DA:488,0
DA:489,0
DA:490,0
DA:491,0
LF:20
LH:0
end_of_record
SF:/usr/include/boost/smart_ptr/detail/sp_counted_base_gcc_x86.hpp
FN:35,_ZN5boost6detail23atomic_exchange_and_addEPii
FN:55,_ZN5boost6detail16atomic_incrementEPi
FN:109,_ZN5boost6detail15sp_counted_baseC2Ev
FN:113,_ZN5boost6detail15sp_counted_baseD0Ev
FN:113,_ZN5boost6detail15sp_counted_baseD2Ev
FN:124,_ZN5boost6detail15sp_counted_base7destroyEv
FN:132,_ZN5boost6detail15sp_counted_base12add_ref_copyEv
FN:142,_ZN5boost6detail15sp_counted_base7releaseEv
FN:156,_ZN5boost6detail15sp_counted_base12weak_releaseEv
FNDA:0,_ZN5boost6detail23atomic_exchange_and_addEPii
FNDA:0,_ZN5boost6detail16atomic_incrementEPi
FNDA:0,_ZN5boost6detail15sp_counted_baseC2Ev
FNDA:0,_ZN5boost6detail15sp_counted_baseD0Ev
FNDA:0,_ZN5boost6detail15sp_counted_baseD2Ev
FNDA:0,_ZN5boost6detail15sp_counted_base7destroyEv
FNDA:0,_ZN5boost6detail15sp_counted_base12add_ref_copyEv
FNDA:0,_ZN5boost6detail15sp_counted_base7releaseEv
FNDA:0,_ZN5boost6detail15sp_counted_base12weak_releaseEv
FNF:9
FNH:0
DA:35,0
DA:50,0
DA:52,0
DA:55,0
DA:66,0
DA:67,0
DA:109,0
DA:111,0
DA:113,0
DA:114,0
DA:115,0
DA:124,0
DA:126,0
DA:127,0
DA:132,0
DA:134,0
DA:135,0
DA:142,0
DA:144,0
DA:146,0
DA:147,0
DA:149,0
DA:156,0
DA:158,0
DA:160,0
DA:162,0
LF:26
LH:0
end_of_record
SF:/usr/include/boost/smart_ptr/detail/sp_counted_impl.hpp
FN:127,_ZN5boost6detail18sp_counted_impl_pdIPhNS_21checked_array_deleterIhEEED0Ev
FN:127,_ZN5boost6detail18sp_counted_impl_pdIPhNS_21checked_array_deleterIhEEED2Ev
FN:143,_ZN5boost6detail18sp_counted_impl_pdIPhNS_21checked_array_deleterIhEEEC2ES2_RS4_
FN:151,_ZN5boost6detail18sp_counted_impl_pdIPhNS_21checked_array_deleterIhEEE7disposeEv
FN:156,_ZN5boost6detail18sp_counted_impl_pdIPhNS_21checked_array_deleterIhEEE11get_deleterERKSt9type_info
FN:161,_ZN5boost6detail18sp_counted_impl_pdIPhNS_21checked_array_deleterIhEEE19get_untyped_deleterEv
FNDA:0,_ZN5boost6detail18sp_counted_impl_pdIPhNS_21checked_array_deleterIhEEED0Ev
FNDA:0,_ZN5boost6detail18sp_counted_impl_pdIPhNS_21checked_array_deleterIhEEED2Ev
FNDA:0,_ZN5boost6detail18sp_counted_impl_pdIPhNS_21checked_array_deleterIhEEEC2ES2_RS4_
FNDA:0,_ZN5boost6detail18sp_counted_impl_pdIPhNS_21checked_array_deleterIhEEE7disposeEv
FNDA:0,_ZN5boost6detail18sp_counted_impl_pdIPhNS_21checked_array_deleterIhEEE11get_deleterERKSt9type_info
FNDA:0,_ZN5boost6detail18sp_counted_impl_pdIPhNS_21checked_array_deleterIhEEE19get_untyped_deleterEv
FNF:6
FNH:0
DA:127,0
DA:143,0
DA:145,0
DA:151,0
DA:153,0
DA:154,0
DA:156,0
DA:158,0
DA:161,0
DA:163,0
LF:10
LH:0
end_of_record
SF:/usr/include/boost/smart_ptr/shared_array.hpp
FN:44,_ZN5boost12shared_arrayIhED2Ev
FN:56,_ZN5boost12shared_arrayIhEC2Ev
FN:69,_ZN5boost12shared_arrayIhEC2IhEEPT_
FN:175,_ZN5boost12shared_arrayIhE5resetIhEEvPT_
FN:203,_ZNK5boost12shared_arrayIhE3getEv
FN:221,_ZN5boost12shared_arrayIhE4swapERS1_
FNDA:0,_ZN5boost12shared_arrayIhED2Ev
FNDA:0,_ZN5boost12shared_arrayIhEC2Ev
FNDA:0,_ZN5boost12shared_arrayIhEC2IhEEPT_
FNDA:0,_ZN5boost12shared_arrayIhE5resetIhEEvPT_
FNDA:0,_ZNK5boost12shared_arrayIhE3getEv
FNDA:0,_ZN5boost12shared_arrayIhE4swapERS1_
FNF:6
FNH:0
DA:44,0
DA:56,0
DA:58,0
DA:69,0
DA:71,0
DA:72,0
DA:175,0
DA:177,0
DA:178,0
DA:179,0
DA:203,0
DA:205,0
DA:221,0
DA:223,0
DA:224,0
DA:225,0
LF:16
LH:0
end_of_record
SF:/usr/include/boost/smart_ptr/shared_ptr.hpp
FN:251,_ZN5boost6detail21sp_assert_convertibleIA_hS2_EEvv
FN:323,_ZN5boost10shared_ptrIN9cv_bridge7CvImageEED2Ev
FN:323,_ZN5boost10shared_ptrIN3ros9Publisher4ImplEED2Ev
FN:323,_ZN5boost10shared_ptrIKvED2Ev
FN:334,_ZN5boost10shared_ptrIN3ros10Subscriber4ImplEEC2Ev
FN:334,_ZN5boost10shared_ptrIN9cv_bridge7CvImageEEC2Ev
FN:334,_ZN5boost10shared_ptrIN3ros9Publisher4ImplEEC2Ev
FN:334,_ZN5boost10shared_ptrIKvEC2Ev
FN:392,_ZN5boost10shared_ptrIN3ros9Publisher4ImplEEC2ERKS4_
FN:500,_ZN5boost10shared_ptrIN3ros9Publisher4ImplEEaSERKS4_
FN:563,_ZN5boost10shared_ptrIN9cv_bridge7CvImageEEC2EOS3_
FN:587,_ZN5boost10shared_ptrIN9cv_bridge7CvImageEEaSEOS3_
FN:646,_ZNK5boost10shared_ptrIN3ros9Publisher4ImplEEptEv
FN:646,_ZNK5boost10shared_ptrIKN11sensor_msgs6Image_ISaIvEEEEptEv
FN:646,_ZNK5boost10shared_ptrIN9cv_bridge7CvImageEEptEv
FN:679,_ZN5boost10shared_ptrIN3ros9Publisher4ImplEE4swapERS4_
FN:679,_ZN5boost10shared_ptrIN9cv_bridge7CvImageEE4swapERS3_
FNDA:0,_ZN5boost6detail21sp_assert_convertibleIA_hS2_EEvv
FNDA:0,_ZN5boost10shared_ptrIN9cv_bridge7CvImageEED2Ev
FNDA:0,_ZN5boost10shared_ptrIN3ros9Publisher4ImplEED2Ev
FNDA:0,_ZN5boost10shared_ptrIKvED2Ev
FNDA:0,_ZN5boost10shared_ptrIN9cv_bridge7CvImageEEC2Ev
FNDA:3,_ZN5boost10shared_ptrIN3ros10Subscriber4ImplEEC2Ev
FNDA:0,_ZN5boost10shared_ptrIN3ros9Publisher4ImplEEC2Ev
FNDA:0,_ZN5boost10shared_ptrIKvEC2Ev
FNDA:0,_ZN5boost10shared_ptrIN3ros9Publisher4ImplEEC2ERKS4_
FNDA:0,_ZN5boost10shared_ptrIN3ros9Publisher4ImplEEaSERKS4_
FNDA:0,_ZN5boost10shared_ptrIN9cv_bridge7CvImageEEC2EOS3_
FNDA:0,_ZN5boost10shared_ptrIN9cv_bridge7CvImageEEaSEOS3_
FNDA:0,_ZNK5boost10shared_ptrIKN11sensor_msgs6Image_ISaIvEEEEptEv
FNDA:0,_ZNK5boost10shared_ptrIN9cv_bridge7CvImageEEptEv
FNDA:0,_ZNK5boost10shared_ptrIN3ros9Publisher4ImplEEptEv
FNDA:0,_ZN5boost10shared_ptrIN9cv_bridge7CvImageEE4swapERS3_
FNDA:0,_ZN5boost10shared_ptrIN3ros9Publisher4ImplEE4swapERS4_
FNF:17
FNH:1
DA:251,0
DA:265,0
DA:323,0
DA:334,3
DA:336,3
DA:392,0
DA:394,0
DA:500,0
DA:502,0
DA:503,0
DA:563,0
DA:565,0
DA:566,0
DA:567,0
DA:587,0
DA:589,0
DA:590,0
DA:646,0
DA:648,0
DA:649,0
DA:679,0
DA:681,0
DA:682,0
DA:683,0
LF:24
LH:2
end_of_record
SF:/usr/include/c++/5/bits/alloc_traits.h
FN:516,_ZNSt16allocator_traitsISaISt13_Rb_tree_nodeISt4pairIKNSt7__cxx1112basic_stringIcSt11char_traitsIcESaIcEEES7_EEEE10deallocateERSB_PSA_m
FN:516,_ZNSt16allocator_traitsISaIN2cv5Rect_IiEEEE10deallocateERS3_PS2_m
FN:541,_ZNSt16allocator_traitsISaISt13_Rb_tree_nodeISt4pairIKNSt7__cxx1112basic_stringIcSt11char_traitsIcESaIcEEES7_EEEE7destroyIS9_EEvRSB_PT_
FNDA:0,_ZNSt16allocator_traitsISaISt13_Rb_tree_nodeISt4pairIKNSt7__cxx1112basic_stringIcSt11char_traitsIcESaIcEEES7_EEEE10deallocateERSB_PSA_m
FNDA:3,_ZNSt16allocator_traitsISaIN2cv5Rect_IiEEEE10deallocateERS3_PS2_m
FNDA:0,_ZNSt16allocator_traitsISaISt13_Rb_tree_nodeISt4pairIKNSt7__cxx1112basic_stringIcSt11char_traitsIcESaIcEEES7_EEEE7destroyIS9_EEvRSB_PT_
FNF:3
FNH:1
DA:516,3
DA:517,3
DA:541,0
DA:542,0
LF:4
LH:2
end_of_record
SF:/usr/include/c++/5/bits/allocator.h
FN:113,_ZNSaIN2cv5Rect_IiEEEC2Ev
FN:113,_ZNSaISt13_Rb_tree_nodeISt4pairIKNSt7__cxx1112basic_stringIcSt11char_traitsIcESaIcEEES6_EEEC2Ev
FN:121,_ZNSaISt13_Rb_tree_nodeISt4pairIKNSt7__cxx1112basic_stringIcSt11char_traitsIcESaIcEEES6_EEED2Ev
FN:121,_ZNSaIN2cv5Rect_IiEEED2Ev
FNDA:6,_ZNSaIN2cv5Rect_IiEEEC2Ev
FNDA:0,_ZNSaISt13_Rb_tree_nodeISt4pairIKNSt7__cxx1112basic_stringIcSt11char_traitsIcESaIcEEES6_EEEC2Ev
FNDA:6,_ZNSaIN2cv5Rect_IiEEED2Ev
FNDA:0,_ZNSaISt13_Rb_tree_nodeISt4pairIKNSt7__cxx1112basic_stringIcSt11char_traitsIcESaIcEEES6_EEED2Ev
FNF:4
FNH:2
DA:113,6
DA:121,6
LF:2
LH:2
end_of_record
SF:/usr/include/c++/5/bits/basic_string.h
FN:4937,_ZSteqIcSt11char_traitsIcESaIcEEbRKNSt7__cxx1112basic_stringIT_T0_T1_EEPKS5_
FNDA:0,_ZSteqIcSt11char_traitsIcESaIcEEbRKNSt7__cxx1112basic_stringIT_T0_T1_EEPKS5_
FNF:1
FNH:0
DA:4937,0
DA:4939,0
LF:2
LH:0
end_of_record
SF:/usr/include/c++/5/bits/ios_base.h
FN:129,_ZStorSt13_Ios_OpenmodeS_
FNDA:0,_ZStorSt13_Ios_OpenmodeS_
FNF:1
FNH:0
DA:129,0
DA:130,0
LF:2
LH:0
end_of_record
SF:/usr/include/c++/5/bits/move.h
FN:101,_ZSt4moveIRPN9cv_bridge7CvImageEEONSt16remove_referenceIT_E4typeEOS5_
FN:101,_ZSt4moveIRPN3ros9Publisher4ImplEEONSt16remove_referenceIT_E4typeEOS6_
FN:101,_ZSt4moveIRPhEONSt16remove_referenceIT_E4typeEOS3_
FN:176,_ZSt4swapIPN3ros9Publisher4ImplEEvRT_S5_
FN:176,_ZSt4swapIPhEvRT_S2_
FN:176,_ZSt4swapIPN9cv_bridge7CvImageEEvRT_S4_
FNDA:0,_ZSt4moveIRPN9cv_bridge7CvImageEEONSt16remove_referenceIT_E4typeEOS5_
FNDA:0,_ZSt4moveIRPN3ros9Publisher4ImplEEONSt16remove_referenceIT_E4typeEOS6_
FNDA:0,_ZSt4moveIRPhEONSt16remove_referenceIT_E4typeEOS3_
FNDA:0,_ZSt4swapIPN9cv_bridge7CvImageEEvRT_S4_
FNDA:0,_ZSt4swapIPN3ros9Publisher4ImplEEvRT_S5_
FNDA:0,_ZSt4swapIPhEvRT_S2_
FNF:6
FNH:0
DA:101,0
DA:102,0
DA:176,0
DA:185,0
DA:186,0
DA:187,0
DA:188,0
LF:7
LH:0
end_of_record
SF:/usr/include/c++/5/bits/stl_construct.h
FN:112,_ZNSt12_Destroy_auxILb1EE9__destroyIPN2cv5Rect_IiEEEEvT_S6_
FN:122,_ZSt8_DestroyIPN2cv5Rect_IiEEEvT_S4_
FN:148,_ZSt8_DestroyIPN2cv5Rect_IiEES2_EvT_S4_RSaIT0_E
FNDA:6,_ZNSt12_Destroy_auxILb1EE9__destroyIPN2cv5Rect_IiEEEEvT_S6_
FNDA:6,_ZSt8_DestroyIPN2cv5Rect_IiEEEvT_S4_
FNDA:6,_ZSt8_DestroyIPN2cv5Rect_IiEES2_EvT_S4_RSaIT0_E
FNF:3
FNH:3
DA:112,6
DA:122,6
DA:126,6
DA:128,6
DA:148,6
DA:151,6
DA:152,6
LF:7
LH:7
end_of_record
SF:/usr/include/c++/5/bits/stl_function.h
FN:105,_ZNSt14unary_functionIRKN3ros25SingleSubscriberPublisherEvEC2Ev
FNDA:0,_ZNSt14unary_functionIRKN3ros25SingleSubscriberPublisherEvEC2Ev
FNF:1
FNH:0
DA:105,0
LF:1
LH:0
end_of_record
SF:/usr/include/c++/5/bits/stl_map.h
FN:96,_ZNSt3mapINSt7__cxx1112basic_stringIcSt11char_traitsIcESaIcEEES5_St4lessIS5_ESaISt4pairIKS5_S5_EEED2Ev
FN:162,_ZNSt3mapINSt7__cxx1112basic_stringIcSt11char_traitsIcESaIcEEES5_St4lessIS5_ESaISt4pairIKS5_S5_EEEC2Ev
FNDA:0,_ZNSt3mapINSt7__cxx1112basic_stringIcSt11char_traitsIcESaIcEEES5_St4lessIS5_ESaISt4pairIKS5_S5_EEED2Ev
FNDA:0,_ZNSt3mapINSt7__cxx1112basic_stringIcSt11char_traitsIcESaIcEEES5_St4lessIS5_ESaISt4pairIKS5_S5_EEEC2Ev
FNF:2
FNH:0
DA:96,0
DA:162,0
DA:166,0
LF:3
LH:0
end_of_record
SF:/usr/include/c++/5/bits/stl_pair.h
FN:96,_ZNSt4pairIKNSt7__cxx1112basic_stringIcSt11char_traitsIcESaIcEEES5_ED2Ev
FNDA:0,_ZNSt4pairIKNSt7__cxx1112basic_stringIcSt11char_traitsIcESaIcEEES5_ED2Ev
FNF:1
FNH:0
DA:96,0
LF:1
LH:0
end_of_record
SF:/usr/include/c++/5/bits/stl_tree.h
FN:152,_ZNSt13_Rb_tree_nodeISt4pairIKNSt7__cxx1112basic_stringIcSt11char_traitsIcESaIcEEES6_EE9_M_valptrEv
FN:477,_ZNSt8_Rb_treeINSt7__cxx1112basic_stringIcSt11char_traitsIcESaIcEEESt4pairIKS5_S5_ESt10_Select1stIS8_ESt4lessIS5_ESaIS8_EE21_M_get_Node_allocatorEv
FN:494,_ZNSt8_Rb_treeINSt7__cxx1112basic_stringIcSt11char_traitsIcESaIcEEESt4pairIKS5_S5_ESt10_Select1stIS8_ESt4lessIS5_ESaIS8_EE11_M_put_nodeEPSt13_Rb_tree_nodeIS8_E
FN:551,_ZNSt8_Rb_treeINSt7__cxx1112basic_stringIcSt11char_traitsIcESaIcEEESt4pairIKS5_S5_ESt10_Select1stIS8_ESt4lessIS5_ESaIS8_EE15_M_destroy_nodeEPSt13_Rb_tree_nodeIS8_E
FN:559,_ZNSt8_Rb_treeINSt7__cxx1112basic_stringIcSt11char_traitsIcESaIcEEESt4pairIKS5_S5_ESt10_Select1stIS8_ESt4lessIS5_ESaIS8_EE12_M_drop_nodeEPSt13_Rb_tree_nodeIS8_E
FN:580,_ZNSt8_Rb_treeINSt7__cxx1112basic_stringIcSt11char_traitsIcESaIcEEESt4pairIKS5_S5_ESt10_Select1stIS8_ESt4lessIS5_ESaIS8_EE13_Rb_tree_implISC_Lb1EED2Ev
FN:586,_ZNSt8_Rb_treeINSt7__cxx1112basic_stringIcSt11char_traitsIcESaIcEEESt4pairIKS5_S5_ESt10_Select1stIS8_ESt4lessIS5_ESaIS8_EE13_Rb_tree_implISC_Lb1EEC2Ev
FN:614,_ZNSt8_Rb_treeINSt7__cxx1112basic_stringIcSt11char_traitsIcESaIcEEESt4pairIKS5_S5_ESt10_Select1stIS8_ESt4lessIS5_ESaIS8_EE13_Rb_tree_implISC_Lb1EE13_M_initializeEv
FN:651,_ZNSt8_Rb_treeINSt7__cxx1112basic_stringIcSt11char_traitsIcESaIcEEESt4pairIKS5_S5_ESt10_Select1stIS8_ESt4lessIS5_ESaIS8_EE8_M_beginEv
FN:678,_ZNSt8_Rb_treeINSt7__cxx1112basic_stringIcSt11char_traitsIcESaIcEEESt4pairIKS5_S5_ESt10_Select1stIS8_ESt4lessIS5_ESaIS8_EE7_S_leftEPSt18_Rb_tree_node_base
FN:686,_ZNSt8_Rb_treeINSt7__cxx1112basic_stringIcSt11char_traitsIcESaIcEEESt4pairIKS5_S5_ESt10_Select1stIS8_ESt4lessIS5_ESaIS8_EE8_S_rightEPSt18_Rb_tree_node_base
FN:807,_ZNSt8_Rb_treeINSt7__cxx1112basic_stringIcSt11char_traitsIcESaIcEEESt4pairIKS5_S5_ESt10_Select1stIS8_ESt4lessIS5_ESaIS8_EEC2Ev
FN:857,_ZNSt8_Rb_treeINSt7__cxx1112basic_stringIcSt11char_traitsIcESaIcEEESt4pairIKS5_S5_ESt10_Select1stIS8_ESt4lessIS5_ESaIS8_EED2Ev
FN:1606,_ZNSt8_Rb_treeINSt7__cxx1112basic_stringIcSt11char_traitsIcESaIcEEESt4pairIKS5_S5_ESt10_Select1stIS8_ESt4lessIS5_ESaIS8_EE8_M_eraseEPSt13_Rb_tree_nodeIS8_E
FNDA:0,_ZNSt13_Rb_tree_nodeISt4pairIKNSt7__cxx1112basic_stringIcSt11char_traitsIcESaIcEEES6_EE9_M_valptrEv
FNDA:0,_ZNSt8_Rb_treeINSt7__cxx1112basic_stringIcSt11char_traitsIcESaIcEEESt4pairIKS5_S5_ESt10_Select1stIS8_ESt4lessIS5_ESaIS8_EE21_M_get_Node_allocatorEv
FNDA:0,_ZNSt8_Rb_treeINSt7__cxx1112basic_stringIcSt11char_traitsIcESaIcEEESt4pairIKS5_S5_ESt10_Select1stIS8_ESt4lessIS5_ESaIS8_EE11_M_put_nodeEPSt13_Rb_tree_nodeIS8_E
FNDA:0,_ZNSt8_Rb_treeINSt7__cxx1112basic_stringIcSt11char_traitsIcESaIcEEESt4pairIKS5_S5_ESt10_Select1stIS8_ESt4lessIS5_ESaIS8_EE15_M_destroy_nodeEPSt13_Rb_tree_nodeIS8_E
FNDA:0,_ZNSt8_Rb_treeINSt7__cxx1112basic_stringIcSt11char_traitsIcESaIcEEESt4pairIKS5_S5_ESt10_Select1stIS8_ESt4lessIS5_ESaIS8_EE12_M_drop_nodeEPSt13_Rb_tree_nodeIS8_E
FNDA:0,_ZNSt8_Rb_treeINSt7__cxx1112basic_stringIcSt11char_traitsIcESaIcEEESt4pairIKS5_S5_ESt10_Select1stIS8_ESt4lessIS5_ESaIS8_EE13_Rb_tree_implISC_Lb1EED2Ev
FNDA:0,_ZNSt8_Rb_treeINSt7__cxx1112basic_stringIcSt11char_traitsIcESaIcEEESt4pairIKS5_S5_ESt10_Select1stIS8_ESt4lessIS5_ESaIS8_EE13_Rb_tree_implISC_Lb1EEC2Ev
FNDA:0,_ZNSt8_Rb_treeINSt7__cxx1112basic_stringIcSt11char_traitsIcESaIcEEESt4pairIKS5_S5_ESt10_Select1stIS8_ESt4lessIS5_ESaIS8_EE13_Rb_tree_implISC_Lb1EE13_M_initializeEv
FNDA:0,_ZNSt8_Rb_treeINSt7__cxx1112basic_stringIcSt11char_traitsIcESaIcEEESt4pairIKS5_S5_ESt10_Select1stIS8_ESt4lessIS5_ESaIS8_EE8_M_beginEv
FNDA:0,_ZNSt8_Rb_treeINSt7__cxx1112basic_stringIcSt11char_traitsIcESaIcEEESt4pairIKS5_S5_ESt10_Select1stIS8_ESt4lessIS5_ESaIS8_EE7_S_leftEPSt18_Rb_tree_node_base
FNDA:0,_ZNSt8_Rb_treeINSt7__cxx1112basic_stringIcSt11char_traitsIcESaIcEEESt4pairIKS5_S5_ESt10_Select1stIS8_ESt4lessIS5_ESaIS8_EE8_S_rightEPSt18_Rb_tree_node_base
FNDA:0,_ZNSt8_Rb_treeINSt7__cxx1112basic_stringIcSt11char_traitsIcESaIcEEESt4pairIKS5_S5_ESt10_Select1stIS8_ESt4lessIS5_ESaIS8_EEC2Ev
FNDA:0,_ZNSt8_Rb_treeINSt7__cxx1112basic_stringIcSt11char_traitsIcESaIcEEESt4pairIKS5_S5_ESt10_Select1stIS8_ESt4lessIS5_ESaIS8_EED2Ev
FNDA:0,_ZNSt8_Rb_treeINSt7__cxx1112basic_stringIcSt11char_traitsIcESaIcEEESt4pairIKS5_S5_ESt10_Select1stIS8_ESt4lessIS5_ESaIS8_EE8_M_eraseEPSt13_Rb_tree_nodeIS8_E
FNF:14
FNH:0
DA:152,0
DA:153,0
DA:477,0
DA:478,0
DA:494,0
DA:495,0
DA:551,0
DA:553,0
DA:555,0
DA:559,0
DA:561,0
DA:562,0
DA:563,0
DA:580,0
DA:586,0
DA:588,0
DA:589,0
DA:614,0
DA:616,0
DA:617,0
DA:618,0
DA:619,0
DA:620,0
DA:651,0
DA:652,0
DA:678,0
DA:679,0
DA:686,0
DA:687,0
DA:807,0
DA:857,0
DA:858,0
DA:1606,0
DA:1610,0
DA:1612,0
DA:1613,0
DA:1614,0
DA:1615,0
DA:1617,0
LF:39
LH:0
end_of_record
SF:/usr/include/c++/5/bits/stl_vector.h
FN:79,_ZNSt12_Vector_baseIN2cv5Rect_IiEESaIS2_EE12_Vector_implD2Ev
FN:86,_ZNSt12_Vector_baseIN2cv5Rect_IiEESaIS2_EE12_Vector_implC2Ev
FN:113,_ZNSt12_Vector_baseIN2cv5Rect_IiEESaIS2_EE19_M_get_Tp_allocatorEv
FN:124,_ZNSt12_Vector_baseIN2cv5Rect_IiEESaIS2_EEC2Ev
FN:159,_ZNSt12_Vector_baseIN2cv5Rect_IiEESaIS2_EED2Ev
FN:174,_ZNSt12_Vector_baseIN2cv5Rect_IiEESaIS2_EE13_M_deallocateEPS2_m
FN:253,_ZNSt6vectorIN2cv5Rect_IiEESaIS2_EEC2Ev
FN:423,_ZNSt6vectorIN2cv5Rect_IiEESaIS2_EED2Ev
FN:654,_ZNKSt6vectorIN2cv5Rect_IiEESaIS2_EE4sizeEv
FN:779,_ZNSt6vectorIN2cv5Rect_IiEESaIS2_EEixEm
FNDA:6,_ZNSt12_Vector_baseIN2cv5Rect_IiEESaIS2_EE12_Vector_implD2Ev
FNDA:6,_ZNSt12_Vector_baseIN2cv5Rect_IiEESaIS2_EE12_Vector_implC2Ev
FNDA:6,_ZNSt12_Vector_baseIN2cv5Rect_IiEESaIS2_EE19_M_get_Tp_allocatorEv
FNDA:6,_ZNSt12_Vector_baseIN2cv5Rect_IiEESaIS2_EEC2Ev
FNDA:6,_ZNSt12_Vector_baseIN2cv5Rect_IiEESaIS2_EED2Ev
FNDA:6,_ZNSt12_Vector_baseIN2cv5Rect_IiEESaIS2_EE13_M_deallocateEPS2_m
FNDA:6,_ZNSt6vectorIN2cv5Rect_IiEESaIS2_EEC2Ev
FNDA:6,_ZNSt6vectorIN2cv5Rect_IiEESaIS2_EED2Ev
FNDA:7,_ZNKSt6vectorIN2cv5Rect_IiEESaIS2_EE4sizeEv
FNDA:42,_ZNSt6vectorIN2cv5Rect_IiEESaIS2_EEixEm
FNF:10
FNH:10
DA:79,6
DA:86,6
DA:87,6
DA:88,6
DA:113,6
DA:114,6
DA:124,6
DA:125,6
DA:159,6
DA:160,12
DA:161,18
DA:174,6
DA:177,6
DA:178,3
DA:179,6
DA:253,6
DA:257,6
DA:423,6
DA:424,6
DA:425,12
DA:654,7
DA:655,7
DA:779,42
DA:780,42
LF:24
LH:24
end_of_record
SF:/usr/include/c++/5/ext/aligned_buffer.h
FN:62,_ZN9__gnu_cxx16__aligned_membufISt4pairIKNSt7__cxx1112basic_stringIcSt11char_traitsIcESaIcEEES7_EE7_M_addrEv
FN:70,_ZN9__gnu_cxx16__aligned_membufISt4pairIKNSt7__cxx1112basic_stringIcSt11char_traitsIcESaIcEEES7_EE6_M_ptrEv
FNDA:0,_ZN9__gnu_cxx16__aligned_membufISt4pairIKNSt7__cxx1112basic_stringIcSt11char_traitsIcESaIcEEES7_EE7_M_addrEv
FNDA:0,_ZN9__gnu_cxx16__aligned_membufISt4pairIKNSt7__cxx1112basic_stringIcSt11char_traitsIcESaIcEEES7_EE6_M_ptrEv
FNF:2
FNH:0
DA:62,0
DA:63,0
DA:70,0
DA:71,0
LF:4
LH:0
end_of_record
SF:/usr/include/c++/5/ext/new_allocator.h
FN:79,_ZN9__gnu_cxx13new_allocatorIN2cv5Rect_IiEEEC2Ev
FN:79,_ZN9__gnu_cxx13new_allocatorISt13_Rb_tree_nodeISt4pairIKNSt7__cxx1112basic_stringIcSt11char_traitsIcESaIcEEES8_EEEC2Ev
FN:86,_ZN9__gnu_cxx13new_allocatorIN2cv5Rect_IiEEED2Ev
FN:86,_ZN9__gnu_cxx13new_allocatorISt13_Rb_tree_nodeISt4pairIKNSt7__cxx1112basic_stringIcSt11char_traitsIcESaIcEEES8_EEED2Ev
FN:109,_ZN9__gnu_cxx13new_allocatorISt13_Rb_tree_nodeISt4pairIKNSt7__cxx1112basic_stringIcSt11char_traitsIcESaIcEEES8_EEE10deallocateEPSB_m
FN:109,_ZN9__gnu_cxx13new_allocatorIN2cv5Rect_IiEEE10deallocateEPS3_m
FN:124,_ZN9__gnu_cxx13new_allocatorISt13_Rb_tree_nodeISt4pairIKNSt7__cxx1112basic_stringIcSt11char_traitsIcESaIcEEES8_EEE7destroyISA_EEvPT_
FNDA:6,_ZN9__gnu_cxx13new_allocatorIN2cv5Rect_IiEEEC2Ev
FNDA:0,_ZN9__gnu_cxx13new_allocatorISt13_Rb_tree_nodeISt4pairIKNSt7__cxx1112basic_stringIcSt11char_traitsIcESaIcEEES8_EEEC2Ev
FNDA:6,_ZN9__gnu_cxx13new_allocatorIN2cv5Rect_IiEEED2Ev
FNDA:0,_ZN9__gnu_cxx13new_allocatorISt13_Rb_tree_nodeISt4pairIKNSt7__cxx1112basic_stringIcSt11char_traitsIcESaIcEEES8_EEED2Ev
FNDA:0,_ZN9__gnu_cxx13new_allocatorISt13_Rb_tree_nodeISt4pairIKNSt7__cxx1112basic_stringIcSt11char_traitsIcESaIcEEES8_EEE10deallocateEPSB_m
FNDA:3,_ZN9__gnu_cxx13new_allocatorIN2cv5Rect_IiEEE10deallocateEPS3_m
FNDA:0,_ZN9__gnu_cxx13new_allocatorISt13_Rb_tree_nodeISt4pairIKNSt7__cxx1112basic_stringIcSt11char_traitsIcESaIcEEES8_EEE7destroyISA_EEvPT_
FNF:7
FNH:3
DA:79,6
DA:86,6
DA:109,3
DA:110,3
DA:124,0
LF:5
LH:4
end_of_record
SF:/usr/include/c++/5/iostream
DA:74,1
LF:1
LH:1
end_of_record
SF:/usr/include/c++/5/new
FN:129,_ZnwmPv
FNDA:0,_ZnwmPv
FNF:1
FNH:0
DA:129,0
DA:130,0
LF:2
LH:0
end_of_record
SF:/usr/include/c++/5/typeinfo
FN:99,_ZNKSt9type_info4nameEv
FN:120,_ZNKSt9type_infoeqERKS_
FNDA:0,_ZNKSt9type_info4nameEv
FNDA:0,_ZNKSt9type_infoeqERKS_
FNF:2
FNH:0
DA:99,0
DA:100,0
DA:120,0
DA:122,0
DA:123,0
DA:124,0
LF:6
LH:0
end_of_record
TN:
SF:/home/zach/catkin_ws/src/final_map_mobile/test/SignDetect_Test.cpp
FN:50,_ZN41TestSignDetect_Server_Existance_Test_Test8TestBodyEv
FN:50,_ZN41TestSignDetect_Server_Existance_Test_TestD0Ev
FN:50,_ZN41TestSignDetect_Server_Existance_Test_TestC2Ev
FN:50,_ZN41TestSignDetect_Server_Existance_Test_TestD2Ev
FN:64,_ZN41TestImageConvert_TestimageConversion_Test8TestBodyEv
FN:64,_ZN41TestImageConvert_TestimageConversion_TestD2Ev
FN:64,_ZN41TestImageConvert_TestimageConversion_TestD0Ev
FN:64,_ZN41TestImageConvert_TestimageConversion_TestC2Ev
FN:82,_ZN39TestdetectSign1_TestForSignFarAway_TestD0Ev
FN:82,_ZN39TestdetectSign1_TestForSignFarAway_TestD2Ev
FN:82,_ZN39TestdetectSign1_TestForSignFarAway_Test8TestBodyEv
FN:82,_ZN39TestdetectSign1_TestForSignFarAway_TestC2Ev
FN:97,_ZN43TestdetectStopSign2_TestForSignCloseby_TestD2Ev
FN:97,_ZN43TestdetectStopSign2_TestForSignCloseby_TestC2Ev
FN:97,_ZN43TestdetectStopSign2_TestForSignCloseby_Test8TestBodyEv
FN:97,_ZN43TestdetectStopSign2_TestForSignCloseby_TestD0Ev
FN:104,_GLOBAL__sub_I__ZN41TestSignDetect_Server_Existance_Test_Test10test_info_E
FNDA:1,_ZN41TestSignDetect_Server_Existance_Test_TestD0Ev
FNDA:1,_ZN41TestSignDetect_Server_Existance_Test_TestD2Ev
FNDA:1,_ZN41TestSignDetect_Server_Existance_Test_Test8TestBodyEv
FNDA:1,_ZN41TestSignDetect_Server_Existance_Test_TestC2Ev
FNDA:1,_ZN41TestImageConvert_TestimageConversion_TestD0Ev
FNDA:1,_ZN41TestImageConvert_TestimageConversion_TestD2Ev
FNDA:1,_ZN41TestImageConvert_TestimageConversion_Test8TestBodyEv
FNDA:1,_ZN41TestImageConvert_TestimageConversion_TestC2Ev
FNDA:1,_ZN39TestdetectSign1_TestForSignFarAway_TestD0Ev
FNDA:1,_ZN39TestdetectSign1_TestForSignFarAway_TestD2Ev
FNDA:1,_ZN39TestdetectSign1_TestForSignFarAway_Test8TestBodyEv
FNDA:1,_ZN39TestdetectSign1_TestForSignFarAway_TestC2Ev
FNDA:1,_ZN43TestdetectStopSign2_TestForSignCloseby_TestD0Ev
FNDA:1,_ZN43TestdetectStopSign2_TestForSignCloseby_TestD2Ev
FNDA:1,_ZN43TestdetectStopSign2_TestForSignCloseby_Test8TestBodyEv
FNDA:1,_ZN43TestdetectStopSign2_TestForSignCloseby_TestC2Ev
FNDA:1,_GLOBAL__sub_I__ZN41TestSignDetect_Server_Existance_Test_Test10test_info_E
FNDA:1,_Z41__static_initialization_and_destruction_0ii
FNF:18
FNH:18
DA:50,5
DA:52,2
DA:55,1
DA:56,1
DA:64,5
DA:65,2
DA:66,1
DA:67,2
DA:69,2
DA:70,1
DA:71,1
DA:72,1
DA:73,1
DA:74,1
DA:82,5
DA:83,2
DA:84,2
DA:85,1
DA:86,1
DA:87,1
DA:88,1
DA:89,1
DA:97,5
DA:98,2
DA:99,2
DA:100,1
DA:101,1
DA:102,1
DA:103,1
DA:104,4
LF:30
LH:30
end_of_record
SF:/opt/ros/kinetic/include/cv_bridge/cv_bridge.h
FN:76,_ZN9cv_bridge7CvImageD2Ev
FN:91,_ZN9cv_bridge7CvImageC2ERKN8std_msgs7Header_ISaIvEEERKNSt7__cxx1112basic_stringIcSt11char_traitsIcESaIcEEERKN2cv3MatE
FNDA:0,_ZN9cv_bridge7CvImageD2Ev
FNDA:0,_ZN9cv_bridge7CvImageC2ERKN8std_msgs7Header_ISaIvEEERKNSt7__cxx1112basic_stringIcSt11char_traitsIcESaIcEEERKN2cv3MatE
FNF:2
FNH:0
DA:76,0
DA:91,0
DA:93,0
DA:95,0
LF:4
LH:0
end_of_record
SF:/opt/ros/kinetic/include/opencv-3.3.1-dev/opencv2/core/cvstd.hpp
FN:571,_ZN2cv6StringC2ERKS0_
FN:596,_ZN2cv6StringC2EPKc
FN:646,_ZN2cv6StringD2Ev
FN:652,_ZN2cv6StringaSERKS0_
FN:745,_ZNK2cv6String5c_strEv
FNDA:0,_ZN2cv6StringC2ERKS0_
FNDA:0,_ZN2cv6StringC2EPKc
FNDA:0,_ZN2cv6StringD2Ev
FNDA:0,_ZN2cv6StringaSERKS0_
FNDA:0,_ZNK2cv6String5c_strEv
FNF:5
FNH:0
DA:571,0
DA:572,0
DA:574,0
DA:575,0
DA:576,0
DA:596,0
DA:597,0
DA:599,0
DA:600,0
DA:601,0
DA:602,0
DA:646,0
DA:648,0
DA:649,0
DA:652,0
DA:654,0
DA:656,0
DA:657,0
DA:658,0
DA:659,0
DA:660,0
DA:745,0
DA:747,0
LF:23
LH:0
end_of_record
SF:/opt/ros/kinetic/include/opencv-3.3.1-dev/opencv2/core/mat.inl.hpp
FN:66,_ZN2cv11_InputArray4initEiPKv
FN:78,_ZN2cv11_InputArrayC2ERKNS_3MatE
FN:143,_ZN2cv11_InputArrayD2Ev
FN:476,_ZN2cv3MatC2ERKS0_
FN:688,_ZN2cv3MatD2Ev
FN:801,_ZN2cv3Mat7releaseEv
FN:1401,_ZN2cv7MatSizeC2EPi
FN:1462,_ZN2cv7MatStepC2Em
FN:1468,_ZNK2cv7MatStepixEi
FN:1474,_ZN2cv7MatStepixEi
FNDA:262,_ZN2cv11_InputArray4initEiPKv
FNDA:56,_ZN2cv11_InputArrayC2ERKNS_3MatE
FNDA:156,_ZN2cv11_InputArrayD2Ev
FNDA:0,_ZN2cv3MatC2ERKS0_
FNDA:0,_ZN2cv3MatD2Ev
FNDA:0,_ZN2cv3Mat7releaseEv
FNDA:0,_ZN2cv7MatSizeC2EPi
FNDA:0,_ZN2cv7MatStepC2Em
FNDA:0,_ZNK2cv7MatStepixEi
FNDA:0,_ZN2cv7MatStepixEi
FNF:10
FNH:3
DA:66,262
DA:67,262
DA:78,56
DA:143,156
DA:476,0
DA:477,0
DA:478,0
DA:479,0
DA:481,0
DA:482,0
DA:483,0
DA:485,0
DA:489,0
DA:490,0
DA:492,0
DA:688,0
DA:690,0
DA:691,0
DA:692,0
DA:693,0
DA:801,0
DA:803,0
DA:804,0
DA:805,0
DA:806,0
DA:807,0
DA:808,0
DA:819,0
DA:1401,0
DA:1402,0
DA:1462,0
DA:1464,0
DA:1465,0
DA:1468,0
DA:1470,0
DA:1474,0
DA:1476,0
LF:37
LH:4
end_of_record
SF:/opt/ros/kinetic/include/opencv-3.3.1-dev/opencv2/core/types.hpp
FN:1642,_ZN2cv5Size_IiEC2Ev
FNDA:167,_ZN2cv5Size_IiEC2Ev
FNF:1
FNH:1
DA:1642,167
DA:1643,167
LF:2
LH:2
end_of_record
SF:/opt/ros/kinetic/include/opencv-3.3.1-dev/opencv2/flann/any.h
FN:34,_ZN7cvflann7anyimpllsERSoRKNS0_9empty_anyE
FN:51,_ZN7cvflann7anyimpl15base_any_policyD2Ev
FN:51,_ZN7cvflann7anyimpl15base_any_policyD0Ev
FN:55,_ZN7cvflann7anyimpl21typed_base_any_policyIjED2Ev
FN:55,_ZN7cvflann7anyimpl21typed_base_any_policyIjED0Ev
FN:55,_ZN7cvflann7anyimpl21typed_base_any_policyIN2cv6StringEED2Ev
FN:55,_ZN7cvflann7anyimpl21typed_base_any_policyINS_20flann_centers_init_tEED0Ev
FN:55,_ZN7cvflann7anyimpl21typed_base_any_policyINS_17flann_algorithm_tEED2Ev
FN:55,_ZN7cvflann7anyimpl21typed_base_any_policyIPKcED0Ev
FN:55,_ZN7cvflann7anyimpl21typed_base_any_policyINS0_9empty_anyEED2Ev
FN:55,_ZN7cvflann7anyimpl21typed_base_any_policyIfED0Ev
FN:55,_ZN7cvflann7anyimpl21typed_base_any_policyINS_20flann_centers_init_tEED2Ev
FN:55,_ZN7cvflann7anyimpl21typed_base_any_policyIPKcED2Ev
FN:55,_ZN7cvflann7anyimpl21typed_base_any_policyIbED0Ev
FN:55,_ZN7cvflann7anyimpl21typed_base_any_policyIiED0Ev
FN:55,_ZN7cvflann7anyimpl21typed_base_any_policyINS_17flann_algorithm_tEED0Ev
FN:55,_ZN7cvflann7anyimpl21typed_base_any_policyIN2cv6StringEED0Ev
FN:55,_ZN7cvflann7anyimpl21typed_base_any_policyIfED2Ev
FN:55,_ZN7cvflann7anyimpl21typed_base_any_policyIiED2Ev
FN:55,_ZN7cvflann7anyimpl21typed_base_any_policyIbED2Ev
FN:55,_ZN7cvflann7anyimpl21typed_base_any_policyINS0_9empty_anyEED0Ev
FN:57,_ZN7cvflann7anyimpl21typed_base_any_policyINS0_9empty_anyEE8get_sizeEv
FN:57,_ZN7cvflann7anyimpl21typed_base_any_policyIiE8get_sizeEv
FN:57,_ZN7cvflann7anyimpl21typed_base_any_policyIjE8get_sizeEv
FN:57,_ZN7cvflann7anyimpl21typed_base_any_policyIN2cv6StringEE8get_sizeEv
FN:57,_ZN7cvflann7anyimpl21typed_base_any_policyIPKcE8get_sizeEv
FN:57,_ZN7cvflann7anyimpl21typed_base_any_policyIbE8get_sizeEv
FN:57,_ZN7cvflann7anyimpl21typed_base_any_policyINS_17flann_algorithm_tEE8get_sizeEv
FN:57,_ZN7cvflann7anyimpl21typed_base_any_policyINS_20flann_centers_init_tEE8get_sizeEv
FN:57,_ZN7cvflann7anyimpl21typed_base_any_policyIfE8get_sizeEv
FN:58,_ZN7cvflann7anyimpl21typed_base_any_policyIjE4typeEv
FN:58,_ZN7cvflann7anyimpl21typed_base_any_policyIPKcE4typeEv
FN:58,_ZN7cvflann7anyimpl21typed_base_any_policyINS_20flann_centers_init_tEE4typeEv
FN:58,_ZN7cvflann7anyimpl21typed_base_any_policyIiE4typeEv
FN:58,_ZN7cvflann7anyimpl21typed_base_any_policyIbE4typeEv
FN:58,_ZN7cvflann7anyimpl21typed_base_any_policyIN2cv6StringEE4typeEv
FN:58,_ZN7cvflann7anyimpl21typed_base_any_policyIfE4typeEv
FN:58,_ZN7cvflann7anyimpl21typed_base_any_policyINS_17flann_algorithm_tEE4typeEv
FN:58,_ZN7cvflann7anyimpl21typed_base_any_policyINS0_9empty_anyEE4typeEv
FN:63,_ZN7cvflann7anyimpl16small_any_policyIPKcED2Ev
FN:63,_ZN7cvflann7anyimpl16small_any_policyIbED2Ev
FN:63,_ZN7cvflann7anyimpl16small_any_policyIjED0Ev
FN:63,_ZN7cvflann7anyimpl16small_any_policyIPKcED0Ev
FN:63,_ZN7cvflann7anyimpl16small_any_policyIiED2Ev
FN:63,_ZN7cvflann7anyimpl16small_any_policyIbED0Ev
FN:63,_ZN7cvflann7anyimpl16small_any_policyIfED2Ev
FN:63,_ZN7cvflann7anyimpl16small_any_policyIfED0Ev
FN:63,_ZN7cvflann7anyimpl16small_any_policyIjED2Ev
FN:63,_ZN7cvflann7anyimpl16small_any_policyIiED0Ev
FN:65,_ZN7cvflann7anyimpl16small_any_policyIfE13static_deleteEPPv
FN:65,_ZN7cvflann7anyimpl16small_any_policyIiE13static_deleteEPPv
FN:65,_ZN7cvflann7anyimpl16small_any_policyIjE13static_deleteEPPv
FN:65,_ZN7cvflann7anyimpl16small_any_policyIbE13static_deleteEPPv
FN:65,_ZN7cvflann7anyimpl16small_any_policyIPKcE13static_deleteEPPv
FN:66,_ZN7cvflann7anyimpl16small_any_policyIPKcE15copy_from_valueEPKvPPv
FN:66,_ZN7cvflann7anyimpl16small_any_policyIjE15copy_from_valueEPKvPPv
FN:66,_ZN7cvflann7anyimpl16small_any_policyIiE15copy_from_valueEPKvPPv
FN:66,_ZN7cvflann7anyimpl16small_any_policyIbE15copy_from_valueEPKvPPv
FN:66,_ZN7cvflann7anyimpl16small_any_policyIfE15copy_from_valueEPKvPPv
FN:70,_ZN7cvflann7anyimpl16small_any_policyIiE5cloneEPKPvPS3_
FN:70,_ZN7cvflann7anyimpl16small_any_policyIbE5cloneEPKPvPS3_
FN:70,_ZN7cvflann7anyimpl16small_any_policyIPKcE5cloneEPKPvPS5_
FN:70,_ZN7cvflann7anyimpl16small_any_policyIjE5cloneEPKPvPS3_
FN:70,_ZN7cvflann7anyimpl16small_any_policyIfE5cloneEPKPvPS3_
FN:71,_ZN7cvflann7anyimpl16small_any_policyIiE4moveEPKPvPS3_
FN:71,_ZN7cvflann7anyimpl16small_any_policyIfE4moveEPKPvPS3_
FN:71,_ZN7cvflann7anyimpl16small_any_policyIPKcE4moveEPKPvPS5_
FN:71,_ZN7cvflann7anyimpl16small_any_policyIjE4moveEPKPvPS3_
FN:71,_ZN7cvflann7anyimpl16small_any_policyIbE4moveEPKPvPS3_
FN:72,_ZN7cvflann7anyimpl16small_any_policyIPKcE9get_valueEPPv
FN:72,_ZN7cvflann7anyimpl16small_any_policyIbE9get_valueEPPv
FN:72,_ZN7cvflann7anyimpl16small_any_policyIiE9get_valueEPPv
FN:72,_ZN7cvflann7anyimpl16small_any_policyIjE9get_valueEPPv
FN:72,_ZN7cvflann7anyimpl16small_any_policyIfE9get_valueEPPv
FN:73,_ZN7cvflann7anyimpl16small_any_policyIiE9get_valueEPKPv
FN:73,_ZN7cvflann7anyimpl16small_any_policyIPKcE9get_valueEPKPv
FN:73,_ZN7cvflann7anyimpl16small_any_policyIjE9get_valueEPKPv
FN:73,_ZN7cvflann7anyimpl16small_any_policyIbE9get_valueEPKPv
FN:73,_ZN7cvflann7anyimpl16small_any_policyIfE9get_valueEPKPv
FN:74,_ZN7cvflann7anyimpl16small_any_policyIiE5printERSoPKPv
FN:74,_ZN7cvflann7anyimpl16small_any_policyIfE5printERSoPKPv
FN:74,_ZN7cvflann7anyimpl16small_any_policyIjE5printERSoPKPv
FN:74,_ZN7cvflann7anyimpl16small_any_policyIPKcE5printERSoPKPv
FN:74,_ZN7cvflann7anyimpl16small_any_policyIbE5printERSoPKPv
FN:78,_ZN7cvflann7anyimpl14big_any_policyINS_20flann_centers_init_tEED0Ev
FN:78,_ZN7cvflann7anyimpl14big_any_policyIN2cv6StringEED0Ev
FN:78,_ZN7cvflann7anyimpl14big_any_policyINS_20flann_centers_init_tEED2Ev
FN:78,_ZN7cvflann7anyimpl14big_any_policyINS0_9empty_anyEED0Ev
FN:78,_ZN7cvflann7anyimpl14big_any_policyINS_17flann_algorithm_tEED2Ev
FN:78,_ZN7cvflann7anyimpl14big_any_policyINS0_9empty_anyEED2Ev
FN:78,_ZN7cvflann7anyimpl14big_any_policyINS_17flann_algorithm_tEED0Ev
FN:78,_ZN7cvflann7anyimpl14big_any_policyIN2cv6StringEED2Ev
FN:80,_ZN7cvflann7anyimpl14big_any_policyIN2cv6StringEE13static_deleteEPPv
FN:80,_ZN7cvflann7anyimpl14big_any_policyINS_17flann_algorithm_tEE13static_deleteEPPv
FN:80,_ZN7cvflann7anyimpl14big_any_policyINS0_9empty_anyEE13static_deleteEPPv
FN:80,_ZN7cvflann7anyimpl14big_any_policyINS_20flann_centers_init_tEE13static_deleteEPPv
FN:85,_ZN7cvflann7anyimpl14big_any_policyINS_17flann_algorithm_tEE15copy_from_valueEPKvPPv
FN:85,_ZN7cvflann7anyimpl14big_any_policyINS_20flann_centers_init_tEE15copy_from_valueEPKvPPv
FN:85,_ZN7cvflann7anyimpl14big_any_policyINS0_9empty_anyEE15copy_from_valueEPKvPPv
FN:85,_ZN7cvflann7anyimpl14big_any_policyIN2cv6StringEE15copy_from_valueEPKvPPv
FN:89,_ZN7cvflann7anyimpl14big_any_policyINS_17flann_algorithm_tEE5cloneEPKPvPS4_
FN:89,_ZN7cvflann7anyimpl14big_any_policyINS_20flann_centers_init_tEE5cloneEPKPvPS4_
FN:89,_ZN7cvflann7anyimpl14big_any_policyIN2cv6StringEE5cloneEPKPvPS5_
FN:89,_ZN7cvflann7anyimpl14big_any_policyINS0_9empty_anyEE5cloneEPKPvPS4_
FN:93,_ZN7cvflann7anyimpl14big_any_policyINS0_9empty_anyEE4moveEPKPvPS4_
FN:93,_ZN7cvflann7anyimpl14big_any_policyINS_20flann_centers_init_tEE4moveEPKPvPS4_
FN:93,_ZN7cvflann7anyimpl14big_any_policyIN2cv6StringEE4moveEPKPvPS5_
FN:93,_ZN7cvflann7anyimpl14big_any_policyINS_17flann_algorithm_tEE4moveEPKPvPS4_
FN:98,_ZN7cvflann7anyimpl14big_any_policyIN2cv6StringEE9get_valueEPPv
FN:98,_ZN7cvflann7anyimpl14big_any_policyINS_20flann_centers_init_tEE9get_valueEPPv
FN:98,_ZN7cvflann7anyimpl14big_any_policyINS0_9empty_anyEE9get_valueEPPv
FN:98,_ZN7cvflann7anyimpl14big_any_policyINS_17flann_algorithm_tEE9get_valueEPPv
FN:99,_ZN7cvflann7anyimpl14big_any_policyIN2cv6StringEE9get_valueEPKPv
FN:99,_ZN7cvflann7anyimpl14big_any_policyINS_17flann_algorithm_tEE9get_valueEPKPv
FN:99,_ZN7cvflann7anyimpl14big_any_policyINS0_9empty_anyEE9get_valueEPKPv
FN:99,_ZN7cvflann7anyimpl14big_any_policyINS_20flann_centers_init_tEE9get_valueEPKPv
FN:100,_ZN7cvflann7anyimpl14big_any_policyINS0_9empty_anyEE5printERSoPKPv
FN:103,_ZN7cvflann7anyimpl14big_any_policyINS_20flann_centers_init_tEE5printERSoPKPv
FN:108,_ZN7cvflann7anyimpl14big_any_policyINS_17flann_algorithm_tEE5printERSoPKPv
FN:113,_ZN7cvflann7anyimpl14big_any_policyIN2cv6StringEE5printERSoPKPv
FNDA:0,_ZN7cvflann7anyimpllsERSoRKNS0_9empty_anyE
FNDA:0,_ZN7cvflann7anyimpl15base_any_policyD0Ev
FNDA:0,_ZN7cvflann7anyimpl15base_any_policyD2Ev
FNDA:0,_ZN7cvflann7anyimpl21typed_base_any_policyIN2cv6StringEED0Ev
FNDA:0,_ZN7cvflann7anyimpl21typed_base_any_policyIN2cv6StringEED2Ev
FNDA:0,_ZN7cvflann7anyimpl21typed_base_any_policyIjED0Ev
FNDA:0,_ZN7cvflann7anyimpl21typed_base_any_policyIjED2Ev
FNDA:0,_ZN7cvflann7anyimpl21typed_base_any_policyINS_20flann_centers_init_tEED0Ev
FNDA:0,_ZN7cvflann7anyimpl21typed_base_any_policyINS_20flann_centers_init_tEED2Ev
FNDA:0,_ZN7cvflann7anyimpl21typed_base_any_policyINS_17flann_algorithm_tEED0Ev
FNDA:0,_ZN7cvflann7anyimpl21typed_base_any_policyINS_17flann_algorithm_tEED2Ev
FNDA:0,_ZN7cvflann7anyimpl21typed_base_any_policyIbED0Ev
FNDA:0,_ZN7cvflann7anyimpl21typed_base_any_policyIbED2Ev
FNDA:0,_ZN7cvflann7anyimpl21typed_base_any_policyIfED0Ev
FNDA:0,_ZN7cvflann7anyimpl21typed_base_any_policyIfED2Ev
FNDA:0,_ZN7cvflann7anyimpl21typed_base_any_policyIiED0Ev
FNDA:0,_ZN7cvflann7anyimpl21typed_base_any_policyIiED2Ev
FNDA:0,_ZN7cvflann7anyimpl21typed_base_any_policyIPKcED0Ev
FNDA:0,_ZN7cvflann7anyimpl21typed_base_any_policyIPKcED2Ev
FNDA:0,_ZN7cvflann7anyimpl21typed_base_any_policyINS0_9empty_anyEED0Ev
FNDA:0,_ZN7cvflann7anyimpl21typed_base_any_policyINS0_9empty_anyEED2Ev
FNDA:0,_ZN7cvflann7anyimpl21typed_base_any_policyINS_20flann_centers_init_tEE8get_sizeEv
FNDA:0,_ZN7cvflann7anyimpl21typed_base_any_policyINS_17flann_algorithm_tEE8get_sizeEv
FNDA:0,_ZN7cvflann7anyimpl21typed_base_any_policyIN2cv6StringEE8get_sizeEv
FNDA:0,_ZN7cvflann7anyimpl21typed_base_any_policyINS0_9empty_anyEE8get_sizeEv
FNDA:0,_ZN7cvflann7anyimpl21typed_base_any_policyIPKcE8get_sizeEv
FNDA:0,_ZN7cvflann7anyimpl21typed_base_any_policyIiE8get_sizeEv
FNDA:0,_ZN7cvflann7anyimpl21typed_base_any_policyIfE8get_sizeEv
FNDA:0,_ZN7cvflann7anyimpl21typed_base_any_policyIbE8get_sizeEv
FNDA:0,_ZN7cvflann7anyimpl21typed_base_any_policyIjE8get_sizeEv
FNDA:0,_ZN7cvflann7anyimpl21typed_base_any_policyINS_20flann_centers_init_tEE4typeEv
FNDA:0,_ZN7cvflann7anyimpl21typed_base_any_policyINS_17flann_algorithm_tEE4typeEv
FNDA:0,_ZN7cvflann7anyimpl21typed_base_any_policyIN2cv6StringEE4typeEv
FNDA:0,_ZN7cvflann7anyimpl21typed_base_any_policyINS0_9empty_anyEE4typeEv
FNDA:0,_ZN7cvflann7anyimpl21typed_base_any_policyIPKcE4typeEv
FNDA:0,_ZN7cvflann7anyimpl21typed_base_any_policyIiE4typeEv
FNDA:0,_ZN7cvflann7anyimpl21typed_base_any_policyIfE4typeEv
FNDA:0,_ZN7cvflann7anyimpl21typed_base_any_policyIbE4typeEv
FNDA:0,_ZN7cvflann7anyimpl21typed_base_any_policyIjE4typeEv
FNDA:0,_ZN7cvflann7anyimpl16small_any_policyIjED0Ev
FNDA:0,_ZN7cvflann7anyimpl16small_any_policyIjED2Ev
FNDA:0,_ZN7cvflann7anyimpl16small_any_policyIbED0Ev
FNDA:0,_ZN7cvflann7anyimpl16small_any_policyIbED2Ev
FNDA:0,_ZN7cvflann7anyimpl16small_any_policyIfED0Ev
FNDA:0,_ZN7cvflann7anyimpl16small_any_policyIfED2Ev
FNDA:0,_ZN7cvflann7anyimpl16small_any_policyIiED0Ev
FNDA:0,_ZN7cvflann7anyimpl16small_any_policyIiED2Ev
FNDA:0,_ZN7cvflann7anyimpl16small_any_policyIPKcED0Ev
FNDA:0,_ZN7cvflann7anyimpl16small_any_policyIPKcED2Ev
FNDA:0,_ZN7cvflann7anyimpl16small_any_policyIPKcE13static_deleteEPPv
FNDA:0,_ZN7cvflann7anyimpl16small_any_policyIiE13static_deleteEPPv
FNDA:0,_ZN7cvflann7anyimpl16small_any_policyIfE13static_deleteEPPv
FNDA:0,_ZN7cvflann7anyimpl16small_any_policyIbE13static_deleteEPPv
FNDA:0,_ZN7cvflann7anyimpl16small_any_policyIjE13static_deleteEPPv
FNDA:0,_ZN7cvflann7anyimpl16small_any_policyIPKcE15copy_from_valueEPKvPPv
FNDA:0,_ZN7cvflann7anyimpl16small_any_policyIiE15copy_from_valueEPKvPPv
FNDA:0,_ZN7cvflann7anyimpl16small_any_policyIfE15copy_from_valueEPKvPPv
FNDA:0,_ZN7cvflann7anyimpl16small_any_policyIbE15copy_from_valueEPKvPPv
FNDA:0,_ZN7cvflann7anyimpl16small_any_policyIjE15copy_from_valueEPKvPPv
FNDA:0,_ZN7cvflann7anyimpl16small_any_policyIPKcE5cloneEPKPvPS5_
FNDA:0,_ZN7cvflann7anyimpl16small_any_policyIiE5cloneEPKPvPS3_
FNDA:0,_ZN7cvflann7anyimpl16small_any_policyIfE5cloneEPKPvPS3_
FNDA:0,_ZN7cvflann7anyimpl16small_any_policyIbE5cloneEPKPvPS3_
FNDA:0,_ZN7cvflann7anyimpl16small_any_policyIjE5cloneEPKPvPS3_
FNDA:0,_ZN7cvflann7anyimpl16small_any_policyIPKcE4moveEPKPvPS5_
FNDA:0,_ZN7cvflann7anyimpl16small_any_policyIiE4moveEPKPvPS3_
FNDA:0,_ZN7cvflann7anyimpl16small_any_policyIfE4moveEPKPvPS3_
FNDA:0,_ZN7cvflann7anyimpl16small_any_policyIbE4moveEPKPvPS3_
FNDA:0,_ZN7cvflann7anyimpl16small_any_policyIjE4moveEPKPvPS3_
FNDA:0,_ZN7cvflann7anyimpl16small_any_policyIPKcE9get_valueEPPv
FNDA:0,_ZN7cvflann7anyimpl16small_any_policyIiE9get_valueEPPv
FNDA:0,_ZN7cvflann7anyimpl16small_any_policyIfE9get_valueEPPv
FNDA:0,_ZN7cvflann7anyimpl16small_any_policyIbE9get_valueEPPv
FNDA:0,_ZN7cvflann7anyimpl16small_any_policyIjE9get_valueEPPv
FNDA:0,_ZN7cvflann7anyimpl16small_any_policyIPKcE9get_valueEPKPv
FNDA:0,_ZN7cvflann7anyimpl16small_any_policyIiE9get_valueEPKPv
FNDA:0,_ZN7cvflann7anyimpl16small_any_policyIfE9get_valueEPKPv
FNDA:0,_ZN7cvflann7anyimpl16small_any_policyIbE9get_valueEPKPv
FNDA:0,_ZN7cvflann7anyimpl16small_any_policyIjE9get_valueEPKPv
FNDA:0,_ZN7cvflann7anyimpl16small_any_policyIPKcE5printERSoPKPv
FNDA:0,_ZN7cvflann7anyimpl16small_any_policyIiE5printERSoPKPv
FNDA:0,_ZN7cvflann7anyimpl16small_any_policyIfE5printERSoPKPv
FNDA:0,_ZN7cvflann7anyimpl16small_any_policyIbE5printERSoPKPv
FNDA:0,_ZN7cvflann7anyimpl16small_any_policyIjE5printERSoPKPv
FNDA:0,_ZN7cvflann7anyimpl14big_any_policyIN2cv6StringEED0Ev
FNDA:0,_ZN7cvflann7anyimpl14big_any_policyIN2cv6StringEED2Ev
FNDA:0,_ZN7cvflann7anyimpl14big_any_policyINS_20flann_centers_init_tEED0Ev
FNDA:0,_ZN7cvflann7anyimpl14big_any_policyINS_20flann_centers_init_tEED2Ev
FNDA:0,_ZN7cvflann7anyimpl14big_any_policyINS_17flann_algorithm_tEED0Ev
FNDA:0,_ZN7cvflann7anyimpl14big_any_policyINS_17flann_algorithm_tEED2Ev
FNDA:0,_ZN7cvflann7anyimpl14big_any_policyINS0_9empty_anyEED0Ev
FNDA:0,_ZN7cvflann7anyimpl14big_any_policyINS0_9empty_anyEED2Ev
FNDA:0,_ZN7cvflann7anyimpl14big_any_policyINS_20flann_centers_init_tEE13static_deleteEPPv
FNDA:0,_ZN7cvflann7anyimpl14big_any_policyINS_17flann_algorithm_tEE13static_deleteEPPv
FNDA:0,_ZN7cvflann7anyimpl14big_any_policyIN2cv6StringEE13static_deleteEPPv
FNDA:0,_ZN7cvflann7anyimpl14big_any_policyINS0_9empty_anyEE13static_deleteEPPv
FNDA:0,_ZN7cvflann7anyimpl14big_any_policyINS_20flann_centers_init_tEE15copy_from_valueEPKvPPv
FNDA:0,_ZN7cvflann7anyimpl14big_any_policyINS_17flann_algorithm_tEE15copy_from_valueEPKvPPv
FNDA:0,_ZN7cvflann7anyimpl14big_any_policyIN2cv6StringEE15copy_from_valueEPKvPPv
FNDA:0,_ZN7cvflann7anyimpl14big_any_policyINS0_9empty_anyEE15copy_from_valueEPKvPPv
FNDA:0,_ZN7cvflann7anyimpl14big_any_policyINS_20flann_centers_init_tEE5cloneEPKPvPS4_
FNDA:0,_ZN7cvflann7anyimpl14big_any_policyINS_17flann_algorithm_tEE5cloneEPKPvPS4_
FNDA:0,_ZN7cvflann7anyimpl14big_any_policyIN2cv6StringEE5cloneEPKPvPS5_
FNDA:0,_ZN7cvflann7anyimpl14big_any_policyINS0_9empty_anyEE5cloneEPKPvPS4_
FNDA:0,_ZN7cvflann7anyimpl14big_any_policyINS_20flann_centers_init_tEE4moveEPKPvPS4_
FNDA:0,_ZN7cvflann7anyimpl14big_any_policyINS_17flann_algorithm_tEE4moveEPKPvPS4_
FNDA:0,_ZN7cvflann7anyimpl14big_any_policyIN2cv6StringEE4moveEPKPvPS5_
FNDA:0,_ZN7cvflann7anyimpl14big_any_policyINS0_9empty_anyEE4moveEPKPvPS4_
FNDA:0,_ZN7cvflann7anyimpl14big_any_policyINS_20flann_centers_init_tEE9get_valueEPPv
FNDA:0,_ZN7cvflann7anyimpl14big_any_policyINS_17flann_algorithm_tEE9get_valueEPPv
FNDA:0,_ZN7cvflann7anyimpl14big_any_policyIN2cv6StringEE9get_valueEPPv
FNDA:0,_ZN7cvflann7anyimpl14big_any_policyINS0_9empty_anyEE9get_valueEPPv
FNDA:0,_ZN7cvflann7anyimpl14big_any_policyINS_20flann_centers_init_tEE9get_valueEPKPv
FNDA:0,_ZN7cvflann7anyimpl14big_any_policyINS_17flann_algorithm_tEE9get_valueEPKPv
FNDA:0,_ZN7cvflann7anyimpl14big_any_policyIN2cv6StringEE9get_valueEPKPv
FNDA:0,_ZN7cvflann7anyimpl14big_any_policyINS0_9empty_anyEE9get_valueEPKPv
FNDA:0,_ZN7cvflann7anyimpl14big_any_policyINS0_9empty_anyEE5printERSoPKPv
FNDA:0,_ZN7cvflann7anyimpl14big_any_policyINS_20flann_centers_init_tEE5printERSoPKPv
FNDA:0,_ZN7cvflann7anyimpl14big_any_policyINS_17flann_algorithm_tEE5printERSoPKPv
FNDA:0,_ZN7cvflann7anyimpl14big_any_policyIN2cv6StringEE5printERSoPKPv
FNF:120
FNH:0
DA:34,0
DA:36,0
DA:37,0
DA:51,0
DA:55,0
DA:57,0
DA:58,0
DA:63,0
DA:65,0
DA:66,0
DA:68,0
DA:69,0
DA:70,0
DA:71,0
DA:72,0
DA:73,0
DA:74,0
DA:78,0
DA:80,0
DA:82,0
DA:83,0
DA:84,0
DA:85,0
DA:87,0
DA:88,0
DA:89,0
DA:91,0
DA:92,0
DA:93,0
DA:95,0
DA:96,0
DA:97,0
DA:98,0
DA:99,0
DA:100,0
DA:103,0
DA:105,0
DA:106,0
DA:108,0
DA:110,0
DA:111,0
DA:113,0
DA:115,0
DA:116,0
DA:174,1
LF:45
LH:1
end_of_record
SF:/opt/ros/kinetic/include/ros/time.h
FN:135,_ZN3ros8TimeBaseINS_4TimeENS_8DurationEEC2Ev
FN:183,_ZN3ros4TimeC2Ev
FNDA:0,_ZN3ros8TimeBaseINS_4TimeENS_8DurationEEC2Ev
FNDA:0,_ZN3ros4TimeC2Ev
FNF:2
FNH:0
DA:135,0
DA:183,0
DA:184,0
DA:185,0
LF:4
LH:0
end_of_record
SF:/opt/ros/kinetic/include/sensor_msgs/image_encodings.h
FN:104,__tcf_0
FNDA:1,__tcf_0
FNF:1
FNH:1
DA:47,1
DA:48,1
DA:49,1
DA:50,1
DA:51,1
DA:52,1
DA:53,1
DA:54,1
DA:55,1
DA:56,1
DA:59,1
DA:60,1
DA:61,1
DA:62,1
DA:63,1
DA:64,1
DA:65,1
DA:66,1
DA:67,1
DA:68,1
DA:69,1
DA:70,1
DA:71,1
DA:72,1
DA:73,1
DA:74,1
DA:75,1
DA:76,1
DA:77,1
DA:78,1
DA:79,1
DA:80,1
DA:81,1
DA:82,1
DA:83,1
DA:84,1
DA:85,1
DA:86,1
DA:89,1
DA:90,1
DA:91,1
DA:92,1
DA:93,1
DA:94,1
DA:95,1
DA:96,1
DA:101,1
DA:104,2
DA:105,1
LF:49
LH:49
end_of_record
SF:/opt/ros/kinetic/include/std_msgs/Header.h
FN:22,_ZN8std_msgs7Header_ISaIvEEC2ERKS2_
FN:22,_ZN8std_msgs7Header_ISaIvEED2Ev
FN:26,_ZN8std_msgs7Header_ISaIvEEC2Ev
FNDA:0,_ZN8std_msgs7Header_ISaIvEEC2ERKS2_
FNDA:0,_ZN8std_msgs7Header_ISaIvEED2Ev
FNDA:0,_ZN8std_msgs7Header_ISaIvEEC2Ev
FNF:3
FNH:0
DA:22,0
DA:26,0
DA:29,0
DA:30,0
LF:4
LH:0
end_of_record
SF:/usr/include/boost/bind/arg.hpp
FN:31,_ZN5boost3argILi9EEC2Ev
FN:31,_ZN5boost3argILi6EEC2Ev
FN:31,_ZN5boost3argILi5EEC2Ev
FN:31,_ZN5boost3argILi1EEC2Ev
FN:31,_ZN5boost3argILi8EEC2Ev
FN:31,_ZN5boost3argILi4EEC2Ev
FN:31,_ZN5boost3argILi3EEC2Ev
FN:31,_ZN5boost3argILi7EEC2Ev
FN:31,_ZN5boost3argILi2EEC2Ev
FNDA:0,_ZN5boost3argILi9EEC2Ev
FNDA:0,_ZN5boost3argILi8EEC2Ev
FNDA:0,_ZN5boost3argILi7EEC2Ev
FNDA:0,_ZN5boost3argILi6EEC2Ev
FNDA:0,_ZN5boost3argILi5EEC2Ev
FNDA:0,_ZN5boost3argILi4EEC2Ev
FNDA:0,_ZN5boost3argILi3EEC2Ev
FNDA:0,_ZN5boost3argILi2EEC2Ev
FNDA:0,_ZN5boost3argILi1EEC2Ev
FNF:9
FNH:0
DA:31,0
DA:33,0
LF:2
LH:0
end_of_record
SF:/usr/include/boost/bind/placeholders.hpp
DA:55,1
DA:56,1
DA:57,1
DA:58,1
DA:59,1
DA:60,1
DA:61,1
DA:62,1
DA:63,1
LF:9
LH:9
end_of_record
SF:/usr/include/boost/smart_ptr/detail/shared_count.hpp
FN:114,_ZN5boost6detail12shared_countC2Ev
FN:441,_ZN5boost6detail12shared_countD2Ev
FN:449,_ZN5boost6detail12shared_countC2ERKS1_
FNDA:0,_ZN5boost6detail12shared_countC2Ev
FNDA:0,_ZN5boost6detail12shared_countD2Ev
FNDA:0,_ZN5boost6detail12shared_countC2ERKS1_
FNF:3
FNH:0
DA:114,0
DA:119,0
DA:441,0
DA:442,0
DA:443,0
DA:447,0
DA:449,0
DA:454,0
DA:455,0
LF:9
LH:0
end_of_record
SF:/usr/include/boost/smart_ptr/detail/sp_counted_base_gcc_x86.hpp
FN:35,_ZN5boost6detail23atomic_exchange_and_addEPii
FN:55,_ZN5boost6detail16atomic_incrementEPi
FN:132,_ZN5boost6detail15sp_counted_base12add_ref_copyEv
FN:142,_ZN5boost6detail15sp_counted_base7releaseEv
FN:156,_ZN5boost6detail15sp_counted_base12weak_releaseEv
FNDA:0,_ZN5boost6detail23atomic_exchange_and_addEPii
FNDA:0,_ZN5boost6detail16atomic_incrementEPi
FNDA:0,_ZN5boost6detail15sp_counted_base12add_ref_copyEv
FNDA:0,_ZN5boost6detail15sp_counted_base7releaseEv
FNDA:0,_ZN5boost6detail15sp_counted_base12weak_releaseEv
FNF:5
FNH:0
DA:35,0
DA:50,0
DA:52,0
DA:55,0
DA:66,0
DA:67,0
DA:132,0
DA:134,0
DA:135,0
DA:142,0
DA:144,0
DA:146,0
DA:147,0
DA:149,0
DA:156,0
DA:158,0
DA:160,0
DA:162,0
LF:18
LH:0
end_of_record
SF:/usr/include/boost/smart_ptr/shared_ptr.hpp
FN:251,_ZN5boost6detail21sp_assert_convertibleIN11sensor_msgs6Image_ISaIvEEEKS5_EEvv
FN:323,_ZN5boost10shared_ptrIKvED2Ev
FN:323,_ZN5boost10shared_ptrIN11sensor_msgs6Image_ISaIvEEEED2Ev
FN:323,_ZN5boost10shared_ptrIKN11sensor_msgs6Image_ISaIvEEEED2Ev
FN:334,_ZN5boost10shared_ptrIKvEC2Ev
FN:420,_ZN5boost10shared_ptrIKN11sensor_msgs6Image_ISaIvEEEEC2IS4_EERKNS0_IT_EENS_6detail24sp_enable_if_convertibleIS8_S5_E4typeE
FNDA:0,_ZN5boost6detail21sp_assert_convertibleIN11sensor_msgs6Image_ISaIvEEEKS5_EEvv
FNDA:0,_ZN5boost10shared_ptrIKN11sensor_msgs6Image_ISaIvEEEED2Ev
FNDA:0,_ZN5boost10shared_ptrIN11sensor_msgs6Image_ISaIvEEEED2Ev
FNDA:0,_ZN5boost10shared_ptrIKvED2Ev
FNDA:0,_ZN5boost10shared_ptrIKvEC2Ev
FNDA:0,_ZN5boost10shared_ptrIKN11sensor_msgs6Image_ISaIvEEEEC2IS4_EERKNS0_IT_EENS_6detail24sp_enable_if_convertibleIS8_S5_E4typeE
FNF:6
FNH:0
DA:251,0
DA:265,0
DA:323,0
DA:334,0
DA:336,0
DA:420,0
DA:427,0
DA:429,0
DA:430,0
LF:9
LH:0
end_of_record
SF:/usr/include/c++/5/bits/alloc_traits.h
FN:516,_ZNSt16allocator_traitsISaISt13_Rb_tree_nodeISt4pairIKNSt7__cxx1112basic_stringIcSt11char_traitsIcESaIcEEES7_EEEE10deallocateERSB_PSA_m
FN:541,_ZNSt16allocator_traitsISaISt13_Rb_tree_nodeISt4pairIKNSt7__cxx1112basic_stringIcSt11char_traitsIcESaIcEEES7_EEEE7destroyIS9_EEvRSB_PT_
FNDA:0,_ZNSt16allocator_traitsISaISt13_Rb_tree_nodeISt4pairIKNSt7__cxx1112basic_stringIcSt11char_traitsIcESaIcEEES7_EEEE10deallocateERSB_PSA_m
FNDA:0,_ZNSt16allocator_traitsISaISt13_Rb_tree_nodeISt4pairIKNSt7__cxx1112basic_stringIcSt11char_traitsIcESaIcEEES7_EEEE7destroyIS9_EEvRSB_PT_
FNF:2
FNH:0
DA:516,0
DA:517,0
DA:541,0
DA:542,0
LF:4
LH:0
end_of_record
SF:/usr/include/c++/5/bits/allocator.h
FN:113,_ZNSaISt13_Rb_tree_nodeISt4pairIKNSt7__cxx1112basic_stringIcSt11char_traitsIcESaIcEEES6_EEEC2Ev
FN:121,_ZNSaISt13_Rb_tree_nodeISt4pairIKNSt7__cxx1112basic_stringIcSt11char_traitsIcESaIcEEES6_EEED2Ev
FNDA:0,_ZNSaISt13_Rb_tree_nodeISt4pairIKNSt7__cxx1112basic_stringIcSt11char_traitsIcESaIcEEES6_EEEC2Ev
FNDA:0,_ZNSaISt13_Rb_tree_nodeISt4pairIKNSt7__cxx1112basic_stringIcSt11char_traitsIcESaIcEEES6_EEED2Ev
FNF:2
FNH:0
DA:113,0
DA:121,0
LF:2
LH:0
end_of_record
SF:/usr/include/c++/5/bits/ios_base.h
FN:129,_ZStorSt13_Ios_OpenmodeS_
FNDA:0,_ZStorSt13_Ios_OpenmodeS_
FNF:1
FNH:0
DA:129,0
DA:130,0
LF:2
LH:0
end_of_record
SF:/usr/include/c++/5/bits/stl_map.h
FN:96,_ZNSt3mapINSt7__cxx1112basic_stringIcSt11char_traitsIcESaIcEEES5_St4lessIS5_ESaISt4pairIKS5_S5_EEED2Ev
FN:162,_ZNSt3mapINSt7__cxx1112basic_stringIcSt11char_traitsIcESaIcEEES5_St4lessIS5_ESaISt4pairIKS5_S5_EEEC2Ev
FNDA:0,_ZNSt3mapINSt7__cxx1112basic_stringIcSt11char_traitsIcESaIcEEES5_St4lessIS5_ESaISt4pairIKS5_S5_EEED2Ev
FNDA:0,_ZNSt3mapINSt7__cxx1112basic_stringIcSt11char_traitsIcESaIcEEES5_St4lessIS5_ESaISt4pairIKS5_S5_EEEC2Ev
FNF:2
FNH:0
DA:96,0
DA:162,0
DA:166,0
LF:3
LH:0
end_of_record
SF:/usr/include/c++/5/bits/stl_pair.h
FN:96,_ZNSt4pairIKNSt7__cxx1112basic_stringIcSt11char_traitsIcESaIcEEES5_ED2Ev
FNDA:0,_ZNSt4pairIKNSt7__cxx1112basic_stringIcSt11char_traitsIcESaIcEEES5_ED2Ev
FNF:1
FNH:0
DA:96,0
LF:1
LH:0
end_of_record
SF:/usr/include/c++/5/bits/stl_tree.h
FN:152,_ZNSt13_Rb_tree_nodeISt4pairIKNSt7__cxx1112basic_stringIcSt11char_traitsIcESaIcEEES6_EE9_M_valptrEv
FN:477,_ZNSt8_Rb_treeINSt7__cxx1112basic_stringIcSt11char_traitsIcESaIcEEESt4pairIKS5_S5_ESt10_Select1stIS8_ESt4lessIS5_ESaIS8_EE21_M_get_Node_allocatorEv
FN:494,_ZNSt8_Rb_treeINSt7__cxx1112basic_stringIcSt11char_traitsIcESaIcEEESt4pairIKS5_S5_ESt10_Select1stIS8_ESt4lessIS5_ESaIS8_EE11_M_put_nodeEPSt13_Rb_tree_nodeIS8_E
FN:551,_ZNSt8_Rb_treeINSt7__cxx1112basic_stringIcSt11char_traitsIcESaIcEEESt4pairIKS5_S5_ESt10_Select1stIS8_ESt4lessIS5_ESaIS8_EE15_M_destroy_nodeEPSt13_Rb_tree_nodeIS8_E
FN:559,_ZNSt8_Rb_treeINSt7__cxx1112basic_stringIcSt11char_traitsIcESaIcEEESt4pairIKS5_S5_ESt10_Select1stIS8_ESt4lessIS5_ESaIS8_EE12_M_drop_nodeEPSt13_Rb_tree_nodeIS8_E
FN:580,_ZNSt8_Rb_treeINSt7__cxx1112basic_stringIcSt11char_traitsIcESaIcEEESt4pairIKS5_S5_ESt10_Select1stIS8_ESt4lessIS5_ESaIS8_EE13_Rb_tree_implISC_Lb1EED2Ev
FN:586,_ZNSt8_Rb_treeINSt7__cxx1112basic_stringIcSt11char_traitsIcESaIcEEESt4pairIKS5_S5_ESt10_Select1stIS8_ESt4lessIS5_ESaIS8_EE13_Rb_tree_implISC_Lb1EEC2Ev
FN:614,_ZNSt8_Rb_treeINSt7__cxx1112basic_stringIcSt11char_traitsIcESaIcEEESt4pairIKS5_S5_ESt10_Select1stIS8_ESt4lessIS5_ESaIS8_EE13_Rb_tree_implISC_Lb1EE13_M_initializeEv
FN:651,_ZNSt8_Rb_treeINSt7__cxx1112basic_stringIcSt11char_traitsIcESaIcEEESt4pairIKS5_S5_ESt10_Select1stIS8_ESt4lessIS5_ESaIS8_EE8_M_beginEv
FN:678,_ZNSt8_Rb_treeINSt7__cxx1112basic_stringIcSt11char_traitsIcESaIcEEESt4pairIKS5_S5_ESt10_Select1stIS8_ESt4lessIS5_ESaIS8_EE7_S_leftEPSt18_Rb_tree_node_base
FN:686,_ZNSt8_Rb_treeINSt7__cxx1112basic_stringIcSt11char_traitsIcESaIcEEESt4pairIKS5_S5_ESt10_Select1stIS8_ESt4lessIS5_ESaIS8_EE8_S_rightEPSt18_Rb_tree_node_base
FN:807,_ZNSt8_Rb_treeINSt7__cxx1112basic_stringIcSt11char_traitsIcESaIcEEESt4pairIKS5_S5_ESt10_Select1stIS8_ESt4lessIS5_ESaIS8_EEC2Ev
FN:857,_ZNSt8_Rb_treeINSt7__cxx1112basic_stringIcSt11char_traitsIcESaIcEEESt4pairIKS5_S5_ESt10_Select1stIS8_ESt4lessIS5_ESaIS8_EED2Ev
FN:1606,_ZNSt8_Rb_treeINSt7__cxx1112basic_stringIcSt11char_traitsIcESaIcEEESt4pairIKS5_S5_ESt10_Select1stIS8_ESt4lessIS5_ESaIS8_EE8_M_eraseEPSt13_Rb_tree_nodeIS8_E
FNDA:0,_ZNSt13_Rb_tree_nodeISt4pairIKNSt7__cxx1112basic_stringIcSt11char_traitsIcESaIcEEES6_EE9_M_valptrEv
FNDA:0,_ZNSt8_Rb_treeINSt7__cxx1112basic_stringIcSt11char_traitsIcESaIcEEESt4pairIKS5_S5_ESt10_Select1stIS8_ESt4lessIS5_ESaIS8_EE21_M_get_Node_allocatorEv
FNDA:0,_ZNSt8_Rb_treeINSt7__cxx1112basic_stringIcSt11char_traitsIcESaIcEEESt4pairIKS5_S5_ESt10_Select1stIS8_ESt4lessIS5_ESaIS8_EE11_M_put_nodeEPSt13_Rb_tree_nodeIS8_E
FNDA:0,_ZNSt8_Rb_treeINSt7__cxx1112basic_stringIcSt11char_traitsIcESaIcEEESt4pairIKS5_S5_ESt10_Select1stIS8_ESt4lessIS5_ESaIS8_EE15_M_destroy_nodeEPSt13_Rb_tree_nodeIS8_E
FNDA:0,_ZNSt8_Rb_treeINSt7__cxx1112basic_stringIcSt11char_traitsIcESaIcEEESt4pairIKS5_S5_ESt10_Select1stIS8_ESt4lessIS5_ESaIS8_EE12_M_drop_nodeEPSt13_Rb_tree_nodeIS8_E
FNDA:0,_ZNSt8_Rb_treeINSt7__cxx1112basic_stringIcSt11char_traitsIcESaIcEEESt4pairIKS5_S5_ESt10_Select1stIS8_ESt4lessIS5_ESaIS8_EE13_Rb_tree_implISC_Lb1EED2Ev
FNDA:0,_ZNSt8_Rb_treeINSt7__cxx1112basic_stringIcSt11char_traitsIcESaIcEEESt4pairIKS5_S5_ESt10_Select1stIS8_ESt4lessIS5_ESaIS8_EE13_Rb_tree_implISC_Lb1EEC2Ev
FNDA:0,_ZNSt8_Rb_treeINSt7__cxx1112basic_stringIcSt11char_traitsIcESaIcEEESt4pairIKS5_S5_ESt10_Select1stIS8_ESt4lessIS5_ESaIS8_EE13_Rb_tree_implISC_Lb1EE13_M_initializeEv
FNDA:0,_ZNSt8_Rb_treeINSt7__cxx1112basic_stringIcSt11char_traitsIcESaIcEEESt4pairIKS5_S5_ESt10_Select1stIS8_ESt4lessIS5_ESaIS8_EE8_M_beginEv
FNDA:0,_ZNSt8_Rb_treeINSt7__cxx1112basic_stringIcSt11char_traitsIcESaIcEEESt4pairIKS5_S5_ESt10_Select1stIS8_ESt4lessIS5_ESaIS8_EE7_S_leftEPSt18_Rb_tree_node_base
FNDA:0,_ZNSt8_Rb_treeINSt7__cxx1112basic_stringIcSt11char_traitsIcESaIcEEESt4pairIKS5_S5_ESt10_Select1stIS8_ESt4lessIS5_ESaIS8_EE8_S_rightEPSt18_Rb_tree_node_base
FNDA:0,_ZNSt8_Rb_treeINSt7__cxx1112basic_stringIcSt11char_traitsIcESaIcEEESt4pairIKS5_S5_ESt10_Select1stIS8_ESt4lessIS5_ESaIS8_EEC2Ev
FNDA:0,_ZNSt8_Rb_treeINSt7__cxx1112basic_stringIcSt11char_traitsIcESaIcEEESt4pairIKS5_S5_ESt10_Select1stIS8_ESt4lessIS5_ESaIS8_EED2Ev
FNDA:0,_ZNSt8_Rb_treeINSt7__cxx1112basic_stringIcSt11char_traitsIcESaIcEEESt4pairIKS5_S5_ESt10_Select1stIS8_ESt4lessIS5_ESaIS8_EE8_M_eraseEPSt13_Rb_tree_nodeIS8_E
FNF:14
FNH:0
DA:152,0
DA:153,0
DA:477,0
DA:478,0
DA:494,0
DA:495,0
DA:551,0
DA:553,0
DA:555,0
DA:559,0
DA:561,0
DA:562,0
DA:563,0
DA:580,0
DA:586,0
DA:588,0
DA:589,0
DA:614,0
DA:616,0
DA:617,0
DA:618,0
DA:619,0
DA:620,0
DA:651,0
DA:652,0
DA:678,0
DA:679,0
DA:686,0
DA:687,0
DA:807,0
DA:857,0
DA:858,0
DA:1606,0
DA:1610,0
DA:1612,0
DA:1613,0
DA:1614,0
DA:1615,0
DA:1617,0
LF:39
LH:0
end_of_record
SF:/usr/include/c++/5/ext/aligned_buffer.h
FN:62,_ZN9__gnu_cxx16__aligned_membufISt4pairIKNSt7__cxx1112basic_stringIcSt11char_traitsIcESaIcEEES7_EE7_M_addrEv
FN:70,_ZN9__gnu_cxx16__aligned_membufISt4pairIKNSt7__cxx1112basic_stringIcSt11char_traitsIcESaIcEEES7_EE6_M_ptrEv
FNDA:0,_ZN9__gnu_cxx16__aligned_membufISt4pairIKNSt7__cxx1112basic_stringIcSt11char_traitsIcESaIcEEES7_EE7_M_addrEv
FNDA:0,_ZN9__gnu_cxx16__aligned_membufISt4pairIKNSt7__cxx1112basic_stringIcSt11char_traitsIcESaIcEEES7_EE6_M_ptrEv
FNF:2
FNH:0
DA:62,0
DA:63,0
DA:70,0
DA:71,0
LF:4
LH:0
end_of_record
SF:/usr/include/c++/5/ext/new_allocator.h
FN:79,_ZN9__gnu_cxx13new_allocatorISt13_Rb_tree_nodeISt4pairIKNSt7__cxx1112basic_stringIcSt11char_traitsIcESaIcEEES8_EEEC2Ev
FN:86,_ZN9__gnu_cxx13new_allocatorISt13_Rb_tree_nodeISt4pairIKNSt7__cxx1112basic_stringIcSt11char_traitsIcESaIcEEES8_EEED2Ev
FN:109,_ZN9__gnu_cxx13new_allocatorISt13_Rb_tree_nodeISt4pairIKNSt7__cxx1112basic_stringIcSt11char_traitsIcESaIcEEES8_EEE10deallocateEPSB_m
FN:124,_ZN9__gnu_cxx13new_allocatorISt13_Rb_tree_nodeISt4pairIKNSt7__cxx1112basic_stringIcSt11char_traitsIcESaIcEEES8_EEE7destroyISA_EEvPT_
FNDA:0,_ZN9__gnu_cxx13new_allocatorISt13_Rb_tree_nodeISt4pairIKNSt7__cxx1112basic_stringIcSt11char_traitsIcESaIcEEES8_EEEC2Ev
FNDA:0,_ZN9__gnu_cxx13new_allocatorISt13_Rb_tree_nodeISt4pairIKNSt7__cxx1112basic_stringIcSt11char_traitsIcESaIcEEES8_EEED2Ev
FNDA:0,_ZN9__gnu_cxx13new_allocatorISt13_Rb_tree_nodeISt4pairIKNSt7__cxx1112basic_stringIcSt11char_traitsIcESaIcEEES8_EEE10deallocateEPSB_m
FNDA:0,_ZN9__gnu_cxx13new_allocatorISt13_Rb_tree_nodeISt4pairIKNSt7__cxx1112basic_stringIcSt11char_traitsIcESaIcEEES8_EEE7destroyISA_EEvPT_
FNF:4
FNH:0
DA:79,0
DA:86,0
DA:109,0
DA:110,0
DA:124,0
LF:5
LH:0
end_of_record
SF:/usr/include/c++/5/iostream
DA:74,1
LF:1
LH:1
end_of_record
SF:/usr/include/c++/5/new
FN:129,_ZnwmPv
FNDA:0,_ZnwmPv
FNF:1
FNH:0
DA:129,0
DA:130,0
LF:2
LH:0
end_of_record
SF:/usr/include/gtest/gtest-message.h
FN:85,_ZN7testing7MessageD2Ev
FNDA:0,_ZN7testing7MessageD2Ev
FNF:1
FNH:0
DA:85,0
LF:1
LH:0
end_of_record
SF:/usr/include/gtest/gtest-printers.h
FN:218,_ZN16testing_internal26DefaultPrintNonContainerToIiEEvRKT_PSo
FN:335,_ZN7testing8internal14DefaultPrintToIiEEvcNS0_13bool_constantILb0EEERKT_PSo
FN:353,_ZN7testing8internal7PrintToIiEEvRKT_PSo
FN:591,_ZN7testing8internal16UniversalPrinterIiE5PrintERKiPSo
FN:683,_ZN7testing8internal21UniversalTersePrinterIiE5PrintERKiPSo
FN:752,_ZN7testing8internal14UniversalPrintIiEEvRKT_PSo
FN:847,_ZN7testing13PrintToStringIiEENSt7__cxx1112basic_stringIcSt11char_traitsIcESaIcEEERKT_
FNDA:0,_ZN16testing_internal26DefaultPrintNonContainerToIiEEvRKT_PSo
FNDA:0,_ZN7testing8internal14DefaultPrintToIiEEvcNS0_13bool_constantILb0EEERKT_PSo
FNDA:0,_ZN7testing8internal7PrintToIiEEvRKT_PSo
FNDA:0,_ZN7testing8internal16UniversalPrinterIiE5PrintERKiPSo
FNDA:0,_ZN7testing8internal21UniversalTersePrinterIiE5PrintERKiPSo
FNDA:0,_ZN7testing8internal14UniversalPrintIiEEvRKT_PSo
FNDA:0,_ZN7testing13PrintToStringIiEENSt7__cxx1112basic_stringIcSt11char_traitsIcESaIcEEERKT_
FNF:7
FNH:0
DA:218,0
DA:245,0
DA:246,0
DA:335,0
DA:338,0
DA:339,0
DA:353,0
DA:376,0
DA:377,0
DA:591,0
DA:600,0
DA:601,0
DA:683,0
DA:684,0
DA:685,0
DA:752,0
DA:756,0
DA:757,0
DA:847,0
DA:848,0
DA:849,0
DA:850,0
LF:22
LH:0
end_of_record
SF:/usr/include/gtest/gtest.h
FN:256,_ZN7testing15AssertionResultD2Ev
FN:265,_ZNK7testing15AssertionResultcvbEv
FN:274,_ZNK7testing15AssertionResult7messageEv
FN:279,_ZNK7testing15AssertionResult15failure_messageEv
FN:365,_ZN7testing4Test13SetUpTestCaseEv
FN:373,_ZN7testing4Test16TearDownTestCaseEv
FN:451,_ZN7testing4Test5SetupEv
FN:1357,_ZN7testing8internal19FormatForComparisonIiiE6FormatERKi
FN:1431,_ZN7testing8internal33FormatForComparisonFailureMessageIiiEENSt7__cxx1112basic_stringIcSt11char_traitsIcESaIcEEERKT_RKT0_
FN:1438,_ZN7testing8internal11CmpHelperEQIiiEENS_15AssertionResultEPKcS4_RKT_RKT0_
FN:1480,_ZN7testing8internal8EqHelperILb0EE7CompareIiiEENS_15AssertionResultEPKcS6_RKT_RKT0_
FNDA:0,_ZN7testing15AssertionResultD2Ev
FNDA:0,_ZNK7testing15AssertionResultcvbEv
FNDA:0,_ZNK7testing15AssertionResult7messageEv
FNDA:0,_ZNK7testing15AssertionResult15failure_messageEv
FNDA:0,_ZN7testing4Test13SetUpTestCaseEv
FNDA:0,_ZN7testing4Test16TearDownTestCaseEv
FNDA:0,_ZN7testing4Test5SetupEv
FNDA:0,_ZN7testing8internal19FormatForComparisonIiiE6FormatERKi
FNDA:0,_ZN7testing8internal33FormatForComparisonFailureMessageIiiEENSt7__cxx1112basic_stringIcSt11char_traitsIcESaIcEEERKT_RKT0_
FNDA:4,_ZN7testing8internal11CmpHelperEQIiiEENS_15AssertionResultEPKcS4_RKT_RKT0_
FNDA:4,_ZN7testing8internal8EqHelperILb0EE7CompareIiiEENS_15AssertionResultEPKcS6_RKT_RKT0_
FNF:11
FNH:2
DA:256,0
DA:265,0
DA:274,0
DA:275,0
DA:279,0
DA:365,0
DA:373,0
DA:451,0
DA:1357,0
DA:1358,0
DA:1431,0
DA:1433,0
DA:1438,4
DA:1448,4
DA:1449,4
DA:1460,0
DA:1480,4
DA:1485,4
LF:18
LH:5
end_of_record
SF:/usr/include/gtest/internal/gtest-internal.h
FN:436,_ZN7testing8internal15TestFactoryBaseD0Ev
FN:436,_ZN7testing8internal15TestFactoryBaseD2Ev
FN:443,_ZN7testing8internal15TestFactoryBaseC2Ev
FN:452,_ZN7testing8internal15TestFactoryImplI43TestdetectStopSign2_TestForSignCloseby_TestED2Ev
FN:452,_ZN7testing8internal15TestFactoryImplI39TestdetectSign1_TestForSignFarAway_TestED2Ev
FN:452,_ZN7testing8internal15TestFactoryImplI41TestImageConvert_TestimageConversion_TestED0Ev
FN:452,_ZN7testing8internal15TestFactoryImplI39TestdetectSign1_TestForSignFarAway_TestEC2Ev
FN:452,_ZN7testing8internal15TestFactoryImplI41TestSignDetect_Server_Existance_Test_TestEC2Ev
FN:452,_ZN7testing8internal15TestFactoryImplI43TestdetectStopSign2_TestForSignCloseby_TestED0Ev
FN:452,_ZN7testing8internal15TestFactoryImplI41TestSignDetect_Server_Existance_Test_TestED0Ev
FN:452,_ZN7testing8internal15TestFactoryImplI41TestImageConvert_TestimageConversion_TestED2Ev
FN:452,_ZN7testing8internal15TestFactoryImplI43TestdetectStopSign2_TestForSignCloseby_TestEC2Ev
FN:452,_ZN7testing8internal15TestFactoryImplI41TestImageConvert_TestimageConversion_TestEC2Ev
FN:452,_ZN7testing8internal15TestFactoryImplI39TestdetectSign1_TestForSignFarAway_TestED0Ev
FN:452,_ZN7testing8internal15TestFactoryImplI41TestSignDetect_Server_Existance_Test_TestED2Ev
FN:454,_ZN7testing8internal15TestFactoryImplI41TestSignDetect_Server_Existance_Test_TestE10CreateTestEv
FN:454,_ZN7testing8internal15TestFactoryImplI41TestImageConvert_TestimageConversion_TestE10CreateTestEv
FN:454,_ZN7testing8internal15TestFactoryImplI43TestdetectStopSign2_TestForSignCloseby_TestE10CreateTestEv
FN:454,_ZN7testing8internal15TestFactoryImplI39TestdetectSign1_TestForSignFarAway_TestE10CreateTestEv
FN:869,_ZN7testing8internal15IsContainerTestIiEEcl
FNDA:0,_ZN7testing8internal15TestFactoryBaseD0Ev
FNDA:0,_ZN7testing8internal15TestFactoryBaseD2Ev
FNDA:0,_ZN7testing8internal15TestFactoryBaseC2Ev
FNDA:1,_ZN7testing8internal15TestFactoryImplI41TestSignDetect_Server_Existance_Test_TestED0Ev
FNDA:1,_ZN7testing8internal15TestFactoryImplI41TestSignDetect_Server_Existance_Test_TestED2Ev
FNDA:1,_ZN7testing8internal15TestFactoryImplI41TestImageConvert_TestimageConversion_TestED0Ev
FNDA:1,_ZN7testing8internal15TestFactoryImplI41TestImageConvert_TestimageConversion_TestED2Ev
FNDA:1,_ZN7testing8internal15TestFactoryImplI39TestdetectSign1_TestForSignFarAway_TestED0Ev
FNDA:1,_ZN7testing8internal15TestFactoryImplI39TestdetectSign1_TestForSignFarAway_TestED2Ev
FNDA:1,_ZN7testing8internal15TestFactoryImplI43TestdetectStopSign2_TestForSignCloseby_TestED0Ev
FNDA:1,_ZN7testing8internal15TestFactoryImplI43TestdetectStopSign2_TestForSignCloseby_TestED2Ev
FNDA:1,_ZN7testing8internal15TestFactoryImplI43TestdetectStopSign2_TestForSignCloseby_TestEC2Ev
FNDA:1,_ZN7testing8internal15TestFactoryImplI39TestdetectSign1_TestForSignFarAway_TestEC2Ev
FNDA:1,_ZN7testing8internal15TestFactoryImplI41TestImageConvert_TestimageConversion_TestEC2Ev
FNDA:1,_ZN7testing8internal15TestFactoryImplI41TestSignDetect_Server_Existance_Test_TestEC2Ev
FNDA:1,_ZN7testing8internal15TestFactoryImplI41TestSignDetect_Server_Existance_Test_TestE10CreateTestEv
FNDA:1,_ZN7testing8internal15TestFactoryImplI41TestImageConvert_TestimageConversion_TestE10CreateTestEv
FNDA:1,_ZN7testing8internal15TestFactoryImplI39TestdetectSign1_TestForSignFarAway_TestE10CreateTestEv
FNDA:1,_ZN7testing8internal15TestFactoryImplI43TestdetectStopSign2_TestForSignCloseby_TestE10CreateTestEv
FNDA:0,_ZN7testing8internal15IsContainerTestIiEEcl
FNF:20
FNH:16
DA:436,0
DA:443,0
DA:452,12
DA:454,4
DA:869,0
LF:5
LH:2
end_of_record
SF:/usr/include/gtest/internal/gtest-port.h
FN:898,_ZN7testing8internal10scoped_ptrINSt7__cxx1118basic_stringstreamIcSt11char_traitsIcESaIcEEEED2Ev
FN:898,_ZN7testing8internal10scoped_ptrINSt7__cxx1112basic_stringIcSt11char_traitsIcESaIcEEEED2Ev
FN:901,_ZNK7testing8internal10scoped_ptrINSt7__cxx1112basic_stringIcSt11char_traitsIcESaIcEEEEptEv
FN:902,_ZNK7testing8internal10scoped_ptrINSt7__cxx1112basic_stringIcSt11char_traitsIcESaIcEEEE3getEv
FN:910,_ZN7testing8internal10scoped_ptrINSt7__cxx1112basic_stringIcSt11char_traitsIcESaIcEEEE5resetEPS7_
FN:910,_ZN7testing8internal10scoped_ptrINSt7__cxx1118basic_stringstreamIcSt11char_traitsIcESaIcEEEE5resetEPS7_
FNDA:0,_ZN7testing8internal10scoped_ptrINSt7__cxx1112basic_stringIcSt11char_traitsIcESaIcEEEED2Ev
FNDA:0,_ZN7testing8internal10scoped_ptrINSt7__cxx1118basic_stringstreamIcSt11char_traitsIcESaIcEEEED2Ev
FNDA:0,_ZNK7testing8internal10scoped_ptrINSt7__cxx1112basic_stringIcSt11char_traitsIcESaIcEEEEptEv
FNDA:0,_ZNK7testing8internal10scoped_ptrINSt7__cxx1112basic_stringIcSt11char_traitsIcESaIcEEEE3getEv
FNDA:0,_ZN7testing8internal10scoped_ptrINSt7__cxx1118basic_stringstreamIcSt11char_traitsIcESaIcEEEE5resetEPS7_
FNDA:0,_ZN7testing8internal10scoped_ptrINSt7__cxx1112basic_stringIcSt11char_traitsIcESaIcEEEE5resetEPS7_
FNF:6
FNH:0
DA:898,0
DA:901,0
DA:902,0
DA:910,0
DA:911,0
DA:912,0
DA:913,0
DA:915,0
DA:917,0
LF:9
LH:0
end_of_record
TN:
SF:/home/zach/catkin_ws/src/final_map_mobile/test/Navigator_Test.cpp
FN:6,_ZN37Navigation_Server_Existance_Test_TestD0Ev
FN:6,_ZN37Navigation_Server_Existance_Test_TestC2Ev
FN:6,_ZN37Navigation_Server_Existance_Test_Test8TestBodyEv
FN:6,_ZN37Navigation_Server_Existance_Test_TestD2Ev
FN:14,_ZN31TestNavigation_No_LaneData_TestD0Ev
FN:14,_ZN31TestNavigation_No_LaneData_Test8TestBodyEv
FN:14,_ZN31TestNavigation_No_LaneData_TestD2Ev
FN:14,_ZN31TestNavigation_No_LaneData_TestC2Ev
FN:43,_ZN34TestNavigation_Right_LaneData_TestD2Ev
FN:43,_ZN34TestNavigation_Right_LaneData_TestD0Ev
FN:43,_ZN34TestNavigation_Right_LaneData_TestC2Ev
FN:43,_ZN34TestNavigation_Right_LaneData_Test8TestBodyEv
FN:73,_ZN33TestNavigation_Left_LaneData_TestD2Ev
FN:73,_ZN33TestNavigation_Left_LaneData_TestC2Ev
FN:73,_ZN33TestNavigation_Left_LaneData_Test8TestBodyEv
FN:73,_ZN33TestNavigation_Left_LaneData_TestD0Ev
FN:103,_ZN30TestNavigation_SpeedLimit_TestD2Ev
FN:103,_ZN30TestNavigation_SpeedLimit_Test8TestBodyEv
FN:103,_ZN30TestNavigation_SpeedLimit_TestD0Ev
FN:103,_ZN30TestNavigation_SpeedLimit_TestC2Ev
FN:132,_ZN28TestNavigation_StopSign_TestD0Ev
FN:132,_ZN28TestNavigation_StopSign_TestD2Ev
FN:132,_ZN28TestNavigation_StopSign_TestC2Ev
FN:132,_ZN28TestNavigation_StopSign_Test8TestBodyEv
FN:161,_ZN26TestNavigation_NoSign_TestD2Ev
FN:161,_ZN26TestNavigation_NoSign_TestD0Ev
FN:161,_ZN26TestNavigation_NoSign_Test8TestBodyEv
FN:161,_ZN26TestNavigation_NoSign_TestC2Ev
FN:188,_GLOBAL__sub_I__ZN37Navigation_Server_Existance_Test_Test10test_info_E
FN:188,_Z41__static_initialization_and_destruction_0ii
FNDA:1,_ZN37Navigation_Server_Existance_Test_TestD0Ev
FNDA:1,_ZN37Navigation_Server_Existance_Test_TestD2Ev
FNDA:1,_ZN37Navigation_Server_Existance_Test_Test8TestBodyEv
FNDA:1,_ZN37Navigation_Server_Existance_Test_TestC2Ev
FNDA:1,_ZN31TestNavigation_No_LaneData_TestD0Ev
FNDA:1,_ZN31TestNavigation_No_LaneData_TestD2Ev
FNDA:1,_ZN31TestNavigation_No_LaneData_Test8TestBodyEv
FNDA:1,_ZN31TestNavigation_No_LaneData_TestC2Ev
FNDA:1,_ZN34TestNavigation_Right_LaneData_TestD0Ev
FNDA:1,_ZN34TestNavigation_Right_LaneData_TestD2Ev
FNDA:1,_ZN34TestNavigation_Right_LaneData_Test8TestBodyEv
FNDA:1,_ZN34TestNavigation_Right_LaneData_TestC2Ev
FNDA:1,_ZN33TestNavigation_Left_LaneData_TestD0Ev
FNDA:1,_ZN33TestNavigation_Left_LaneData_TestD2Ev
FNDA:1,_ZN33TestNavigation_Left_LaneData_Test8TestBodyEv
FNDA:1,_ZN33TestNavigation_Left_LaneData_TestC2Ev
FNDA:1,_ZN30TestNavigation_SpeedLimit_TestD0Ev
FNDA:1,_ZN30TestNavigation_SpeedLimit_TestD2Ev
FNDA:1,_ZN30TestNavigation_SpeedLimit_Test8TestBodyEv
FNDA:1,_ZN30TestNavigation_SpeedLimit_TestC2Ev
FNDA:1,_ZN28TestNavigation_StopSign_TestD0Ev
FNDA:1,_ZN28TestNavigation_StopSign_TestD2Ev
FNDA:1,_ZN28TestNavigation_StopSign_Test8TestBodyEv
FNDA:1,_ZN28TestNavigation_StopSign_TestC2Ev
FNDA:1,_ZN26TestNavigation_NoSign_TestD0Ev
FNDA:1,_ZN26TestNavigation_NoSign_TestD2Ev
FNDA:1,_ZN26TestNavigation_NoSign_Test8TestBodyEv
FNDA:1,_ZN26TestNavigation_NoSign_TestC2Ev
FNDA:1,_GLOBAL__sub_I__ZN37Navigation_Server_Existance_Test_Test10test_info_E
FNDA:1,_Z41__static_initialization_and_destruction_0ii
FNF:30
FNH:30
DA:6,5
DA:8,2
DA:11,1
DA:12,1
DA:14,5
DA:15,2
DA:16,2
DA:17,2
DA:19,2
DA:22,2
DA:26,2
DA:29,1
DA:30,1
DA:31,1
DA:32,1
DA:33,1
DA:34,1
DA:35,1
DA:36,1
DA:37,1
DA:39,1
DA:41,1
DA:43,5
DA:44,2
DA:45,2
DA:46,2
DA:48,2
DA:51,2
DA:55,2
DA:58,1
DA:59,1
DA:60,1
DA:61,1
DA:62,1
DA:63,1
DA:64,1
DA:65,1
DA:66,1
DA:69,1
DA:71,1
DA:73,5
DA:74,2
DA:75,2
DA:76,2
DA:78,2
DA:81,2
DA:85,2
DA:88,1
DA:89,1
DA:90,1
DA:91,1
DA:92,1
DA:93,1
DA:94,1
DA:95,1
DA:96,1
DA:99,1
DA:101,1
DA:103,5
DA:104,2
DA:105,2
DA:106,2
DA:108,2
DA:111,2
DA:115,2
DA:118,1
DA:119,1
DA:120,1
DA:121,1
DA:122,1
DA:123,1
DA:124,1
DA:125,1
DA:126,1
DA:129,1
DA:130,1
DA:132,5
DA:133,2
DA:134,2
DA:135,2
DA:137,2
DA:140,2
DA:144,2
DA:147,1
DA:148,1
DA:149,1
DA:150,1
DA:151,1
DA:152,1
DA:153,1
DA:154,1
DA:155,1
DA:158,1
DA:159,1
DA:161,5
DA:162,2
DA:163,2
DA:164,2
DA:166,2
DA:169,2
DA:173,2
DA:176,1
DA:177,1
DA:178,1
DA:179,1
DA:180,1
DA:181,1
DA:182,1
DA:183,1
DA:184,1
DA:187,1
DA:188,4
LF:112
LH:112
end_of_record
SF:/opt/ros/kinetic/include/ros/advertise_options.h
FN:41,_ZN3ros16AdvertiseOptionsD2Ev
FN:43,_ZN3ros16AdvertiseOptionsC2Ev
FN:84,_ZN3ros16AdvertiseOptions4initIN8std_msgs5Int8_ISaIvEEEEEvRKNSt7__cxx1112basic_stringIcSt11char_traitsIcESaIcEEEjRKN5boost8functionIFvRKNS_25SingleSubscriberPublisherEEEESM_
FN:84,_ZN3ros16AdvertiseOptions4initIN8std_msgs8Float32_ISaIvEEEEEvRKNSt7__cxx1112basic_stringIcSt11char_traitsIcESaIcEEEjRKN5boost8functionIFvRKNS_25SingleSubscriberPublisherEEEESM_
FNDA:0,_ZN3ros16AdvertiseOptionsD2Ev
FNDA:0,_ZN3ros16AdvertiseOptionsC2Ev
FNDA:0,_ZN3ros16AdvertiseOptions4initIN8std_msgs5Int8_ISaIvEEEEEvRKNSt7__cxx1112basic_stringIcSt11char_traitsIcESaIcEEEjRKN5boost8functionIFvRKNS_25SingleSubscriberPublisherEEEESM_
FNDA:0,_ZN3ros16AdvertiseOptions4initIN8std_msgs8Float32_ISaIvEEEEEvRKNSt7__cxx1112basic_stringIcSt11char_traitsIcESaIcEEEjRKN5boost8functionIFvRKNS_25SingleSubscriberPublisherEEEESM_
FNF:4
FNH:0
DA:41,0
DA:43,0
DA:45,0
DA:47,0
DA:84,0
DA:88,0
DA:89,0
DA:90,0
DA:91,0
DA:92,0
DA:93,0
DA:94,0
DA:95,0
DA:96,0
LF:14
LH:0
end_of_record
SF:/opt/ros/kinetic/include/ros/duration.h
FN:79,_ZN3ros12DurationBaseINS_8DurationEED2Ev
FN:108,_ZN3ros8DurationD2Ev
FNDA:0,_ZN3ros12DurationBaseINS_8DurationEED2Ev
FNDA:0,_ZN3ros8DurationD2Ev
FNF:2
FNH:0
DA:79,0
DA:108,0
LF:2
LH:0
end_of_record
SF:/opt/ros/kinetic/include/ros/message_event.h
FN:51,_ZN3ros21DefaultMessageCreatorIN8std_msgs5Int8_ISaIvEEEEclEv
FN:51,_ZN3ros21DefaultMessageCreatorIN8std_msgs8Float32_ISaIvEEEEclEv
FN:69,_ZN3ros12MessageEventIKN8std_msgs8Float32_ISaIvEEEED2Ev
FN:69,_ZN3ros12MessageEventIKN8std_msgs5Int8_ISaIvEEEED2Ev
FN:104,_ZN3ros12MessageEventIKN8std_msgs8Float32_ISaIvEEEEC2ERKNS0_IKvEERKN5boost8functionIFNSB_10shared_ptrIS4_EEvEEE
FN:104,_ZN3ros12MessageEventIKN8std_msgs5Int8_ISaIvEEEEC2ERKNS0_IKvEERKN5boost8functionIFNSB_10shared_ptrIS4_EEvEEE
FN:132,_ZN3ros12MessageEventIKN8std_msgs5Int8_ISaIvEEEE4initERKN5boost10shared_ptrIS5_EERKNS8_ISt3mapINSt7__cxx1112basic_stringIcSt11char_traitsIcESaIcEEESI_St4lessISI_ESaISt4pairIKSI_SI_EEEEENS_4TimeEbRKNS7_8functionIFNS8_IS4_EEvEEE
FN:132,_ZN3ros12MessageEventIKN8std_msgs8Float32_ISaIvEEEE4initERKN5boost10shared_ptrIS5_EERKNS8_ISt3mapINSt7__cxx1112basic_stringIcSt11char_traitsIcESaIcEEESI_St4lessISI_ESaISt4pairIKSI_SI_EEEEENS_4TimeEbRKNS7_8functionIFNS8_IS4_EEvEEE
FN:158,_ZNK3ros12MessageEventIKN8std_msgs8Float32_ISaIvEEEE10getMessageEv
FN:158,_ZNK3ros12MessageEventIKvE10getMessageEv
FN:158,_ZNK3ros12MessageEventIKN8std_msgs5Int8_ISaIvEEEE10getMessageEv
FN:171,_ZNK3ros12MessageEventIKvE22getConnectionHeaderPtrEv
FN:181,_ZNK3ros12MessageEventIKvE14getReceiptTimeEv
FN:183,_ZNK3ros12MessageEventIKvE16nonConstWillCopyEv
FN:215,_ZNK3ros12MessageEventIKN8std_msgs8Float32_ISaIvEEEE22copyMessageIfNecessaryIS5_EEN5boost10disable_ifINS8_7is_voidIT_EENS8_10shared_ptrIS5_EEE4typeEv
FN:215,_ZNK3ros12MessageEventIKN8std_msgs5Int8_ISaIvEEEE22copyMessageIfNecessaryIS5_EEN5boost10disable_ifINS8_7is_voidIT_EENS8_10shared_ptrIS5_EEE4typeEv
FN:235,_ZNK3ros12MessageEventIKvE22copyMessageIfNecessaryIS1_EEN5boost9enable_ifINS4_7is_voidIT_EENS4_10shared_ptrIS1_EEE4typeEv
FNDA:3,_ZN3ros21DefaultMessageCreatorIN8std_msgs5Int8_ISaIvEEEEclEv
FNDA:3,_ZN3ros21DefaultMessageCreatorIN8std_msgs8Float32_ISaIvEEEEclEv
FNDA:3,_ZN3ros12MessageEventIKN8std_msgs8Float32_ISaIvEEEED2Ev
FNDA:3,_ZN3ros12MessageEventIKN8std_msgs5Int8_ISaIvEEEED2Ev
FNDA:3,_ZN3ros12MessageEventIKN8std_msgs8Float32_ISaIvEEEEC2ERKNS0_IKvEERKN5boost8functionIFNSB_10shared_ptrIS4_EEvEEE
FNDA:3,_ZN3ros12MessageEventIKN8std_msgs5Int8_ISaIvEEEEC2ERKNS0_IKvEERKN5boost8functionIFNSB_10shared_ptrIS4_EEvEEE
FNDA:3,_ZN3ros12MessageEventIKN8std_msgs8Float32_ISaIvEEEE4initERKN5boost10shared_ptrIS5_EERKNS8_ISt3mapINSt7__cxx1112basic_stringIcSt11char_traitsIcESaIcEEESI_St4lessISI_ESaISt4pairIKSI_SI_EEEEENS_4TimeEbRKNS7_8functionIFNS8_IS4_EEvEEE
FNDA:3,_ZN3ros12MessageEventIKN8std_msgs5Int8_ISaIvEEEE4initERKN5boost10shared_ptrIS5_EERKNS8_ISt3mapINSt7__cxx1112basic_stringIcSt11char_traitsIcESaIcEEESI_St4lessISI_ESaISt4pairIKSI_SI_EEEEENS_4TimeEbRKNS7_8functionIFNS8_IS4_EEvEEE
FNDA:3,_ZNK3ros12MessageEventIKN8std_msgs8Float32_ISaIvEEEE10getMessageEv
FNDA:3,_ZNK3ros12MessageEventIKN8std_msgs5Int8_ISaIvEEEE10getMessageEv
FNDA:6,_ZNK3ros12MessageEventIKvE10getMessageEv
FNDA:6,_ZNK3ros12MessageEventIKvE22getConnectionHeaderPtrEv
FNDA:6,_ZNK3ros12MessageEventIKvE14getReceiptTimeEv
FNDA:6,_ZNK3ros12MessageEventIKvE16nonConstWillCopyEv
FNDA:3,_ZNK3ros12MessageEventIKN8std_msgs8Float32_ISaIvEEEE22copyMessageIfNecessaryIS5_EEN5boost10disable_ifINS8_7is_voidIT_EENS8_10shared_ptrIS5_EEE4typeEv
FNDA:3,_ZNK3ros12MessageEventIKN8std_msgs5Int8_ISaIvEEEE22copyMessageIfNecessaryIS5_EEN5boost10disable_ifINS8_7is_voidIT_EENS8_10shared_ptrIS5_EEE4typeEv
FNDA:6,_ZNK3ros12MessageEventIKvE22copyMessageIfNecessaryIS1_EEN5boost9enable_ifINS4_7is_voidIT_EENS4_10shared_ptrIS1_EEE4typeEv
FNF:17
FNH:17
DA:51,6
DA:53,6
DA:69,6
DA:104,6
DA:105,6
DA:106,6
DA:107,6
DA:132,6
DA:134,6
DA:135,6
DA:136,6
DA:137,6
DA:138,6
DA:139,6
DA:158,12
DA:160,12
DA:171,6
DA:181,6
DA:183,6
DA:215,6
DA:219,6
DA:235,6
DA:237,6
LF:23
LH:23
end_of_record
SF:/opt/ros/kinetic/include/ros/message_traits.h
FN:226,_ZN3ros14message_traits6md5sumIN8std_msgs5Int8_ISaIvEEEEEPKcv
FN:226,_ZN3ros14message_traits6md5sumIN8std_msgs8Float32_ISaIvEEEEEPKcv
FN:235,_ZN3ros14message_traits8datatypeIN8std_msgs5Int8_ISaIvEEEEEPKcv
FN:235,_ZN3ros14message_traits8datatypeIN8std_msgs8Float32_ISaIvEEEEEPKcv
FN:244,_ZN3ros14message_traits10definitionIN8std_msgs8Float32_ISaIvEEEEEPKcv
FN:244,_ZN3ros14message_traits10definitionIN8std_msgs5Int8_ISaIvEEEEEPKcv
FN:253,_ZN3ros14message_traits6md5sumIN8std_msgs5Int8_ISaIvEEEEEPKcRKT_
FN:253,_ZN3ros14message_traits6md5sumIN8std_msgs8Float32_ISaIvEEEEEPKcRKT_
FN:262,_ZN3ros14message_traits8datatypeIN8std_msgs8Float32_ISaIvEEEEEPKcRKT_
FN:262,_ZN3ros14message_traits8datatypeIN8std_msgs5Int8_ISaIvEEEEEPKcRKT_
FN:352,_ZN3ros14message_traits9hasHeaderIN8std_msgs5Int8_ISaIvEEEEEbv
FN:352,_ZN3ros14message_traits9hasHeaderIN8std_msgs8Float32_ISaIvEEEEEbv
FNDA:0,_ZN3ros14message_traits6md5sumIN8std_msgs5Int8_ISaIvEEEEEPKcv
FNDA:0,_ZN3ros14message_traits6md5sumIN8std_msgs8Float32_ISaIvEEEEEPKcv
FNDA:0,_ZN3ros14message_traits8datatypeIN8std_msgs5Int8_ISaIvEEEEEPKcv
FNDA:0,_ZN3ros14message_traits8datatypeIN8std_msgs8Float32_ISaIvEEEEEPKcv
FNDA:0,_ZN3ros14message_traits10definitionIN8std_msgs5Int8_ISaIvEEEEEPKcv
FNDA:0,_ZN3ros14message_traits10definitionIN8std_msgs8Float32_ISaIvEEEEEPKcv
FNDA:0,_ZN3ros14message_traits6md5sumIN8std_msgs5Int8_ISaIvEEEEEPKcRKT_
FNDA:0,_ZN3ros14message_traits6md5sumIN8std_msgs8Float32_ISaIvEEEEEPKcRKT_
FNDA:0,_ZN3ros14message_traits8datatypeIN8std_msgs5Int8_ISaIvEEEEEPKcRKT_
FNDA:0,_ZN3ros14message_traits8datatypeIN8std_msgs8Float32_ISaIvEEEEEPKcRKT_
FNDA:0,_ZN3ros14message_traits9hasHeaderIN8std_msgs5Int8_ISaIvEEEEEbv
FNDA:0,_ZN3ros14message_traits9hasHeaderIN8std_msgs8Float32_ISaIvEEEEEbv
FNF:12
FNH:0
DA:226,0
DA:228,0
DA:235,0
DA:237,0
DA:244,0
DA:246,0
DA:253,0
DA:255,0
DA:262,0
DA:264,0
DA:352,0
DA:354,0
LF:12
LH:0
end_of_record
SF:/opt/ros/kinetic/include/ros/node_handle.h
FN:249,_ZN3ros10NodeHandle9advertiseIN8std_msgs5Int8_ISaIvEEEEENS_9PublisherERKNSt7__cxx1112basic_stringIcSt11char_traitsIcESaIcEEEjb
FN:249,_ZN3ros10NodeHandle9advertiseIN8std_msgs8Float32_ISaIvEEEEENS_9PublisherERKNSt7__cxx1112basic_stringIcSt11char_traitsIcESaIcEEEjb
FN:465,_ZN3ros10NodeHandle9subscribeIN8std_msgs8Float32_ISaIvEEE10NavigationEENS_10SubscriberERKNSt7__cxx1112basic_stringIcSt11char_traitsIcESaIcEEEjMT0_FvRKN5boost10shared_ptrIKT_EEEPSG_RKNS_14TransportHintsE
FN:465,_ZN3ros10NodeHandle9subscribeIN8std_msgs5Int8_ISaIvEEE10NavigationEENS_10SubscriberERKNSt7__cxx1112basic_stringIcSt11char_traitsIcESaIcEEEjMT0_FvRKN5boost10shared_ptrIKT_EEEPSG_RKNS_14TransportHintsE
FNDA:0,_ZN3ros10NodeHandle9advertiseIN8std_msgs5Int8_ISaIvEEEEENS_9PublisherERKNSt7__cxx1112basic_stringIcSt11char_traitsIcESaIcEEEjb
FNDA:0,_ZN3ros10NodeHandle9advertiseIN8std_msgs8Float32_ISaIvEEEEENS_9PublisherERKNSt7__cxx1112basic_stringIcSt11char_traitsIcESaIcEEEjb
FNDA:3,_ZN3ros10NodeHandle9subscribeIN8std_msgs5Int8_ISaIvEEE10NavigationEENS_10SubscriberERKNSt7__cxx1112basic_stringIcSt11char_traitsIcESaIcEEEjMT0_FvRKN5boost10shared_ptrIKT_EEEPSG_RKNS_14TransportHintsE
FNDA:3,_ZN3ros10NodeHandle9subscribeIN8std_msgs8Float32_ISaIvEEE10NavigationEENS_10SubscriberERKNSt7__cxx1112basic_stringIcSt11char_traitsIcESaIcEEEjMT0_FvRKN5boost10shared_ptrIKT_EEEPSG_RKNS_14TransportHintsE
FNF:4
FNH:2
DA:249,0
DA:251,0
DA:252,0
DA:253,0
DA:254,0
DA:465,6
DA:469,12
DA:470,6
DA:471,6
DA:472,12
LF:10
LH:5
end_of_record
SF:/opt/ros/kinetic/include/ros/parameter_adapter.h
FN:90,_ZN3ros16ParameterAdapterIRKN5boost10shared_ptrIKN8std_msgs8Float32_ISaIvEEEEEE12getParameterERKNS_12MessageEventIS7_EE
FN:90,_ZN3ros16ParameterAdapterIRKN5boost10shared_ptrIKN8std_msgs5Int8_ISaIvEEEEEE12getParameterERKNS_12MessageEventIS7_EE
FNDA:3,_ZN3ros16ParameterAdapterIRKN5boost10shared_ptrIKN8std_msgs8Float32_ISaIvEEEEEE12getParameterERKNS_12MessageEventIS7_EE
FNDA:3,_ZN3ros16ParameterAdapterIRKN5boost10shared_ptrIKN8std_msgs5Int8_ISaIvEEEEEE12getParameterERKNS_12MessageEventIS7_EE
FNF:2
FNH:2
DA:90,6
DA:92,6
LF:2
LH:2
end_of_record
SF:/opt/ros/kinetic/include/ros/publisher.h
FN:95,_ZNK3ros9Publisher7publishIN8std_msgs8Float32_ISaIvEEEEEvRKT_
FN:95,_ZNK3ros9Publisher7publishIN8std_msgs5Int8_ISaIvEEEEEvRKT_
FNDA:0,_ZNK3ros9Publisher7publishIN8std_msgs5Int8_ISaIvEEEEEvRKT_
FNDA:0,_ZNK3ros9Publisher7publishIN8std_msgs8Float32_ISaIvEEEEEvRKT_
FNF:2
FNH:0
DA:95,0
DA:100,0
DA:102,0
DA:103,0
DA:106,0
DA:108,0
DA:109,0
DA:112,0
DA:117,0
DA:118,0
LF:10
LH:0
end_of_record
SF:/opt/ros/kinetic/include/ros/rate.h
FN:51,_ZN3ros4RateD2Ev
FNDA:0,_ZN3ros4RateD2Ev
FNF:1
FNH:0
DA:51,0
LF:1
LH:0
end_of_record
SF:/opt/ros/kinetic/include/ros/serialization.h
FN:152,_ZN3ros13serialization9serializeIjNS0_7OStreamEEEvRT0_RKT_
FN:152,_ZN3ros13serialization9serializeIaNS0_7OStreamEEEvRT0_RKT_
FN:152,_ZN3ros13serialization9serializeIfNS0_7OStreamEEEvRT0_RKT_
FN:152,_ZN3ros13serialization9serializeIN8std_msgs5Int8_ISaIvEEENS0_7OStreamEEEvRT0_RKT_
FN:152,_ZN3ros13serialization9serializeIN8std_msgs8Float32_ISaIvEEENS0_7OStreamEEEvRT0_RKT_
FN:161,_ZN3ros13serialization11deserializeIaNS0_7IStreamEEEvRT0_RT_
FN:161,_ZN3ros13serialization11deserializeIN8std_msgs5Int8_ISaIvEEENS0_7IStreamEEEvRT0_RT_
FN:161,_ZN3ros13serialization11deserializeIfNS0_7IStreamEEEvRT0_RT_
FN:161,_ZN3ros13serialization11deserializeIN8std_msgs8Float32_ISaIvEEENS0_7IStreamEEEvRT0_RT_
FN:170,_ZN3ros13serialization19serializationLengthIN8std_msgs8Float32_ISaIvEEEEEjRKT_
FN:170,_ZN3ros13serialization19serializationLengthIN8std_msgs5Int8_ISaIvEEEEEjRKT_
FN:170,_ZN3ros13serialization19serializationLengthIaEEjRKT_
FN:170,_ZN3ros13serialization19serializationLengthIfEEjRKT_
FN:195,_ZN3ros13serialization10SerializerIaE4readINS0_7IStreamEEEvRT_Ra
FN:195,_ZN3ros13serialization10SerializerIaE16serializedLengthERKa
FN:195,_ZN3ros13serialization10SerializerIaE5writeINS0_7OStreamEEEvRT_a
FN:198,_ZN3ros13serialization10SerializerIjE5writeINS0_7OStreamEEEvRT_j
FN:202,_ZN3ros13serialization10SerializerIfE5writeINS0_7OStreamEEEvRT_f
FN:202,_ZN3ros13serialization10SerializerIfE4readINS0_7IStreamEEEvRT_Rf
FN:202,_ZN3ros13serialization10SerializerIfE16serializedLengthERKf
FN:667,_ZN3ros13serialization6Stream7getDataEv
FN:692,_ZN3ros13serialization6StreamC2EPhj
FN:709,_ZN3ros13serialization7IStreamC2EPhj
FN:737,_ZN3ros13serialization7OStreamC2EPhj
FN:769,_ZN3ros13serialization7LStreamC2Ev
FN:795,_ZN3ros13serialization7LStream9getLengthEv
FN:805,_ZN3ros13serialization16serializeMessageIN8std_msgs5Int8_ISaIvEEEEENS_17SerializedMessageERKT_
FN:805,_ZN3ros13serialization16serializeMessageIN8std_msgs8Float32_ISaIvEEEEENS_17SerializedMessageERKT_
FN:867,_ZN3ros13serialization20PreDeserializeParamsIN8std_msgs8Float32_ISaIvEEEED2Ev
FN:867,_ZN3ros13serialization20PreDeserializeParamsIN8std_msgs5Int8_ISaIvEEEED2Ev
FN:867,_ZN3ros13serialization20PreDeserializeParamsIN8std_msgs5Int8_ISaIvEEEEC2Ev
FN:867,_ZN3ros13serialization20PreDeserializeParamsIN8std_msgs8Float32_ISaIvEEEEC2Ev
FN:880,_ZN3ros13serialization14PreDeserializeIN8std_msgs8Float32_ISaIvEEEE6notifyERKNS0_20PreDeserializeParamsIS5_EE
FN:880,_ZN3ros13serialization14PreDeserializeIN8std_msgs5Int8_ISaIvEEEE6notifyERKNS0_20PreDeserializeParamsIS5_EE
FNDA:0,_ZN3ros13serialization9serializeIaNS0_7OStreamEEEvRT0_RKT_
FNDA:0,_ZN3ros13serialization9serializeIfNS0_7OStreamEEEvRT0_RKT_
FNDA:0,_ZN3ros13serialization9serializeIN8std_msgs5Int8_ISaIvEEENS0_7OStreamEEEvRT0_RKT_
FNDA:0,_ZN3ros13serialization9serializeIN8std_msgs8Float32_ISaIvEEENS0_7OStreamEEEvRT0_RKT_
FNDA:0,_ZN3ros13serialization9serializeIjNS0_7OStreamEEEvRT0_RKT_
FNDA:3,_ZN3ros13serialization11deserializeIfNS0_7IStreamEEEvRT0_RT_
FNDA:3,_ZN3ros13serialization11deserializeIaNS0_7IStreamEEEvRT0_RT_
FNDA:3,_ZN3ros13serialization11deserializeIN8std_msgs8Float32_ISaIvEEENS0_7IStreamEEEvRT0_RT_
FNDA:3,_ZN3ros13serialization11deserializeIN8std_msgs5Int8_ISaIvEEENS0_7IStreamEEEvRT0_RT_
FNDA:0,_ZN3ros13serialization19serializationLengthIaEEjRKT_
FNDA:0,_ZN3ros13serialization19serializationLengthIfEEjRKT_
FNDA:0,_ZN3ros13serialization19serializationLengthIN8std_msgs5Int8_ISaIvEEEEEjRKT_
FNDA:0,_ZN3ros13serialization19serializationLengthIN8std_msgs8Float32_ISaIvEEEEEjRKT_
FNDA:3,_ZN3ros13serialization10SerializerIaE4readINS0_7IStreamEEEvRT_Ra
FNDA:0,_ZN3ros13serialization10SerializerIaE5writeINS0_7OStreamEEEvRT_a
FNDA:0,_ZN3ros13serialization10SerializerIaE16serializedLengthERKa
FNDA:0,_ZN3ros13serialization10SerializerIjE5writeINS0_7OStreamEEEvRT_j
FNDA:3,_ZN3ros13serialization10SerializerIfE4readINS0_7IStreamEEEvRT_Rf
FNDA:0,_ZN3ros13serialization10SerializerIfE5writeINS0_7OStreamEEEvRT_f
FNDA:0,_ZN3ros13serialization10SerializerIfE16serializedLengthERKf
FNDA:0,_ZN3ros13serialization6Stream7getDataEv
FNDA:0,_ZN3ros13serialization6StreamC2EPhj
FNDA:6,_ZN3ros13serialization7IStreamC2EPhj
FNDA:0,_ZN3ros13serialization7OStreamC2EPhj
FNDA:0,_ZN3ros13serialization7LStreamC2Ev
FNDA:0,_ZN3ros13serialization7LStream9getLengthEv
FNDA:0,_ZN3ros13serialization16serializeMessageIN8std_msgs5Int8_ISaIvEEEEENS_17SerializedMessageERKT_
FNDA:0,_ZN3ros13serialization16serializeMessageIN8std_msgs8Float32_ISaIvEEEEENS_17SerializedMessageERKT_
FNDA:3,_ZN3ros13serialization20PreDeserializeParamsIN8std_msgs8Float32_ISaIvEEEED2Ev
FNDA:3,_ZN3ros13serialization20PreDeserializeParamsIN8std_msgs8Float32_ISaIvEEEEC2Ev
FNDA:3,_ZN3ros13serialization20PreDeserializeParamsIN8std_msgs5Int8_ISaIvEEEED2Ev
FNDA:3,_ZN3ros13serialization20PreDeserializeParamsIN8std_msgs5Int8_ISaIvEEEEC2Ev
FNDA:3,_ZN3ros13serialization14PreDeserializeIN8std_msgs8Float32_ISaIvEEEE6notifyERKNS0_20PreDeserializeParamsIS5_EE
FNDA:3,_ZN3ros13serialization14PreDeserializeIN8std_msgs5Int8_ISaIvEEEE6notifyERKNS0_20PreDeserializeParamsIS5_EE
FNF:34
FNH:13
DA:152,0
DA:154,0
DA:155,0
DA:161,12
DA:163,12
DA:164,12
DA:170,0
DA:172,0
DA:195,6
DA:198,0
DA:202,6
DA:667,0
DA:675,6
DA:676,6
DA:677,6
DA:681,0
DA:683,6
DA:692,0
DA:694,0
DA:695,0
DA:709,6
DA:710,6
DA:711,6
DA:719,6
DA:737,0
DA:738,0
DA:739,0
DA:747,0
DA:769,0
DA:770,0
DA:771,0
DA:779,0
DA:795,0
DA:805,0
DA:807,0
DA:808,0
DA:809,0
DA:810,0
DA:812,0
DA:813,0
DA:814,0
DA:815,0
DA:817,0
DA:867,12
DA:880,6
LF:45
LH:15
end_of_record
SF:/opt/ros/kinetic/include/ros/serialized_message.h
FN:39,_ZN3ros17SerializedMessageD2Ev
FN:49,_ZN3ros17SerializedMessageC2Ev
FNDA:0,_ZN3ros17SerializedMessageD2Ev
FNDA:0,_ZN3ros17SerializedMessageC2Ev
FNF:2
FNH:0
DA:39,0
DA:49,0
DA:53,0
DA:54,0
LF:4
LH:0
end_of_record
SF:/opt/ros/kinetic/include/ros/subscribe_options.h
FN:43,_ZN3ros16SubscribeOptionsD2Ev
FN:48,_ZN3ros16SubscribeOptionsC2Ev
FN:103,_ZN3ros16SubscribeOptions4initIN8std_msgs5Int8_ISaIvEEEEEvRKNSt7__cxx1112basic_stringIcSt11char_traitsIcESaIcEEEjRKN5boost8functionIFvRKNSE_10shared_ptrIKT_EEEEERKNSF_IFNSG_ISH_EEvEEE
FN:103,_ZN3ros16SubscribeOptions4initIN8std_msgs8Float32_ISaIvEEEEEvRKNSt7__cxx1112basic_stringIcSt11char_traitsIcESaIcEEEjRKN5boost8functionIFvRKNSE_10shared_ptrIKT_EEEEERKNSF_IFNSG_ISH_EEvEEE
FNDA:6,_ZN3ros16SubscribeOptionsD2Ev
FNDA:6,_ZN3ros16SubscribeOptionsC2Ev
FNDA:3,_ZN3ros16SubscribeOptions4initIN8std_msgs5Int8_ISaIvEEEEEvRKNSt7__cxx1112basic_stringIcSt11char_traitsIcESaIcEEEjRKN5boost8functionIFvRKNSE_10shared_ptrIKT_EEEEERKNSF_IFNSG_ISH_EEvEEE
FNDA:3,_ZN3ros16SubscribeOptions4initIN8std_msgs8Float32_ISaIvEEEEEvRKNSt7__cxx1112basic_stringIcSt11char_traitsIcESaIcEEEjRKN5boost8functionIFvRKNSE_10shared_ptrIKT_EEEEERKNSF_IFNSG_ISH_EEvEEE
FNF:4
FNH:4
DA:43,6
DA:48,6
DA:51,6
DA:53,6
DA:103,6
DA:108,6
DA:109,6
DA:110,6
DA:111,6
DA:112,6
DA:113,6
LF:11
LH:11
end_of_record
SF:/opt/ros/kinetic/include/ros/subscription_callback_helper.h
FN:69,_ZN3ros26SubscriptionCallbackHelperC2Ev
FN:72,_ZN3ros26SubscriptionCallbackHelperD0Ev
FN:72,_ZN3ros26SubscriptionCallbackHelperD2Ev
FN:87,_ZN3ros27SubscriptionCallbackHelperTIRKN5boost10shared_ptrIKN8std_msgs8Float32_ISaIvEEEEEvED0Ev
FN:87,_ZN3ros27SubscriptionCallbackHelperTIRKN5boost10shared_ptrIKN8std_msgs5Int8_ISaIvEEEEEvED2Ev
FN:87,_ZN3ros27SubscriptionCallbackHelperTIRKN5boost10shared_ptrIKN8std_msgs8Float32_ISaIvEEEEEvED2Ev
FN:87,_ZN3ros27SubscriptionCallbackHelperTIRKN5boost10shared_ptrIKN8std_msgs5Int8_ISaIvEEEEEvED0Ev
FN:102,_ZN3ros27SubscriptionCallbackHelperTIRKN5boost10shared_ptrIKN8std_msgs8Float32_ISaIvEEEEEvEC2ERKNS1_8functionIFvS8_EEERKNSC_IFNS2_IS6_EEvEEE
FN:102,_ZN3ros27SubscriptionCallbackHelperTIRKN5boost10shared_ptrIKN8std_msgs5Int8_ISaIvEEEEEvEC2ERKNS1_8functionIFvS8_EEERKNSC_IFNS2_IS6_EEvEEE
FN:113,_ZN3ros27SubscriptionCallbackHelperTIRKN5boost10shared_ptrIKN8std_msgs5Int8_ISaIvEEEEEvE9hasHeaderEv
FN:113,_ZN3ros27SubscriptionCallbackHelperTIRKN5boost10shared_ptrIKN8std_msgs8Float32_ISaIvEEEEEvE9hasHeaderEv
FN:118,_ZN3ros27SubscriptionCallbackHelperTIRKN5boost10shared_ptrIKN8std_msgs5Int8_ISaIvEEEEEvE11deserializeERKNS_43SubscriptionCallbackHelperDeserializeParamsE
FN:118,_ZN3ros27SubscriptionCallbackHelperTIRKN5boost10shared_ptrIKN8std_msgs8Float32_ISaIvEEEEEvE11deserializeERKNS_43SubscriptionCallbackHelperDeserializeParamsE
FN:141,_ZN3ros27SubscriptionCallbackHelperTIRKN5boost10shared_ptrIKN8std_msgs8Float32_ISaIvEEEEEvE4callERNS_36SubscriptionCallbackHelperCallParamsE
FN:141,_ZN3ros27SubscriptionCallbackHelperTIRKN5boost10shared_ptrIKN8std_msgs5Int8_ISaIvEEEEEvE4callERNS_36SubscriptionCallbackHelperCallParamsE
FN:147,_ZN3ros27SubscriptionCallbackHelperTIRKN5boost10shared_ptrIKN8std_msgs8Float32_ISaIvEEEEEvE11getTypeInfoEv
FN:147,_ZN3ros27SubscriptionCallbackHelperTIRKN5boost10shared_ptrIKN8std_msgs5Int8_ISaIvEEEEEvE11getTypeInfoEv
FN:152,_ZN3ros27SubscriptionCallbackHelperTIRKN5boost10shared_ptrIKN8std_msgs8Float32_ISaIvEEEEEvE7isConstEv
FN:152,_ZN3ros27SubscriptionCallbackHelperTIRKN5boost10shared_ptrIKN8std_msgs5Int8_ISaIvEEEEEvE7isConstEv
FNDA:6,_ZN3ros26SubscriptionCallbackHelperC2Ev
FNDA:0,_ZN3ros26SubscriptionCallbackHelperD0Ev
FNDA:6,_ZN3ros26SubscriptionCallbackHelperD2Ev
FNDA:0,_ZN3ros27SubscriptionCallbackHelperTIRKN5boost10shared_ptrIKN8std_msgs5Int8_ISaIvEEEEEvED0Ev
FNDA:3,_ZN3ros27SubscriptionCallbackHelperTIRKN5boost10shared_ptrIKN8std_msgs5Int8_ISaIvEEEEEvED2Ev
FNDA:0,_ZN3ros27SubscriptionCallbackHelperTIRKN5boost10shared_ptrIKN8std_msgs8Float32_ISaIvEEEEEvED0Ev
FNDA:3,_ZN3ros27SubscriptionCallbackHelperTIRKN5boost10shared_ptrIKN8std_msgs8Float32_ISaIvEEEEEvED2Ev
FNDA:3,_ZN3ros27SubscriptionCallbackHelperTIRKN5boost10shared_ptrIKN8std_msgs5Int8_ISaIvEEEEEvEC2ERKNS1_8functionIFvS8_EEERKNSC_IFNS2_IS6_EEvEEE
FNDA:3,_ZN3ros27SubscriptionCallbackHelperTIRKN5boost10shared_ptrIKN8std_msgs8Float32_ISaIvEEEEEvEC2ERKNS1_8functionIFvS8_EEERKNSC_IFNS2_IS6_EEvEEE
FNDA:3,_ZN3ros27SubscriptionCallbackHelperTIRKN5boost10shared_ptrIKN8std_msgs8Float32_ISaIvEEEEEvE9hasHeaderEv
FNDA:3,_ZN3ros27SubscriptionCallbackHelperTIRKN5boost10shared_ptrIKN8std_msgs5Int8_ISaIvEEEEEvE9hasHeaderEv
FNDA:3,_ZN3ros27SubscriptionCallbackHelperTIRKN5boost10shared_ptrIKN8std_msgs8Float32_ISaIvEEEEEvE11deserializeERKNS_43SubscriptionCallbackHelperDeserializeParamsE
FNDA:3,_ZN3ros27SubscriptionCallbackHelperTIRKN5boost10shared_ptrIKN8std_msgs5Int8_ISaIvEEEEEvE11deserializeERKNS_43SubscriptionCallbackHelperDeserializeParamsE
FNDA:3,_ZN3ros27SubscriptionCallbackHelperTIRKN5boost10shared_ptrIKN8std_msgs8Float32_ISaIvEEEEEvE4callERNS_36SubscriptionCallbackHelperCallParamsE
FNDA:3,_ZN3ros27SubscriptionCallbackHelperTIRKN5boost10shared_ptrIKN8std_msgs5Int8_ISaIvEEEEEvE4callERNS_36SubscriptionCallbackHelperCallParamsE
FNDA:3,_ZN3ros27SubscriptionCallbackHelperTIRKN5boost10shared_ptrIKN8std_msgs8Float32_ISaIvEEEEEvE11getTypeInfoEv
FNDA:3,_ZN3ros27SubscriptionCallbackHelperTIRKN5boost10shared_ptrIKN8std_msgs5Int8_ISaIvEEEEEvE11getTypeInfoEv
FNDA:6,_ZN3ros27SubscriptionCallbackHelperTIRKN5boost10shared_ptrIKN8std_msgs8Float32_ISaIvEEEEEvE7isConstEv
FNDA:6,_ZN3ros27SubscriptionCallbackHelperTIRKN5boost10shared_ptrIKN8std_msgs5Int8_ISaIvEEEEEvE7isConstEv
FNF:19
FNH:16
DA:69,6
DA:72,6
DA:87,6
DA:102,6
DA:105,6
DA:106,6
DA:113,6
DA:115,6
DA:118,6
DA:122,12
DA:124,6
DA:126,0
DA:127,0
DA:130,12
DA:131,6
DA:132,6
DA:133,6
DA:135,6
DA:136,6
DA:138,6
DA:141,6
DA:143,12
DA:144,6
DA:145,6
DA:147,6
DA:149,6
DA:152,12
DA:154,12
LF:28
LH:26
end_of_record
SF:/opt/ros/kinetic/include/ros/time.h
FN:135,_ZN3ros8TimeBaseINS_4TimeENS_8DurationEEC2Ev
FN:183,_ZN3ros4TimeC2Ev
FNDA:0,_ZN3ros8TimeBaseINS_4TimeENS_8DurationEEC2Ev
FNDA:0,_ZN3ros4TimeC2Ev
FNF:2
FNH:0
DA:135,0
DA:183,0
DA:184,0
DA:185,0
LF:4
LH:0
end_of_record
SF:/opt/ros/kinetic/include/ros/transport_hints.h
FN:54,_ZN3ros14TransportHintsD2Ev
FN:54,_ZN3ros14TransportHintsC2Ev
FN:54,_ZN3ros14TransportHintsaSERKS0_
FNDA:6,_ZN3ros14TransportHintsaSERKS0_
FNDA:12,_ZN3ros14TransportHintsD2Ev
FNDA:12,_ZN3ros14TransportHintsC2Ev
FNF:3
FNH:3
DA:54,30
LF:1
LH:1
end_of_record
SF:/opt/ros/kinetic/include/std_msgs/Float32.h
FN:26,_ZN8std_msgs8Float32_ISaIvEEC2Ev
FN:115,_ZN3ros14message_traits6MD5SumIN8std_msgs8Float32_ISaIvEEEE5valueEv
FN:120,_ZN3ros14message_traits6MD5SumIN8std_msgs8Float32_ISaIvEEEE5valueERKS5_
FN:128,_ZN3ros14message_traits8DataTypeIN8std_msgs8Float32_ISaIvEEEE5valueEv
FN:133,_ZN3ros14message_traits8DataTypeIN8std_msgs8Float32_ISaIvEEEE5valueERKS5_
FN:139,_ZN3ros14message_traits10DefinitionIN8std_msgs8Float32_ISaIvEEEE5valueEv
FN:158,_ZN3ros13serialization10SerializerIN8std_msgs8Float32_ISaIvEEEE8allInOneINS0_7OStreamERKS5_EEvRT_T0_
FN:158,_ZN3ros13serialization10SerializerIN8std_msgs8Float32_ISaIvEEEE8allInOneINS0_7LStreamERKS5_EEvRT_T0_
FN:158,_ZN3ros13serialization10SerializerIN8std_msgs8Float32_ISaIvEEEE8allInOneINS0_7IStreamERS5_EEvRT_T0_
FN:163,_ZN3ros13serialization10SerializerIN8std_msgs8Float32_ISaIvEEEE16serializedLengthIS5_EEjRKT_
FN:163,_ZN3ros13serialization10SerializerIN8std_msgs8Float32_ISaIvEEEE5writeINS0_7OStreamES5_EEvRT_RKT0_
FN:163,_ZN3ros13serialization10SerializerIN8std_msgs8Float32_ISaIvEEEE4readINS0_7IStreamES5_EEvRT_RT0_
FNDA:0,_ZN8std_msgs8Float32_ISaIvEEC2Ev
FNDA:0,_ZN3ros14message_traits6MD5SumIN8std_msgs8Float32_ISaIvEEEE5valueEv
FNDA:0,_ZN3ros14message_traits6MD5SumIN8std_msgs8Float32_ISaIvEEEE5valueERKS5_
FNDA:0,_ZN3ros14message_traits8DataTypeIN8std_msgs8Float32_ISaIvEEEE5valueEv
FNDA:0,_ZN3ros14message_traits8DataTypeIN8std_msgs8Float32_ISaIvEEEE5valueERKS5_
FNDA:0,_ZN3ros14message_traits10DefinitionIN8std_msgs8Float32_ISaIvEEEE5valueEv
FNDA:3,_ZN3ros13serialization10SerializerIN8std_msgs8Float32_ISaIvEEEE8allInOneINS0_7IStreamERS5_EEvRT_T0_
FNDA:0,_ZN3ros13serialization10SerializerIN8std_msgs8Float32_ISaIvEEEE8allInOneINS0_7OStreamERKS5_EEvRT_T0_
FNDA:0,_ZN3ros13serialization10SerializerIN8std_msgs8Float32_ISaIvEEEE8allInOneINS0_7LStreamERKS5_EEvRT_T0_
FNDA:3,_ZN3ros13serialization10SerializerIN8std_msgs8Float32_ISaIvEEEE4readINS0_7IStreamES5_EEvRT_RT0_
FNDA:0,_ZN3ros13serialization10SerializerIN8std_msgs8Float32_ISaIvEEEE5writeINS0_7OStreamES5_EEvRT_RKT0_
FNDA:0,_ZN3ros13serialization10SerializerIN8std_msgs8Float32_ISaIvEEEE16serializedLengthIS5_EEjRKT_
FNF:12
FNH:2
DA:26,0
DA:27,0
DA:28,0
DA:115,0
DA:117,0
DA:120,0
DA:128,0
DA:130,0
DA:133,0
DA:139,0
DA:141,0
DA:158,3
DA:160,3
DA:161,3
DA:163,3
LF:15
LH:4
end_of_record
SF:/opt/ros/kinetic/include/std_msgs/Int8.h
FN:26,_ZN8std_msgs5Int8_ISaIvEEC2Ev
FN:115,_ZN3ros14message_traits6MD5SumIN8std_msgs5Int8_ISaIvEEEE5valueEv
FN:120,_ZN3ros14message_traits6MD5SumIN8std_msgs5Int8_ISaIvEEEE5valueERKS5_
FN:128,_ZN3ros14message_traits8DataTypeIN8std_msgs5Int8_ISaIvEEEE5valueEv
FN:133,_ZN3ros14message_traits8DataTypeIN8std_msgs5Int8_ISaIvEEEE5valueERKS5_
FN:139,_ZN3ros14message_traits10DefinitionIN8std_msgs5Int8_ISaIvEEEE5valueEv
FN:158,_ZN3ros13serialization10SerializerIN8std_msgs5Int8_ISaIvEEEE8allInOneINS0_7IStreamERS5_EEvRT_T0_
FN:158,_ZN3ros13serialization10SerializerIN8std_msgs5Int8_ISaIvEEEE8allInOneINS0_7LStreamERKS5_EEvRT_T0_
FN:158,_ZN3ros13serialization10SerializerIN8std_msgs5Int8_ISaIvEEEE8allInOneINS0_7OStreamERKS5_EEvRT_T0_
FN:163,_ZN3ros13serialization10SerializerIN8std_msgs5Int8_ISaIvEEEE4readINS0_7IStreamES5_EEvRT_RT0_
FN:163,_ZN3ros13serialization10SerializerIN8std_msgs5Int8_ISaIvEEEE16serializedLengthIS5_EEjRKT_
FN:163,_ZN3ros13serialization10SerializerIN8std_msgs5Int8_ISaIvEEEE5writeINS0_7OStreamES5_EEvRT_RKT0_
FNDA:0,_ZN8std_msgs5Int8_ISaIvEEC2Ev
FNDA:0,_ZN3ros14message_traits6MD5SumIN8std_msgs5Int8_ISaIvEEEE5valueEv
FNDA:0,_ZN3ros14message_traits6MD5SumIN8std_msgs5Int8_ISaIvEEEE5valueERKS5_
FNDA:0,_ZN3ros14message_traits8DataTypeIN8std_msgs5Int8_ISaIvEEEE5valueEv
FNDA:0,_ZN3ros14message_traits8DataTypeIN8std_msgs5Int8_ISaIvEEEE5valueERKS5_
FNDA:0,_ZN3ros14message_traits10DefinitionIN8std_msgs5Int8_ISaIvEEEE5valueEv
FNDA:3,_ZN3ros13serialization10SerializerIN8std_msgs5Int8_ISaIvEEEE8allInOneINS0_7IStreamERS5_EEvRT_T0_
FNDA:0,_ZN3ros13serialization10SerializerIN8std_msgs5Int8_ISaIvEEEE8allInOneINS0_7OStreamERKS5_EEvRT_T0_
FNDA:0,_ZN3ros13serialization10SerializerIN8std_msgs5Int8_ISaIvEEEE8allInOneINS0_7LStreamERKS5_EEvRT_T0_
FNDA:3,_ZN3ros13serialization10SerializerIN8std_msgs5Int8_ISaIvEEEE4readINS0_7IStreamES5_EEvRT_RT0_
FNDA:0,_ZN3ros13serialization10SerializerIN8std_msgs5Int8_ISaIvEEEE5writeINS0_7OStreamES5_EEvRT_RKT0_
FNDA:0,_ZN3ros13serialization10SerializerIN8std_msgs5Int8_ISaIvEEEE16serializedLengthIS5_EEjRKT_
FNF:12
FNH:2
DA:26,0
DA:27,0
DA:28,0
DA:115,0
DA:117,0
DA:120,0
DA:128,0
DA:130,0
DA:133,0
DA:139,0
DA:141,0
DA:158,3
DA:160,3
DA:161,3
DA:163,3
LF:15
LH:4
end_of_record
SF:/usr/include/boost/bind/arg.hpp
FN:31,_ZN5boost3argILi8EEC2Ev
FN:31,_ZN5boost3argILi1EEC2Ev
FN:31,_ZN5boost3argILi4EEC2Ev
FN:31,_ZN5boost3argILi3EEC2Ev
FN:31,_ZN5boost3argILi7EEC2Ev
FN:31,_ZN5boost3argILi2EEC2Ev
FN:31,_ZN5boost3argILi9EEC2Ev
FN:31,_ZN5boost3argILi6EEC2Ev
FN:31,_ZN5boost3argILi5EEC2Ev
FNDA:0,_ZN5boost3argILi9EEC2Ev
FNDA:0,_ZN5boost3argILi8EEC2Ev
FNDA:0,_ZN5boost3argILi7EEC2Ev
FNDA:0,_ZN5boost3argILi6EEC2Ev
FNDA:0,_ZN5boost3argILi5EEC2Ev
FNDA:0,_ZN5boost3argILi4EEC2Ev
FNDA:0,_ZN5boost3argILi3EEC2Ev
FNDA:0,_ZN5boost3argILi2EEC2Ev
FNDA:0,_ZN5boost3argILi1EEC2Ev
FNF:9
FNH:0
DA:31,0
DA:33,0
LF:2
LH:0
end_of_record
SF:/usr/include/boost/bind/bind.hpp
FN:116,_ZN5boost3_bi5valueIP10NavigationEC2ERKS3_
FN:118,_ZN5boost3_bi5valueIP10NavigationE3getEv
FN:146,_ZN5boost3_bi9unwrapperINS_4_mfi3mf1Iv10NavigationRKNS_10shared_ptrIKN8std_msgs8Float32_ISaIvEEEEEEEE6unwrapERSE_l
FN:146,_ZN5boost3_bi9unwrapperIPFN3ros17SerializedMessageERKN8std_msgs5Int8_ISaIvEEEEE6unwrapERSB_l
FN:146,_ZN5boost3_bi9unwrapperINS_4_mfi3mf1Iv10NavigationRKNS_10shared_ptrIKN8std_msgs5Int8_ISaIvEEEEEEEE6unwrapERSE_l
FN:146,_ZN5boost3_bi9unwrapperIPFN3ros17SerializedMessageERKN8std_msgs8Float32_ISaIvEEEEE6unwrapERSB_l
FN:168,_ZN5boost3_bi5list0C2Ev
FN:174,_ZNK5boost3_bi5list0ixIKN8std_msgs5Int8_ISaIvEEEEERT_RKNS_17reference_wrapperIS8_EE
FN:174,_ZNK5boost3_bi5list0ixIKN8std_msgs8Float32_ISaIvEEEEERT_RKNS_17reference_wrapperIS8_EE
FN:225,_ZN5boost3_bi5list1IRKNS_10shared_ptrIKN8std_msgs8Float32_ISaIvEEEEEEC2ESA_
FN:225,_ZN5boost3_bi5list1IRKNS_10shared_ptrIKN8std_msgs5Int8_ISaIvEEEEEEC2ESA_
FN:225,_ZN5boost3_bi5list1INS_17reference_wrapperIKN8std_msgs5Int8_ISaIvEEEEEEC2ES8_
FN:225,_ZN5boost3_bi5list1INS_17reference_wrapperIKN8std_msgs8Float32_ISaIvEEEEEEC2ES8_
FN:229,_ZNK5boost3_bi5list1IRKNS_10shared_ptrIKN8std_msgs8Float32_ISaIvEEEEEEixEPFNS_3argILi1EEEvE
FN:229,_ZNK5boost3_bi5list1IRKNS_10shared_ptrIKN8std_msgs5Int8_ISaIvEEEEEEixEPFNS_3argILi1EEEvE
FN:231,_ZNK5boost3_bi5list1IRKNS_10shared_ptrIKN8std_msgs8Float32_ISaIvEEEEEEixIP10NavigationEERT_RNS0_5valueISF_EE
FN:231,_ZNK5boost3_bi5list1IRKNS_10shared_ptrIKN8std_msgs5Int8_ISaIvEEEEEEixIP10NavigationEERT_RNS0_5valueISF_EE
FN:241,_ZN5boost3_bi5list1INS_17reference_wrapperIKN8std_msgs5Int8_ISaIvEEEEEEclIN3ros17SerializedMessageEPFSC_RS7_ENS0_5list0EEET_NS0_4typeISH_EERT0_RT1_l
FN:241,_ZN5boost3_bi5list1INS_17reference_wrapperIKN8std_msgs8Float32_ISaIvEEEEEEclIN3ros17SerializedMessageEPFSC_RS7_ENS0_5list0EEET_NS0_4typeISH_EERT0_RT1_l
FN:283,_ZN5boost3_bi5list2INS0_5valueIP10NavigationEENS_3argILi1EEEEC2ES5_S7_
FN:311,_ZN5boost3_bi5list2INS0_5valueIP10NavigationEENS_3argILi1EEEEclINS_4_mfi3mf1IvS3_RKNS_10shared_ptrIKN8std_msgs5Int8_ISaIvEEEEEEENS0_5list1ISK_EEEEvNS0_4typeIvEERT_RT0_i
FN:311,_ZN5boost3_bi5list2INS0_5valueIP10NavigationEENS_3argILi1EEEEclINS_4_mfi3mf1IvS3_RKNS_10shared_ptrIKN8std_msgs8Float32_ISaIvEEEEEEENS0_5list1ISK_EEEEvNS0_4typeIvEERT_RT0_i
FN:886,_ZN5boost3_bi6bind_tIN3ros17SerializedMessageEPFS3_RKN8std_msgs5Int8_ISaIvEEEENS0_5list1INS_17reference_wrapperIS8_EEEEEC2ESB_RKSF_
FN:886,_ZN5boost3_bi6bind_tIN3ros17SerializedMessageEPFS3_RKN8std_msgs8Float32_ISaIvEEEENS0_5list1INS_17reference_wrapperIS8_EEEEEC2ESB_RKSF_
FN:886,_ZN5boost3_bi6bind_tIvNS_4_mfi3mf1Iv10NavigationRKNS_10shared_ptrIKN8std_msgs8Float32_ISaIvEEEEEEENS0_5list2INS0_5valueIPS4_EENS_3argILi1EEEEEEC2ESE_RKSL_
FN:886,_ZN5boost3_bi6bind_tIvNS_4_mfi3mf1Iv10NavigationRKNS_10shared_ptrIKN8std_msgs5Int8_ISaIvEEEEEEENS0_5list2INS0_5valueIPS4_EENS_3argILi1EEEEEEC2ESE_RKSL_
FN:890,_ZN5boost3_bi6bind_tIN3ros17SerializedMessageEPFS3_RKN8std_msgs8Float32_ISaIvEEEENS0_5list1INS_17reference_wrapperIS8_EEEEEclEv
FN:890,_ZN5boost3_bi6bind_tIN3ros17SerializedMessageEPFS3_RKN8std_msgs5Int8_ISaIvEEEENS0_5list1INS_17reference_wrapperIS8_EEEEEclEv
FN:902,_ZN5boost3_bi6bind_tIvNS_4_mfi3mf1Iv10NavigationRKNS_10shared_ptrIKN8std_msgs5Int8_ISaIvEEEEEEENS0_5list2INS0_5valueIPS4_EENS_3argILi1EEEEEEclISD_EEvOT_
FN:902,_ZN5boost3_bi6bind_tIvNS_4_mfi3mf1Iv10NavigationRKNS_10shared_ptrIKN8std_msgs8Float32_ISaIvEEEEEEENS0_5list2INS0_5valueIPS4_EENS_3argILi1EEEEEEclISD_EEvOT_
FNDA:6,_ZN5boost3_bi5valueIP10NavigationEC2ERKS3_
FNDA:6,_ZN5boost3_bi5valueIP10NavigationE3getEv
FNDA:0,_ZN5boost3_bi9unwrapperIPFN3ros17SerializedMessageERKN8std_msgs5Int8_ISaIvEEEEE6unwrapERSB_l
FNDA:3,_ZN5boost3_bi9unwrapperINS_4_mfi3mf1Iv10NavigationRKNS_10shared_ptrIKN8std_msgs5Int8_ISaIvEEEEEEEE6unwrapERSE_l
FNDA:0,_ZN5boost3_bi9unwrapperIPFN3ros17SerializedMessageERKN8std_msgs8Float32_ISaIvEEEEE6unwrapERSB_l
FNDA:3,_ZN5boost3_bi9unwrapperINS_4_mfi3mf1Iv10NavigationRKNS_10shared_ptrIKN8std_msgs8Float32_ISaIvEEEEEEEE6unwrapERSE_l
FNDA:0,_ZN5boost3_bi5list0C2Ev
FNDA:0,_ZNK5boost3_bi5list0ixIKN8std_msgs5Int8_ISaIvEEEEERT_RKNS_17reference_wrapperIS8_EE
FNDA:0,_ZNK5boost3_bi5list0ixIKN8std_msgs8Float32_ISaIvEEEEERT_RKNS_17reference_wrapperIS8_EE
FNDA:3,_ZN5boost3_bi5list1IRKNS_10shared_ptrIKN8std_msgs5Int8_ISaIvEEEEEEC2ESA_
FNDA:3,_ZN5boost3_bi5list1IRKNS_10shared_ptrIKN8std_msgs8Float32_ISaIvEEEEEEC2ESA_
FNDA:0,_ZN5boost3_bi5list1INS_17reference_wrapperIKN8std_msgs5Int8_ISaIvEEEEEEC2ES8_
FNDA:0,_ZN5boost3_bi5list1INS_17reference_wrapperIKN8std_msgs8Float32_ISaIvEEEEEEC2ES8_
FNDA:3,_ZNK5boost3_bi5list1IRKNS_10shared_ptrIKN8std_msgs5Int8_ISaIvEEEEEEixEPFNS_3argILi1EEEvE
FNDA:3,_ZNK5boost3_bi5list1IRKNS_10shared_ptrIKN8std_msgs8Float32_ISaIvEEEEEEixEPFNS_3argILi1EEEvE
FNDA:3,_ZNK5boost3_bi5list1IRKNS_10shared_ptrIKN8std_msgs5Int8_ISaIvEEEEEEixIP10NavigationEERT_RNS0_5valueISF_EE
FNDA:3,_ZNK5boost3_bi5list1IRKNS_10shared_ptrIKN8std_msgs8Float32_ISaIvEEEEEEixIP10NavigationEERT_RNS0_5valueISF_EE
FNDA:0,_ZN5boost3_bi5list1INS_17reference_wrapperIKN8std_msgs5Int8_ISaIvEEEEEEclIN3ros17SerializedMessageEPFSC_RS7_ENS0_5list0EEET_NS0_4typeISH_EERT0_RT1_l
FNDA:0,_ZN5boost3_bi5list1INS_17reference_wrapperIKN8std_msgs8Float32_ISaIvEEEEEEclIN3ros17SerializedMessageEPFSC_RS7_ENS0_5list0EEET_NS0_4typeISH_EERT0_RT1_l
FNDA:6,_ZN5boost3_bi5list2INS0_5valueIP10NavigationEENS_3argILi1EEEEC2ES5_S7_
FNDA:3,_ZN5boost3_bi5list2INS0_5valueIP10NavigationEENS_3argILi1EEEEclINS_4_mfi3mf1IvS3_RKNS_10shared_ptrIKN8std_msgs5Int8_ISaIvEEEEEEENS0_5list1ISK_EEEEvNS0_4typeIvEERT_RT0_i
FNDA:3,_ZN5boost3_bi5list2INS0_5valueIP10NavigationEENS_3argILi1EEEEclINS_4_mfi3mf1IvS3_RKNS_10shared_ptrIKN8std_msgs8Float32_ISaIvEEEEEEENS0_5list1ISK_EEEEvNS0_4typeIvEERT_RT0_i
FNDA:0,_ZN5boost3_bi6bind_tIN3ros17SerializedMessageEPFS3_RKN8std_msgs5Int8_ISaIvEEEENS0_5list1INS_17reference_wrapperIS8_EEEEEC2ESB_RKSF_
FNDA:3,_ZN5boost3_bi6bind_tIvNS_4_mfi3mf1Iv10NavigationRKNS_10shared_ptrIKN8std_msgs5Int8_ISaIvEEEEEEENS0_5list2INS0_5valueIPS4_EENS_3argILi1EEEEEEC2ESE_RKSL_
FNDA:0,_ZN5boost3_bi6bind_tIN3ros17SerializedMessageEPFS3_RKN8std_msgs8Float32_ISaIvEEEENS0_5list1INS_17reference_wrapperIS8_EEEEEC2ESB_RKSF_
FNDA:3,_ZN5boost3_bi6bind_tIvNS_4_mfi3mf1Iv10NavigationRKNS_10shared_ptrIKN8std_msgs8Float32_ISaIvEEEEEEENS0_5list2INS0_5valueIPS4_EENS_3argILi1EEEEEEC2ESE_RKSL_
FNDA:0,_ZN5boost3_bi6bind_tIN3ros17SerializedMessageEPFS3_RKN8std_msgs5Int8_ISaIvEEEENS0_5list1INS_17reference_wrapperIS8_EEEEEclEv
FNDA:0,_ZN5boost3_bi6bind_tIN3ros17SerializedMessageEPFS3_RKN8std_msgs8Float32_ISaIvEEEENS0_5list1INS_17reference_wrapperIS8_EEEEEclEv
FNDA:3,_ZN5boost3_bi6bind_tIvNS_4_mfi3mf1Iv10NavigationRKNS_10shared_ptrIKN8std_msgs5Int8_ISaIvEEEEEEENS0_5list2INS0_5valueIPS4_EENS_3argILi1EEEEEEclISD_EEvOT_
FNDA:3,_ZN5boost3_bi6bind_tIvNS_4_mfi3mf1Iv10NavigationRKNS_10shared_ptrIKN8std_msgs8Float32_ISaIvEEEEEEENS0_5list2INS0_5valueIPS4_EENS_3argILi1EEEEEEclISD_EEvOT_
FNF:30
FNH:17
DA:116,6
DA:118,6
DA:146,6
DA:148,6
DA:168,0
DA:174,0
DA:225,6
DA:229,6
DA:231,6
DA:241,0
DA:243,0
DA:283,6
DA:311,6
DA:313,6
DA:314,6
DA:886,6
DA:890,0
DA:892,0
DA:893,0
DA:902,6
DA:904,6
DA:905,6
LF:22
LH:15
end_of_record
SF:/usr/include/boost/bind/bind_cc.hpp
FN:26,_ZN5boost4bindIN3ros17SerializedMessageERKN8std_msgs5Int8_ISaIvEEENS_17reference_wrapperIS7_EEEENS_3_bi6bind_tIT_PFSD_T0_ENSB_9list_av_1IT1_E4typeEEESG_SI_
FN:26,_ZN5boost4bindIN3ros17SerializedMessageERKN8std_msgs8Float32_ISaIvEEENS_17reference_wrapperIS7_EEEENS_3_bi6bind_tIT_PFSD_T0_ENSB_9list_av_1IT1_E4typeEEESG_SI_
FNDA:0,_ZN5boost4bindIN3ros17SerializedMessageERKN8std_msgs5Int8_ISaIvEEENS_17reference_wrapperIS7_EEEENS_3_bi6bind_tIT_PFSD_T0_ENSB_9list_av_1IT1_E4typeEEESG_SI_
FNDA:0,_ZN5boost4bindIN3ros17SerializedMessageERKN8std_msgs8Float32_ISaIvEEENS_17reference_wrapperIS7_EEEENS_3_bi6bind_tIT_PFSD_T0_ENSB_9list_av_1IT1_E4typeEEESG_SI_
FNF:2
FNH:0
DA:26,0
DA:30,0
LF:2
LH:0
end_of_record
SF:/usr/include/boost/bind/bind_mf_cc.hpp
FN:63,_ZN5boost4bindIv10NavigationRKNS_10shared_ptrIKN8std_msgs8Float32_ISaIvEEEEEPS1_NS_3argILi1EEEEENS_3_bi6bind_tIT_NS_4_mfi3mf1ISG_T0_T1_EENSE_9list_av_2IT2_T3_E4typeEEEMSJ_FSG_SK_ESN_SO_
FN:63,_ZN5boost4bindIv10NavigationRKNS_10shared_ptrIKN8std_msgs5Int8_ISaIvEEEEEPS1_NS_3argILi1EEEEENS_3_bi6bind_tIT_NS_4_mfi3mf1ISG_T0_T1_EENSE_9list_av_2IT2_T3_E4typeEEEMSJ_FSG_SK_ESN_SO_
FNDA:3,_ZN5boost4bindIv10NavigationRKNS_10shared_ptrIKN8std_msgs5Int8_ISaIvEEEEEPS1_NS_3argILi1EEEEENS_3_bi6bind_tIT_NS_4_mfi3mf1ISG_T0_T1_EENSE_9list_av_2IT2_T3_E4typeEEEMSJ_FSG_SK_ESN_SO_
FNDA:3,_ZN5boost4bindIv10NavigationRKNS_10shared_ptrIKN8std_msgs8Float32_ISaIvEEEEEPS1_NS_3argILi1EEEEENS_3_bi6bind_tIT_NS_4_mfi3mf1ISG_T0_T1_EENSE_9list_av_2IT2_T3_E4typeEEEMSJ_FSG_SK_ESN_SO_
FNF:2
FNH:2
DA:63,6
DA:67,6
LF:2
LH:2
end_of_record
SF:/usr/include/boost/bind/mem_fn_template.hpp
FN:161,_ZN5boost4_mfi3mf1Iv10NavigationRKNS_10shared_ptrIKN8std_msgs8Float32_ISaIvEEEEEEC2EMS2_FvSB_E
FN:161,_ZN5boost4_mfi3mf1Iv10NavigationRKNS_10shared_ptrIKN8std_msgs5Int8_ISaIvEEEEEEC2EMS2_FvSB_E
FN:163,_ZNK5boost4_mfi3mf1Iv10NavigationRKNS_10shared_ptrIKN8std_msgs8Float32_ISaIvEEEEEEclEPS2_SB_
FN:163,_ZNK5boost4_mfi3mf1Iv10NavigationRKNS_10shared_ptrIKN8std_msgs5Int8_ISaIvEEEEEEclEPS2_SB_
FNDA:3,_ZN5boost4_mfi3mf1Iv10NavigationRKNS_10shared_ptrIKN8std_msgs5Int8_ISaIvEEEEEEC2EMS2_FvSB_E
FNDA:3,_ZN5boost4_mfi3mf1Iv10NavigationRKNS_10shared_ptrIKN8std_msgs8Float32_ISaIvEEEEEEC2EMS2_FvSB_E
FNDA:3,_ZNK5boost4_mfi3mf1Iv10NavigationRKNS_10shared_ptrIKN8std_msgs5Int8_ISaIvEEEEEEclEPS2_SB_
FNDA:3,_ZNK5boost4_mfi3mf1Iv10NavigationRKNS_10shared_ptrIKN8std_msgs8Float32_ISaIvEEEEEEclEPS2_SB_
FNF:4
FNH:4
DA:161,6
DA:163,6
DA:165,6
LF:3
LH:3
end_of_record
SF:/usr/include/boost/bind/placeholders.hpp
DA:55,1
DA:56,1
DA:57,1
DA:58,1
DA:59,1
DA:60,1
DA:61,1
DA:62,1
DA:63,1
LF:9
LH:9
end_of_record
SF:/usr/include/boost/bind/storage.hpp
FN:42,_ZN5boost3_bi8storage1INS_17reference_wrapperIKN8std_msgs8Float32_ISaIvEEEEEEC2ES8_
FN:42,_ZN5boost3_bi8storage1IRKNS_10shared_ptrIKN8std_msgs5Int8_ISaIvEEEEEEC2ESA_
FN:42,_ZN5boost3_bi8storage1INS0_5valueIP10NavigationEEEC2ES5_
FN:42,_ZN5boost3_bi8storage1IRKNS_10shared_ptrIKN8std_msgs8Float32_ISaIvEEEEEEC2ESA_
FN:42,_ZN5boost3_bi8storage1INS_17reference_wrapperIKN8std_msgs5Int8_ISaIvEEEEEEC2ES8_
FN:97,_ZN5boost3_bi8storage2INS0_5valueIP10NavigationEENS_3argILi1EEEEC2ES5_S7_
FN:104,_ZN5boost3_bi8storage2INS0_5valueIP10NavigationEENS_3argILi1EEEE3a2_Ev
FNDA:3,_ZN5boost3_bi8storage1IRKNS_10shared_ptrIKN8std_msgs5Int8_ISaIvEEEEEEC2ESA_
FNDA:3,_ZN5boost3_bi8storage1IRKNS_10shared_ptrIKN8std_msgs8Float32_ISaIvEEEEEEC2ESA_
FNDA:6,_ZN5boost3_bi8storage1INS0_5valueIP10NavigationEEEC2ES5_
FNDA:0,_ZN5boost3_bi8storage1INS_17reference_wrapperIKN8std_msgs5Int8_ISaIvEEEEEEC2ES8_
FNDA:0,_ZN5boost3_bi8storage1INS_17reference_wrapperIKN8std_msgs8Float32_ISaIvEEEEEEC2ES8_
FNDA:6,_ZN5boost3_bi8storage2INS0_5valueIP10NavigationEENS_3argILi1EEEEC2ES5_S7_
FNDA:0,_ZN5boost3_bi8storage2INS0_5valueIP10NavigationEENS_3argILi1EEEE3a2_Ev
FNF:7
FNH:4
DA:42,12
DA:97,6
DA:104,0
LF:3
LH:2
end_of_record
SF:/usr/include/boost/core/addressof.hpp
DA:29,18
DA:30,18
DA:41,18
DA:116,36
LF:4
LH:4
end_of_record
SF:/usr/include/boost/core/checked_delete.hpp
FN:37,_ZN5boost20checked_array_deleteIhEEvPT_
FN:61,_ZNK5boost21checked_array_deleterIhEclEPh
FNDA:0,_ZN5boost20checked_array_deleteIhEEvPT_
FNDA:0,_ZNK5boost21checked_array_deleterIhEclEPh
FNF:2
FNH:0
DA:37,0
DA:41,0
DA:42,0
DA:61,0
DA:63,0
DA:64,0
LF:6
LH:0
end_of_record
SF:/usr/include/boost/core/ref.hpp
DA:73,0
DA:99,0
DA:139,0
LF:3
LH:0
end_of_record
SF:/usr/include/boost/exception/exception.hpp
FN:27,_ZN5boost16exception_detail12refcount_ptrINS0_20error_info_containerEEC2Ev
FN:32,_ZN5boost16exception_detail12refcount_ptrINS0_20error_info_containerEED2Ev
FN:37,_ZN5boost16exception_detail12refcount_ptrINS0_20error_info_containerEEC2ERKS3_
FN:44,_ZN5boost16exception_detail12refcount_ptrINS0_20error_info_containerEEaSERKS3_
FN:51,_ZN5boost16exception_detail12refcount_ptrINS0_20error_info_containerEE5adoptEPS2_
FN:59,_ZNK5boost16exception_detail12refcount_ptrINS0_20error_info_containerEE3getEv
FN:69,_ZN5boost16exception_detail12refcount_ptrINS0_20error_info_containerEE7add_refEv
FN:76,_ZN5boost16exception_detail12refcount_ptrINS0_20error_info_containerEE7releaseEv
FN:208,_ZN5boost9exceptionC2ERKS0_
FN:218,_ZN5boost9exceptionC2Ev
FN:281,_ZN5boost9exceptionD0Ev
FN:281,_ZN5boost9exceptionD2Ev
FN:326,_ZN5boost16exception_detail19error_info_injectorINS_17bad_function_callEEC2ERKS3_
FN:331,_ZN5boost16exception_detail19error_info_injectorINS_17bad_function_callEEC2ERKS2_
FN:336,_ZN5boost16exception_detail19error_info_injectorINS_17bad_function_callEED0Ev
FN:336,_ZN5boost16exception_detail19error_info_injectorINS_17bad_function_callEED2Ev
FN:381,_ZN5boost17enable_error_infoINS_17bad_function_callEEENS_16exception_detail29enable_error_info_return_typeIT_E4typeERKS4_
FN:398,_ZN5boost16exception_detail10clone_baseC2Ev
FN:398,_ZN5boost16exception_detail10clone_baseC2ERKS1_
FN:406,_ZN5boost16exception_detail10clone_baseD0Ev
FN:406,_ZN5boost16exception_detail10clone_baseD2Ev
FN:418,_ZN5boost16exception_detail20copy_boost_exceptionEPNS_9exceptionEPKS1_
FN:437,_ZN5boost16exception_detail10clone_implINS0_19error_info_injectorINS_17bad_function_callEEEEC1ERKS5_
FN:442,_ZN5boost16exception_detail10clone_implINS0_19error_info_injectorINS_17bad_function_callEEEEC1ERKS5_NS5_9clone_tagE
FN:451,_ZN5boost16exception_detail10clone_implINS0_19error_info_injectorINS_17bad_function_callEEEEC1ERKS4_
FN:457,_ZN5boost16exception_detail10clone_implINS0_19error_info_injectorINS_17bad_function_callEEEED1Ev
FN:457,_ZN5boost16exception_detail10clone_implINS0_19error_info_injectorINS_17bad_function_callEEEED0Ev
FN:464,_ZNK5boost16exception_detail10clone_implINS0_19error_info_injectorINS_17bad_function_callEEEE5cloneEv
FN:470,_ZNK5boost16exception_detail10clone_implINS0_19error_info_injectorINS_17bad_function_callEEEE7rethrowEv
FN:480,_ZN5boost24enable_current_exceptionINS_16exception_detail19error_info_injectorINS_17bad_function_callEEEEENS1_10clone_implIT_EERKS6_
FNDA:0,_ZN5boost16exception_detail12refcount_ptrINS0_20error_info_containerEEC2Ev
FNDA:0,_ZN5boost16exception_detail12refcount_ptrINS0_20error_info_containerEED2Ev
FNDA:0,_ZN5boost16exception_detail12refcount_ptrINS0_20error_info_containerEEC2ERKS3_
FNDA:0,_ZN5boost16exception_detail12refcount_ptrINS0_20error_info_containerEEaSERKS3_
FNDA:0,_ZN5boost16exception_detail12refcount_ptrINS0_20error_info_containerEE5adoptEPS2_
FNDA:0,_ZNK5boost16exception_detail12refcount_ptrINS0_20error_info_containerEE3getEv
FNDA:0,_ZN5boost16exception_detail12refcount_ptrINS0_20error_info_containerEE7add_refEv
FNDA:0,_ZN5boost16exception_detail12refcount_ptrINS0_20error_info_containerEE7releaseEv
FNDA:0,_ZN5boost9exceptionC2ERKS0_
FNDA:0,_ZN5boost9exceptionC2Ev
FNDA:0,_ZN5boost9exceptionD0Ev
FNDA:0,_ZN5boost9exceptionD2Ev
FNDA:0,_ZN5boost16exception_detail19error_info_injectorINS_17bad_function_callEEC2ERKS3_
FNDA:0,_ZN5boost16exception_detail19error_info_injectorINS_17bad_function_callEEC2ERKS2_
FNDA:0,_ZN5boost16exception_detail19error_info_injectorINS_17bad_function_callEED0Ev
FNDA:0,_ZN5boost16exception_detail19error_info_injectorINS_17bad_function_callEED2Ev
FNDA:0,_ZN5boost17enable_error_infoINS_17bad_function_callEEENS_16exception_detail29enable_error_info_return_typeIT_E4typeERKS4_
FNDA:0,_ZN5boost16exception_detail10clone_baseC2Ev
FNDA:0,_ZN5boost16exception_detail10clone_baseC2ERKS1_
FNDA:0,_ZN5boost16exception_detail10clone_baseD0Ev
FNDA:0,_ZN5boost16exception_detail10clone_baseD2Ev
FNDA:0,_ZN5boost16exception_detail20copy_boost_exceptionEPNS_9exceptionEPKS1_
FNDA:0,_ZN5boost16exception_detail10clone_implINS0_19error_info_injectorINS_17bad_function_callEEEEC1ERKS5_
FNDA:0,_ZN5boost16exception_detail10clone_implINS0_19error_info_injectorINS_17bad_function_callEEEEC1ERKS5_NS5_9clone_tagE
FNDA:0,_ZN5boost16exception_detail10clone_implINS0_19error_info_injectorINS_17bad_function_callEEEEC1ERKS4_
FNDA:0,_ZN5boost16exception_detail10clone_implINS0_19error_info_injectorINS_17bad_function_callEEEED0Ev
FNDA:0,_ZN5boost16exception_detail10clone_implINS0_19error_info_injectorINS_17bad_function_callEEEED1Ev
FNDA:0,_ZNK5boost16exception_detail10clone_implINS0_19error_info_injectorINS_17bad_function_callEEEE5cloneEv
FNDA:0,_ZNK5boost16exception_detail10clone_implINS0_19error_info_injectorINS_17bad_function_callEEEE7rethrowEv
FNDA:0,_ZN5boost24enable_current_exceptionINS_16exception_detail19error_info_injectorINS_17bad_function_callEEEEENS1_10clone_implIT_EERKS6_
FNF:30
FNH:0
DA:27,0
DA:28,0
DA:30,0
DA:32,0
DA:34,0
DA:35,0
DA:37,0
DA:38,0
DA:40,0
DA:41,0
DA:44,0
DA:46,0
DA:47,0
DA:51,0
DA:53,0
DA:54,0
DA:55,0
DA:56,0
DA:59,0
DA:61,0
DA:69,0
DA:71,0
DA:72,0
DA:73,0
DA:76,0
DA:78,0
DA:79,0
DA:80,0
DA:208,0
DA:218,0
DA:221,0
DA:223,0
DA:281,0
DA:282,0
DA:284,0
DA:326,0
DA:331,0
DA:332,0
DA:334,0
DA:336,0
DA:338,0
DA:381,0
DA:384,0
DA:398,0
DA:406,0
DA:407,0
DA:408,0
DA:418,0
DA:420,0
DA:421,0
DA:422,0
DA:423,0
DA:424,0
DA:425,0
DA:426,0
DA:427,0
DA:437,0
DA:442,0
DA:443,0
DA:445,0
DA:446,0
DA:451,0
DA:452,0
DA:454,0
DA:455,0
DA:457,0
DA:459,0
DA:464,0
DA:466,0
DA:470,0
DA:472,0
DA:480,0
DA:482,0
LF:73
LH:0
end_of_record
SF:/usr/include/boost/function/function_base.hpp
FN:312,_ZN5boost6detail8function22functor_manager_commonINS_3_bi6bind_tIvNS_4_mfi3mf1Iv10NavigationRKNS_10shared_ptrIKN8std_msgs5Int8_ISaIvEEEEEEENS3_5list2INS3_5valueIPS7_EENS_3argILi1EEEEEEEE12manage_smallERKNS1_15function_bufferERSR_NS1_30functor_manager_operation_typeE
FN:312,_ZN5boost6detail8function22functor_manager_commonINS_3_bi6bind_tIvNS_4_mfi3mf1Iv10NavigationRKNS_10shared_ptrIKN8std_msgs8Float32_ISaIvEEEEEEENS3_5list2INS3_5valueIPS7_EENS_3argILi1EEEEEEEE12manage_smallERKNS1_15function_bufferERSR_NS1_30functor_manager_operation_typeE
FN:312,_ZN5boost6detail8function22functor_manager_commonINS_3_bi6bind_tIN3ros17SerializedMessageEPFS6_RKN8std_msgs8Float32_ISaIvEEEENS3_5list1INS_17reference_wrapperISB_EEEEEEE12manage_smallERKNS1_15function_bufferERSL_NS1_30functor_manager_operation_typeE
FN:312,_ZN5boost6detail8function22functor_manager_commonIN3ros21DefaultMessageCreatorIN8std_msgs5Int8_ISaIvEEEEEE12manage_smallERKNS1_15function_bufferERSB_NS1_30functor_manager_operation_typeE
FN:312,_ZN5boost6detail8function22functor_manager_commonINS_3_bi6bind_tIN3ros17SerializedMessageEPFS6_RKN8std_msgs5Int8_ISaIvEEEENS3_5list1INS_17reference_wrapperISB_EEEEEEE12manage_smallERKNS1_15function_bufferERSL_NS1_30functor_manager_operation_typeE
FN:312,_ZN5boost6detail8function22functor_manager_commonIN3ros21DefaultMessageCreatorIN8std_msgs8Float32_ISaIvEEEEEE12manage_smallERKNS1_15function_bufferERSB_NS1_30functor_manager_operation_typeE
FN:361,_ZN5boost6detail8function15functor_managerINS_3_bi6bind_tIvNS_4_mfi3mf1Iv10NavigationRKNS_10shared_ptrIKN8std_msgs8Float32_ISaIvEEEEEEENS3_5list2INS3_5valueIPS7_EENS_3argILi1EEEEEEEE7managerERKNS1_15function_bufferERSR_NS1_30functor_manager_operation_typeEN4mpl_5bool_ILb1EEE
FN:361,_ZN5boost6detail8function15functor_managerINS_3_bi6bind_tIN3ros17SerializedMessageEPFS6_RKN8std_msgs8Float32_ISaIvEEEENS3_5list1INS_17reference_wrapperISB_EEEEEEE7managerERKNS1_15function_bufferERSL_NS1_30functor_manager_operation_typeEN4mpl_5bool_ILb1EEE
FN:361,_ZN5boost6detail8function15functor_managerIN3ros21DefaultMessageCreatorIN8std_msgs5Int8_ISaIvEEEEEE7managerERKNS1_15function_bufferERSB_NS1_30functor_manager_operation_typeEN4mpl_5bool_ILb1EEE
FN:361,_ZN5boost6detail8function15functor_managerIN3ros21DefaultMessageCreatorIN8std_msgs8Float32_ISaIvEEEEEE7managerERKNS1_15function_bufferERSB_NS1_30functor_manager_operation_typeEN4mpl_5bool_ILb1EEE
FN:361,_ZN5boost6detail8function15functor_managerINS_3_bi6bind_tIN3ros17SerializedMessageEPFS6_RKN8std_msgs5Int8_ISaIvEEEENS3_5list1INS_17reference_wrapperISB_EEEEEEE7managerERKNS1_15function_bufferERSL_NS1_30functor_manager_operation_typeEN4mpl_5bool_ILb1EEE
FN:361,_ZN5boost6detail8function15functor_managerINS_3_bi6bind_tIvNS_4_mfi3mf1Iv10NavigationRKNS_10shared_ptrIKN8std_msgs5Int8_ISaIvEEEEEEENS3_5list2INS3_5valueIPS7_EENS_3argILi1EEEEEEEE7managerERKNS1_15function_bufferERSR_NS1_30functor_manager_operation_typeEN4mpl_5bool_ILb1EEE
FN:369,_ZN5boost6detail8function15functor_managerINS_8functionIFvRKNS_10shared_ptrIKN8std_msgs8Float32_ISaIvEEEEEEEEE7managerERKNS1_15function_bufferERSG_NS1_30functor_manager_operation_typeEN4mpl_5bool_ILb0EEE
FN:369,_ZN5boost6detail8function15functor_managerINS_8functionIFvRKNS_10shared_ptrIKN8std_msgs5Int8_ISaIvEEEEEEEEE7managerERKNS1_15function_bufferERSG_NS1_30functor_manager_operation_typeEN4mpl_5bool_ILb0EEE
FN:409,_ZN5boost6detail8function15functor_managerIN3ros21DefaultMessageCreatorIN8std_msgs5Int8_ISaIvEEEEEE7managerERKNS1_15function_bufferERSB_NS1_30functor_manager_operation_typeENS1_16function_obj_tagE
FN:409,_ZN5boost6detail8function15functor_managerINS_8functionIFvRKNS_10shared_ptrIKN8std_msgs8Float32_ISaIvEEEEEEEEE7managerERKNS1_15function_bufferERSG_NS1_30functor_manager_operation_typeENS1_16function_obj_tagE
FN:409,_ZN5boost6detail8function15functor_managerINS_3_bi6bind_tIN3ros17SerializedMessageEPFS6_RKN8std_msgs8Float32_ISaIvEEEENS3_5list1INS_17reference_wrapperISB_EEEEEEE7managerERKNS1_15function_bufferERSL_NS1_30functor_manager_operation_typeENS1_16function_obj_tagE
FN:409,_ZN5boost6detail8function15functor_managerINS_3_bi6bind_tIvNS_4_mfi3mf1Iv10NavigationRKNS_10shared_ptrIKN8std_msgs8Float32_ISaIvEEEEEEENS3_5list2INS3_5valueIPS7_EENS_3argILi1EEEEEEEE7managerERKNS1_15function_bufferERSR_NS1_30functor_manager_operation_typeENS1_16function_obj_tagE
FN:409,_ZN5boost6detail8function15functor_managerINS_8functionIFvRKNS_10shared_ptrIKN8std_msgs5Int8_ISaIvEEEEEEEEE7managerERKNS1_15function_bufferERSG_NS1_30functor_manager_operation_typeENS1_16function_obj_tagE
FN:409,_ZN5boost6detail8function15functor_managerIN3ros21DefaultMessageCreatorIN8std_msgs8Float32_ISaIvEEEEEE7managerERKNS1_15function_bufferERSB_NS1_30functor_manager_operation_typeENS1_16function_obj_tagE
FN:409,_ZN5boost6detail8function15functor_managerINS_3_bi6bind_tIN3ros17SerializedMessageEPFS6_RKN8std_msgs5Int8_ISaIvEEEENS3_5list1INS_17reference_wrapperISB_EEEEEEE7managerERKNS1_15function_bufferERSL_NS1_30functor_manager_operation_typeENS1_16function_obj_tagE
FN:409,_ZN5boost6detail8function15functor_managerINS_3_bi6bind_tIvNS_4_mfi3mf1Iv10NavigationRKNS_10shared_ptrIKN8std_msgs5Int8_ISaIvEEEEEEENS3_5list2INS3_5valueIPS7_EENS_3argILi1EEEEEEEE7managerERKNS1_15function_bufferERSR_NS1_30functor_manager_operation_typeENS1_16function_obj_tagE
FN:428,_ZN5boost6detail8function15functor_managerINS_3_bi6bind_tIvNS_4_mfi3mf1Iv10NavigationRKNS_10shared_ptrIKN8std_msgs5Int8_ISaIvEEEEEEENS3_5list2INS3_5valueIPS7_EENS_3argILi1EEEEEEEE6manageERKNS1_15function_bufferERSR_NS1_30functor_manager_operation_typeE
FN:428,_ZN5boost6detail8function15functor_managerINS_8functionIFvRKNS_10shared_ptrIKN8std_msgs5Int8_ISaIvEEEEEEEEE6manageERKNS1_15function_bufferERSG_NS1_30functor_manager_operation_typeE
FN:428,_ZN5boost6detail8function15functor_managerINS_3_bi6bind_tIN3ros17SerializedMessageEPFS6_RKN8std_msgs5Int8_ISaIvEEEENS3_5list1INS_17reference_wrapperISB_EEEEEEE6manageERKNS1_15function_bufferERSL_NS1_30functor_manager_operation_typeE
FN:428,_ZN5boost6detail8function15functor_managerIN3ros21DefaultMessageCreatorIN8std_msgs8Float32_ISaIvEEEEEE6manageERKNS1_15function_bufferERSB_NS1_30functor_manager_operation_typeE
FN:428,_ZN5boost6detail8function15functor_managerIN3ros21DefaultMessageCreatorIN8std_msgs5Int8_ISaIvEEEEEE6manageERKNS1_15function_bufferERSB_NS1_30functor_manager_operation_typeE
FN:428,_ZN5boost6detail8function15functor_managerINS_8functionIFvRKNS_10shared_ptrIKN8std_msgs8Float32_ISaIvEEEEEEEEE6manageERKNS1_15function_bufferERSG_NS1_30functor_manager_operation_typeE
FN:428,_ZN5boost6detail8function15functor_managerINS_3_bi6bind_tIvNS_4_mfi3mf1Iv10NavigationRKNS_10shared_ptrIKN8std_msgs8Float32_ISaIvEEEEEEENS3_5list2INS3_5valueIPS7_EENS_3argILi1EEEEEEEE6manageERKNS1_15function_bufferERSR_NS1_30functor_manager_operation_typeE
FN:428,_ZN5boost6detail8function15functor_managerINS_3_bi6bind_tIN3ros17SerializedMessageEPFS6_RKN8std_msgs8Float32_ISaIvEEEENS3_5list1INS_17reference_wrapperISB_EEEEEEE6manageERKNS1_15function_bufferERSL_NS1_30functor_manager_operation_typeE
FN:633,_ZN5boost13function_baseC2Ev
FN:636,_ZNK5boost13function_base5emptyEv
FN:719,_ZNK5boost13function_base28has_trivial_copy_and_destroyEv
FN:731,_ZN5boost17bad_function_callC2ERKS0_
FN:731,_ZN5boost17bad_function_callD2Ev
FN:731,_ZN5boost17bad_function_callD0Ev
FN:734,_ZN5boost17bad_function_callC2Ev
FN:875,_ZN5boost6detail8function16has_empty_targetEPKNS_13function_baseE
FN:886,_ZN5boost6detail8function16has_empty_targetEz
FNDA:0,_ZN5boost6detail8function22functor_manager_commonINS_3_bi6bind_tIN3ros17SerializedMessageEPFS6_RKN8std_msgs5Int8_ISaIvEEEENS3_5list1INS_17reference_wrapperISB_EEEEEEE12manage_smallERKNS1_15function_bufferERSL_NS1_30functor_manager_operation_typeE
FNDA:0,_ZN5boost6detail8function22functor_manager_commonIN3ros21DefaultMessageCreatorIN8std_msgs5Int8_ISaIvEEEEEE12manage_smallERKNS1_15function_bufferERSB_NS1_30functor_manager_operation_typeE
FNDA:0,_ZN5boost6detail8function22functor_manager_commonINS_3_bi6bind_tIvNS_4_mfi3mf1Iv10NavigationRKNS_10shared_ptrIKN8std_msgs5Int8_ISaIvEEEEEEENS3_5list2INS3_5valueIPS7_EENS_3argILi1EEEEEEEE12manage_smallERKNS1_15function_bufferERSR_NS1_30functor_manager_operation_typeE
FNDA:0,_ZN5boost6detail8function22functor_manager_commonINS_3_bi6bind_tIN3ros17SerializedMessageEPFS6_RKN8std_msgs8Float32_ISaIvEEEENS3_5list1INS_17reference_wrapperISB_EEEEEEE12manage_smallERKNS1_15function_bufferERSL_NS1_30functor_manager_operation_typeE
FNDA:0,_ZN5boost6detail8function22functor_manager_commonIN3ros21DefaultMessageCreatorIN8std_msgs8Float32_ISaIvEEEEEE12manage_smallERKNS1_15function_bufferERSB_NS1_30functor_manager_operation_typeE
FNDA:0,_ZN5boost6detail8function22functor_manager_commonINS_3_bi6bind_tIvNS_4_mfi3mf1Iv10NavigationRKNS_10shared_ptrIKN8std_msgs8Float32_ISaIvEEEEEEENS3_5list2INS3_5valueIPS7_EENS_3argILi1EEEEEEEE12manage_smallERKNS1_15function_bufferERSR_NS1_30functor_manager_operation_typeE
FNDA:0,_ZN5boost6detail8function15functor_managerINS_3_bi6bind_tIN3ros17SerializedMessageEPFS6_RKN8std_msgs5Int8_ISaIvEEEENS3_5list1INS_17reference_wrapperISB_EEEEEEE7managerERKNS1_15function_bufferERSL_NS1_30functor_manager_operation_typeEN4mpl_5bool_ILb1EEE
FNDA:0,_ZN5boost6detail8function15functor_managerIN3ros21DefaultMessageCreatorIN8std_msgs5Int8_ISaIvEEEEEE7managerERKNS1_15function_bufferERSB_NS1_30functor_manager_operation_typeEN4mpl_5bool_ILb1EEE
FNDA:0,_ZN5boost6detail8function15functor_managerINS_3_bi6bind_tIvNS_4_mfi3mf1Iv10NavigationRKNS_10shared_ptrIKN8std_msgs5Int8_ISaIvEEEEEEENS3_5list2INS3_5valueIPS7_EENS_3argILi1EEEEEEEE7managerERKNS1_15function_bufferERSR_NS1_30functor_manager_operation_typeEN4mpl_5bool_ILb1EEE
FNDA:0,_ZN5boost6detail8function15functor_managerINS_3_bi6bind_tIN3ros17SerializedMessageEPFS6_RKN8std_msgs8Float32_ISaIvEEEENS3_5list1INS_17reference_wrapperISB_EEEEEEE7managerERKNS1_15function_bufferERSL_NS1_30functor_manager_operation_typeEN4mpl_5bool_ILb1EEE
FNDA:0,_ZN5boost6detail8function15functor_managerIN3ros21DefaultMessageCreatorIN8std_msgs8Float32_ISaIvEEEEEE7managerERKNS1_15function_bufferERSB_NS1_30functor_manager_operation_typeEN4mpl_5bool_ILb1EEE
FNDA:0,_ZN5boost6detail8function15functor_managerINS_3_bi6bind_tIvNS_4_mfi3mf1Iv10NavigationRKNS_10shared_ptrIKN8std_msgs8Float32_ISaIvEEEEEEENS3_5list2INS3_5valueIPS7_EENS_3argILi1EEEEEEEE7managerERKNS1_15function_bufferERSR_NS1_30functor_manager_operation_typeEN4mpl_5bool_ILb1EEE
FNDA:9,_ZN5boost6detail8function15functor_managerINS_8functionIFvRKNS_10shared_ptrIKN8std_msgs5Int8_ISaIvEEEEEEEEE7managerERKNS1_15function_bufferERSG_NS1_30functor_manager_operation_typeEN4mpl_5bool_ILb0EEE
FNDA:9,_ZN5boost6detail8function15functor_managerINS_8functionIFvRKNS_10shared_ptrIKN8std_msgs8Float32_ISaIvEEEEEEEEE7managerERKNS1_15function_bufferERSG_NS1_30functor_manager_operation_typeEN4mpl_5bool_ILb0EEE
FNDA:9,_ZN5boost6detail8function15functor_managerINS_8functionIFvRKNS_10shared_ptrIKN8std_msgs5Int8_ISaIvEEEEEEEEE7managerERKNS1_15function_bufferERSG_NS1_30functor_manager_operation_typeENS1_16function_obj_tagE
FNDA:9,_ZN5boost6detail8function15functor_managerINS_8functionIFvRKNS_10shared_ptrIKN8std_msgs8Float32_ISaIvEEEEEEEEE7managerERKNS1_15function_bufferERSG_NS1_30functor_manager_operation_typeENS1_16function_obj_tagE
FNDA:0,_ZN5boost6detail8function15functor_managerINS_3_bi6bind_tIN3ros17SerializedMessageEPFS6_RKN8std_msgs5Int8_ISaIvEEEENS3_5list1INS_17reference_wrapperISB_EEEEEEE7managerERKNS1_15function_bufferERSL_NS1_30functor_manager_operation_typeENS1_16function_obj_tagE
FNDA:0,_ZN5boost6detail8function15functor_managerIN3ros21DefaultMessageCreatorIN8std_msgs5Int8_ISaIvEEEEEE7managerERKNS1_15function_bufferERSB_NS1_30functor_manager_operation_typeENS1_16function_obj_tagE
FNDA:0,_ZN5boost6detail8function15functor_managerINS_3_bi6bind_tIvNS_4_mfi3mf1Iv10NavigationRKNS_10shared_ptrIKN8std_msgs5Int8_ISaIvEEEEEEENS3_5list2INS3_5valueIPS7_EENS_3argILi1EEEEEEEE7managerERKNS1_15function_bufferERSR_NS1_30functor_manager_operation_typeENS1_16function_obj_tagE
FNDA:0,_ZN5boost6detail8function15functor_managerINS_3_bi6bind_tIN3ros17SerializedMessageEPFS6_RKN8std_msgs8Float32_ISaIvEEEENS3_5list1INS_17reference_wrapperISB_EEEEEEE7managerERKNS1_15function_bufferERSL_NS1_30functor_manager_operation_typeENS1_16function_obj_tagE
FNDA:0,_ZN5boost6detail8function15functor_managerIN3ros21DefaultMessageCreatorIN8std_msgs8Float32_ISaIvEEEEEE7managerERKNS1_15function_bufferERSB_NS1_30functor_manager_operation_typeENS1_16function_obj_tagE
FNDA:0,_ZN5boost6detail8function15functor_managerINS_3_bi6bind_tIvNS_4_mfi3mf1Iv10NavigationRKNS_10shared_ptrIKN8std_msgs8Float32_ISaIvEEEEEEENS3_5list2INS3_5valueIPS7_EENS_3argILi1EEEEEEEE7managerERKNS1_15function_bufferERSR_NS1_30functor_manager_operation_typeENS1_16function_obj_tagE
FNDA:9,_ZN5boost6detail8function15functor_managerINS_8functionIFvRKNS_10shared_ptrIKN8std_msgs5Int8_ISaIvEEEEEEEEE6manageERKNS1_15function_bufferERSG_NS1_30functor_manager_operation_typeE
FNDA:9,_ZN5boost6detail8function15functor_managerINS_8functionIFvRKNS_10shared_ptrIKN8std_msgs8Float32_ISaIvEEEEEEEEE6manageERKNS1_15function_bufferERSG_NS1_30functor_manager_operation_typeE
FNDA:0,_ZN5boost6detail8function15functor_managerINS_3_bi6bind_tIN3ros17SerializedMessageEPFS6_RKN8std_msgs5Int8_ISaIvEEEENS3_5list1INS_17reference_wrapperISB_EEEEEEE6manageERKNS1_15function_bufferERSL_NS1_30functor_manager_operation_typeE
FNDA:0,_ZN5boost6detail8function15functor_managerIN3ros21DefaultMessageCreatorIN8std_msgs5Int8_ISaIvEEEEEE6manageERKNS1_15function_bufferERSB_NS1_30functor_manager_operation_typeE
FNDA:0,_ZN5boost6detail8function15functor_managerINS_3_bi6bind_tIvNS_4_mfi3mf1Iv10NavigationRKNS_10shared_ptrIKN8std_msgs5Int8_ISaIvEEEEEEENS3_5list2INS3_5valueIPS7_EENS_3argILi1EEEEEEEE6manageERKNS1_15function_bufferERSR_NS1_30functor_manager_operation_typeE
FNDA:0,_ZN5boost6detail8function15functor_managerINS_3_bi6bind_tIN3ros17SerializedMessageEPFS6_RKN8std_msgs8Float32_ISaIvEEEENS3_5list1INS_17reference_wrapperISB_EEEEEEE6manageERKNS1_15function_bufferERSL_NS1_30functor_manager_operation_typeE
FNDA:0,_ZN5boost6detail8function15functor_managerIN3ros21DefaultMessageCreatorIN8std_msgs8Float32_ISaIvEEEEEE6manageERKNS1_15function_bufferERSB_NS1_30functor_manager_operation_typeE
FNDA:0,_ZN5boost6detail8function15functor_managerINS_3_bi6bind_tIvNS_4_mfi3mf1Iv10NavigationRKNS_10shared_ptrIKN8std_msgs8Float32_ISaIvEEEEEEENS3_5list2INS3_5valueIPS7_EENS_3argILi1EEEEEEEE6manageERKNS1_15function_bufferERSR_NS1_30functor_manager_operation_typeE
FNDA:0,_ZN5boost13function_baseC2Ev
FNDA:0,_ZNK5boost13function_base5emptyEv
FNDA:0,_ZNK5boost13function_base28has_trivial_copy_and_destroyEv
FNDA:0,_ZN5boost17bad_function_callC2ERKS0_
FNDA:0,_ZN5boost17bad_function_callD0Ev
FNDA:0,_ZN5boost17bad_function_callD2Ev
FNDA:0,_ZN5boost17bad_function_callC2Ev
FNDA:6,_ZN5boost6detail8function16has_empty_targetEPKNS_13function_baseE
FNDA:0,_ZN5boost6detail8function16has_empty_targetEz
FNF:39
FNH:7
DA:312,0
DA:315,0
DA:317,0
DA:318,0
DA:320,0
DA:321,0
DA:324,0
DA:325,0
DA:327,0
DA:330,0
DA:332,0
DA:333,0
DA:334,0
DA:336,0
DA:338,0
DA:339,0
DA:340,0
DA:342,0
DA:361,0
DA:364,0
DA:365,0
DA:369,18
DA:372,18
DA:379,6
DA:380,6
DA:381,6
DA:382,12
DA:383,0
DA:384,0
DA:385,12
DA:388,12
DA:389,12
DA:390,12
DA:391,0
DA:393,0
DA:394,0
DA:395,0
DA:397,0
DA:399,0
DA:400,0
DA:401,0
DA:403,18
DA:409,18
DA:412,18
DA:414,18
DA:428,18
DA:432,18
DA:434,0
DA:435,0
DA:436,0
DA:437,0
DA:440,18
DA:441,18
DA:633,0
DA:636,0
DA:719,0
DA:720,0
DA:731,0
DA:734,0
DA:875,6
DA:877,6
DA:886,0
DA:888,0
LF:63
LH:20
end_of_record
SF:/usr/include/boost/function/function_template.hpp
FN:129,_ZN5boost6detail8function21function_obj_invoker0IN3ros21DefaultMessageCreatorIN8std_msgs8Float32_ISaIvEEEEENS_10shared_ptrIS8_EEE6invokeERNS1_15function_bufferE
FN:129,_ZN5boost6detail8function21function_obj_invoker0INS_3_bi6bind_tIN3ros17SerializedMessageEPFS6_RKN8std_msgs5Int8_ISaIvEEEENS3_5list1INS_17reference_wrapperISB_EEEEEES6_E6invokeERNS1_15function_bufferE
FN:129,_ZN5boost6detail8function21function_obj_invoker0INS_3_bi6bind_tIN3ros17SerializedMessageEPFS6_RKN8std_msgs8Float32_ISaIvEEEENS3_5list1INS_17reference_wrapperISB_EEEEEES6_E6invokeERNS1_15function_bufferE
FN:129,_ZN5boost6detail8function21function_obj_invoker0IN3ros21DefaultMessageCreatorIN8std_msgs5Int8_ISaIvEEEEENS_10shared_ptrIS8_EEE6invokeERNS1_15function_bufferE
FN:150,_ZN5boost6detail8function26void_function_obj_invoker1INS_8functionIFvRKNS_10shared_ptrIKN8std_msgs8Float32_ISaIvEEEEEEEEvSA_E6invokeERNS1_15function_bufferESA_
FN:150,_ZN5boost6detail8function26void_function_obj_invoker1INS_3_bi6bind_tIvNS_4_mfi3mf1Iv10NavigationRKNS_10shared_ptrIKN8std_msgs5Int8_ISaIvEEEEEEENS3_5list2INS3_5valueIPS7_EENS_3argILi1EEEEEEEvSG_E6invokeERNS1_15function_bufferESG_
FN:150,_ZN5boost6detail8function26void_function_obj_invoker1INS_3_bi6bind_tIvNS_4_mfi3mf1Iv10NavigationRKNS_10shared_ptrIKN8std_msgs8Float32_ISaIvEEEEEEENS3_5list2INS3_5valueIPS7_EENS_3argILi1EEEEEEEvSG_E6invokeERNS1_15function_bufferESG_
FN:150,_ZN5boost6detail8function26void_function_obj_invoker1INS_8functionIFvRKNS_10shared_ptrIKN8std_msgs5Int8_ISaIvEEEEEEEEvSA_E6invokeERNS1_15function_bufferESA_
FN:495,_ZNK5boost6detail8function13basic_vtable1IvRKNS_10shared_ptrIKN8std_msgs5Int8_ISaIvEEEEEE9assign_toINS_3_bi6bind_tIvNS_4_mfi3mf1Iv10NavigationSB_EENSE_5list2INSE_5valueIPSI_EENS_3argILi1EEEEEEEEEbT_RNS1_15function_bufferE
FN:495,_ZNK5boost6detail8function13basic_vtable0IN3ros17SerializedMessageEE9assign_toINS_3_bi6bind_tIS4_PFS4_RKN8std_msgs5Int8_ISaIvEEEENS7_5list1INS_17reference_wrapperISD_EEEEEEEEbT_RNS1_15function_bufferE
FN:495,_ZNK5boost6detail8function13basic_vtable1IvRKNS_10shared_ptrIKN8std_msgs8Float32_ISaIvEEEEEE9assign_toINS_3_bi6bind_tIvNS_4_mfi3mf1Iv10NavigationSB_EENSE_5list2INSE_5valueIPSI_EENS_3argILi1EEEEEEEEEbT_RNS1_15function_bufferE
FN:495,_ZNK5boost6detail8function13basic_vtable0INS_10shared_ptrIN8std_msgs5Int8_ISaIvEEEEEE9assign_toIN3ros21DefaultMessageCreatorIS7_EEEEbT_RNS1_15function_bufferE
FN:495,_ZNK5boost6detail8function13basic_vtable0INS_10shared_ptrIN8std_msgs8Float32_ISaIvEEEEEE9assign_toIN3ros21DefaultMessageCreatorIS7_EEEEbT_RNS1_15function_bufferE
FN:495,_ZNK5boost6detail8function13basic_vtable1IvNS_10shared_ptrIKN8std_msgs8Float32_ISaIvEEEEEE9assign_toINS_8functionIFvRKS9_EEEEEbT_RNS1_15function_bufferE
FN:495,_ZNK5boost6detail8function13basic_vtable1IvNS_10shared_ptrIKN8std_msgs5Int8_ISaIvEEEEEE9assign_toINS_8functionIFvRKS9_EEEEEbT_RNS1_15function_bufferE
FN:495,_ZNK5boost6detail8function13basic_vtable0IN3ros17SerializedMessageEE9assign_toINS_3_bi6bind_tIS4_PFS4_RKN8std_msgs8Float32_ISaIvEEEENS7_5list1INS_17reference_wrapperISD_EEEEEEEEbT_RNS1_15function_bufferE
FN:507,_ZNK5boost6detail8function13basic_vtable1IvNS_10shared_ptrIKN8std_msgs5Int8_ISaIvEEEEEE5clearERNS1_15function_bufferE
FN:507,_ZNK5boost6detail8function13basic_vtable1IvRKN3ros25SingleSubscriberPublisherEE5clearERNS1_15function_bufferE
FN:507,_ZNK5boost6detail8function13basic_vtable1IvRKNS_10shared_ptrIKN8std_msgs8Float32_ISaIvEEEEEE5clearERNS1_15function_bufferE
FN:507,_ZNK5boost6detail8function13basic_vtable1IvRKNS_10shared_ptrIKN8std_msgs5Int8_ISaIvEEEEEE5clearERNS1_15function_bufferE
FN:507,_ZNK5boost6detail8function13basic_vtable1IvNS_10shared_ptrIKN8std_msgs8Float32_ISaIvEEEEEE5clearERNS1_15function_bufferE
FN:507,_ZNK5boost6detail8function13basic_vtable0INS_10shared_ptrIN8std_msgs8Float32_ISaIvEEEEEE5clearERNS1_15function_bufferE
FN:507,_ZNK5boost6detail8function13basic_vtable0IN3ros17SerializedMessageEE5clearERNS1_15function_bufferE
FN:507,_ZNK5boost6detail8function13basic_vtable0INS_10shared_ptrIN8std_msgs5Int8_ISaIvEEEEEE5clearERNS1_15function_bufferE
FN:570,_ZNK5boost6detail8function13basic_vtable1IvRKNS_10shared_ptrIKN8std_msgs5Int8_ISaIvEEEEEE14assign_functorINS_3_bi6bind_tIvNS_4_mfi3mf1Iv10NavigationSB_EENSE_5list2INSE_5valueIPSI_EENS_3argILi1EEEEEEEEEvT_RNS1_15function_bufferEN4mpl_5bool_ILb1EEE
FN:570,_ZNK5boost6detail8function13basic_vtable1IvRKNS_10shared_ptrIKN8std_msgs8Float32_ISaIvEEEEEE14assign_functorINS_3_bi6bind_tIvNS_4_mfi3mf1Iv10NavigationSB_EENSE_5list2INSE_5valueIPSI_EENS_3argILi1EEEEEEEEEvT_RNS1_15function_bufferEN4mpl_5bool_ILb1EEE
FN:570,_ZNK5boost6detail8function13basic_vtable0INS_10shared_ptrIN8std_msgs5Int8_ISaIvEEEEEE14assign_functorIN3ros21DefaultMessageCreatorIS7_EEEEvT_RNS1_15function_bufferEN4mpl_5bool_ILb1EEE
FN:570,_ZNK5boost6detail8function13basic_vtable0INS_10shared_ptrIN8std_msgs8Float32_ISaIvEEEEEE14assign_functorIN3ros21DefaultMessageCreatorIS7_EEEEvT_RNS1_15function_bufferEN4mpl_5bool_ILb1EEE
FN:570,_ZNK5boost6detail8function13basic_vtable0IN3ros17SerializedMessageEE14assign_functorINS_3_bi6bind_tIS4_PFS4_RKN8std_msgs8Float32_ISaIvEEEENS7_5list1INS_17reference_wrapperISD_EEEEEEEEvT_RNS1_15function_bufferEN4mpl_5bool_ILb1EEE
FN:570,_ZNK5boost6detail8function13basic_vtable0IN3ros17SerializedMessageEE14assign_functorINS_3_bi6bind_tIS4_PFS4_RKN8std_msgs5Int8_ISaIvEEEENS7_5list1INS_17reference_wrapperISD_EEEEEEEEvT_RNS1_15function_bufferEN4mpl_5bool_ILb1EEE
FN:584,_ZNK5boost6detail8function13basic_vtable1IvNS_10shared_ptrIKN8std_msgs8Float32_ISaIvEEEEEE14assign_functorINS_8functionIFvRKS9_EEEEEvT_RNS1_15function_bufferEN4mpl_5bool_ILb0EEE
FN:584,_ZNK5boost6detail8function13basic_vtable1IvNS_10shared_ptrIKN8std_msgs5Int8_ISaIvEEEEEE14assign_functorINS_8functionIFvRKS9_EEEEEvT_RNS1_15function_bufferEN4mpl_5bool_ILb0EEE
FN:605,_ZNK5boost6detail8function13basic_vtable0IN3ros17SerializedMessageEE9assign_toINS_3_bi6bind_tIS4_PFS4_RKN8std_msgs5Int8_ISaIvEEEENS7_5list1INS_17reference_wrapperISD_EEEEEEEEbT_RNS1_15function_bufferENS1_16function_obj_tagE
FN:605,_ZNK5boost6detail8function13basic_vtable1IvRKNS_10shared_ptrIKN8std_msgs5Int8_ISaIvEEEEEE9assign_toINS_3_bi6bind_tIvNS_4_mfi3mf1Iv10NavigationSB_EENSE_5list2INSE_5valueIPSI_EENS_3argILi1EEEEEEEEEbT_RNS1_15function_bufferENS1_16function_obj_tagE
FN:605,_ZNK5boost6detail8function13basic_vtable1IvNS_10shared_ptrIKN8std_msgs8Float32_ISaIvEEEEEE9assign_toINS_8functionIFvRKS9_EEEEEbT_RNS1_15function_bufferENS1_16function_obj_tagE
FN:605,_ZNK5boost6detail8function13basic_vtable1IvNS_10shared_ptrIKN8std_msgs5Int8_ISaIvEEEEEE9assign_toINS_8functionIFvRKS9_EEEEEbT_RNS1_15function_bufferENS1_16function_obj_tagE
FN:605,_ZNK5boost6detail8function13basic_vtable0IN3ros17SerializedMessageEE9assign_toINS_3_bi6bind_tIS4_PFS4_RKN8std_msgs8Float32_ISaIvEEEENS7_5list1INS_17reference_wrapperISD_EEEEEEEEbT_RNS1_15function_bufferENS1_16function_obj_tagE
FN:605,_ZNK5boost6detail8function13basic_vtable1IvRKNS_10shared_ptrIKN8std_msgs8Float32_ISaIvEEEEEE9assign_toINS_3_bi6bind_tIvNS_4_mfi3mf1Iv10NavigationSB_EENSE_5list2INSE_5valueIPSI_EENS_3argILi1EEEEEEEEEbT_RNS1_15function_bufferENS1_16function_obj_tagE
FN:605,_ZNK5boost6detail8function13basic_vtable0INS_10shared_ptrIN8std_msgs8Float32_ISaIvEEEEEE9assign_toIN3ros21DefaultMessageCreatorIS7_EEEEbT_RNS1_15function_bufferENS1_16function_obj_tagE
FN:605,_ZNK5boost6detail8function13basic_vtable0INS_10shared_ptrIN8std_msgs5Int8_ISaIvEEEEEE9assign_toIN3ros21DefaultMessageCreatorIS7_EEEEbT_RNS1_15function_bufferENS1_16function_obj_tagE
FN:684,_ZNK5boost9function0INS_10shared_ptrIN8std_msgs5Int8_ISaIvEEEEEE10get_vtableEv
FN:684,_ZNK5boost9function1IvRKNS_10shared_ptrIKN8std_msgs8Float32_ISaIvEEEEEE10get_vtableEv
FN:684,_ZNK5boost9function0IN3ros17SerializedMessageEE10get_vtableEv
FN:684,_ZNK5boost9function1IvNS_10shared_ptrIKN8std_msgs5Int8_ISaIvEEEEEE10get_vtableEv
FN:684,_ZNK5boost9function1IvRKN3ros25SingleSubscriberPublisherEE10get_vtableEv
FN:684,_ZNK5boost9function1IvRKNS_10shared_ptrIKN8std_msgs5Int8_ISaIvEEEEEE10get_vtableEv
FN:684,_ZNK5boost9function1IvNS_10shared_ptrIKN8std_msgs8Float32_ISaIvEEEEEE10get_vtableEv
FN:684,_ZNK5boost9function0INS_10shared_ptrIN8std_msgs8Float32_ISaIvEEEEEE10get_vtableEv
FN:713,_ZN5boost9function0INS_10shared_ptrIN8std_msgs8Float32_ISaIvEEEEEEC2Ev
FN:713,_ZN5boost9function0INS_10shared_ptrIN8std_msgs5Int8_ISaIvEEEEEEC2Ev
FN:713,_ZN5boost9function1IvRKN3ros25SingleSubscriberPublisherEEC2Ev
FN:718,_ZN5boost9function0IN3ros17SerializedMessageEEC2INS_3_bi6bind_tIS2_PFS2_RKN8std_msgs8Float32_ISaIvEEEENS5_5list1INS_17reference_wrapperISB_EEEEEEEET_NS_11enable_if_cIXsrNS_11type_traits7ice_notIXsrNS_11is_integralISK_EE5valueEEE5valueEiE4typeE
FN:718,_ZN5boost9function1IvRKNS_10shared_ptrIKN8std_msgs5Int8_ISaIvEEEEEEC2INS_3_bi6bind_tIvNS_4_mfi3mf1Iv10NavigationS9_EENSC_5list2INSC_5valueIPSG_EENS_3argILi1EEEEEEEEET_NS_11enable_if_cIXsrNS_11type_traits7ice_notIXsrNS_11is_integralISQ_EE5valueEEE5valueEiE4typeE
FN:718,_ZN5boost9function1IvRKNS_10shared_ptrIKN8std_msgs8Float32_ISaIvEEEEEEC2INS_3_bi6bind_tIvNS_4_mfi3mf1Iv10NavigationS9_EENSC_5list2INSC_5valueIPSG_EENS_3argILi1EEEEEEEEET_NS_11enable_if_cIXsrNS_11type_traits7ice_notIXsrNS_11is_integralISQ_EE5valueEEE5valueEiE4typeE
FN:718,_ZN5boost9function1IvNS_10shared_ptrIKN8std_msgs8Float32_ISaIvEEEEEEC2INS_8functionIFvRKS7_EEEEET_NS_11enable_if_cIXsrNS_11type_traits7ice_notIXsrNS_11is_integralISF_EE5valueEEE5valueEiE4typeE
FN:718,_ZN5boost9function0INS_10shared_ptrIN8std_msgs8Float32_ISaIvEEEEEEC2IN3ros21DefaultMessageCreatorIS5_EEEET_NS_11enable_if_cIXsrNS_11type_traits7ice_notIXsrNS_11is_integralISC_EE5valueEEE5valueEiE4typeE
FN:718,_ZN5boost9function0INS_10shared_ptrIN8std_msgs5Int8_ISaIvEEEEEEC2IN3ros21DefaultMessageCreatorIS5_EEEET_NS_11enable_if_cIXsrNS_11type_traits7ice_notIXsrNS_11is_integralISC_EE5valueEEE5valueEiE4typeE
FN:718,_ZN5boost9function1IvNS_10shared_ptrIKN8std_msgs5Int8_ISaIvEEEEEEC2INS_8functionIFvRKS7_EEEEET_NS_11enable_if_cIXsrNS_11type_traits7ice_notIXsrNS_11is_integralISF_EE5valueEEE5valueEiE4typeE
FN:718,_ZN5boost9function0IN3ros17SerializedMessageEEC2INS_3_bi6bind_tIS2_PFS2_RKN8std_msgs5Int8_ISaIvEEEENS5_5list1INS_17reference_wrapperISB_EEEEEEEET_NS_11enable_if_cIXsrNS_11type_traits7ice_notIXsrNS_11is_integralISK_EE5valueEEE5valueEiE4typeE
FN:753,_ZN5boost9function1IvRKNS_10shared_ptrIKN8std_msgs5Int8_ISaIvEEEEEEC2ERKSA_
FN:753,_ZN5boost9function1IvNS_10shared_ptrIKN8std_msgs8Float32_ISaIvEEEEEEC2ERKS8_
FN:753,_ZN5boost9function0INS_10shared_ptrIN8std_msgs8Float32_ISaIvEEEEEEC2ERKS7_
FN:753,_ZN5boost9function0INS_10shared_ptrIN8std_msgs5Int8_ISaIvEEEEEEC2ERKS7_
FN:753,_ZN5boost9function1IvRKN3ros25SingleSubscriberPublisherEEC2ERKS5_
FN:753,_ZN5boost9function1IvRKNS_10shared_ptrIKN8std_msgs8Float32_ISaIvEEEEEEC2ERKSA_
FN:753,_ZN5boost9function1IvNS_10shared_ptrIKN8std_msgs5Int8_ISaIvEEEEEEC2ERKS8_
FN:765,_ZN5boost9function1IvNS_10shared_ptrIKN8std_msgs5Int8_ISaIvEEEEEED2Ev
FN:765,_ZN5boost9function0IN3ros17SerializedMessageEED2Ev
FN:765,_ZN5boost9function0INS_10shared_ptrIN8std_msgs5Int8_ISaIvEEEEEED2Ev
FN:765,_ZN5boost9function0INS_10shared_ptrIN8std_msgs8Float32_ISaIvEEEEEED2Ev
FN:765,_ZN5boost9function1IvRKNS_10shared_ptrIKN8std_msgs8Float32_ISaIvEEEEEED2Ev
FN:765,_ZN5boost9function1IvRKN3ros25SingleSubscriberPublisherEED2Ev
FN:765,_ZN5boost9function1IvRKNS_10shared_ptrIKN8std_msgs5Int8_ISaIvEEEEEED2Ev
FN:765,_ZN5boost9function1IvNS_10shared_ptrIKN8std_msgs8Float32_ISaIvEEEEEED2Ev
FN:767,_ZNK5boost9function1IvNS_10shared_ptrIKN8std_msgs8Float32_ISaIvEEEEEEclES7_
FN:767,_ZNK5boost9function0INS_10shared_ptrIN8std_msgs5Int8_ISaIvEEEEEEclEv
FN:767,_ZNK5boost9function1IvNS_10shared_ptrIKN8std_msgs5Int8_ISaIvEEEEEEclES7_
FN:767,_ZNK5boost9function1IvRKNS_10shared_ptrIKN8std_msgs8Float32_ISaIvEEEEEEclES9_
FN:767,_ZNK5boost9function1IvRKNS_10shared_ptrIKN8std_msgs5Int8_ISaIvEEEEEEclES9_
FN:767,_ZNK5boost9function0INS_10shared_ptrIN8std_msgs8Float32_ISaIvEEEEEEclEv
FN:867,_ZN5boost9function1IvRKN3ros25SingleSubscriberPublisherEE4swapERS5_
FN:867,_ZN5boost9function0INS_10shared_ptrIN8std_msgs5Int8_ISaIvEEEEEE4swapERS7_
FN:867,_ZN5boost9function0INS_10shared_ptrIN8std_msgs8Float32_ISaIvEEEEEE4swapERS7_
FN:879,_ZN5boost9function0INS_10shared_ptrIN8std_msgs5Int8_ISaIvEEEEEE5clearEv
FN:879,_ZN5boost9function0IN3ros17SerializedMessageEE5clearEv
FN:879,_ZN5boost9function1IvNS_10shared_ptrIKN8std_msgs8Float32_ISaIvEEEEEE5clearEv
FN:879,_ZN5boost9function1IvRKNS_10shared_ptrIKN8std_msgs5Int8_ISaIvEEEEEE5clearEv
FN:879,_ZN5boost9function1IvRKNS_10shared_ptrIKN8std_msgs8Float32_ISaIvEEEEEE5clearEv
FN:879,_ZN5boost9function1IvNS_10shared_ptrIKN8std_msgs5Int8_ISaIvEEEEEE5clearEv
FN:879,_ZN5boost9function1IvRKN3ros25SingleSubscriberPublisherEE5clearEv
FN:879,_ZN5boost9function0INS_10shared_ptrIN8std_msgs8Float32_ISaIvEEEEEE5clearEv
FN:908,_ZN5boost9function1IvRKNS_10shared_ptrIKN8std_msgs5Int8_ISaIvEEEEEE13assign_to_ownERKSA_
FN:908,_ZN5boost9function0INS_10shared_ptrIN8std_msgs5Int8_ISaIvEEEEEE13assign_to_ownERKS7_
FN:908,_ZN5boost9function1IvRKN3ros25SingleSubscriberPublisherEE13assign_to_ownERKS5_
FN:908,_ZN5boost9function0INS_10shared_ptrIN8std_msgs8Float32_ISaIvEEEEEE13assign_to_ownERKS7_
FN:908,_ZN5boost9function1IvNS_10shared_ptrIKN8std_msgs8Float32_ISaIvEEEEEE13assign_to_ownERKS8_
FN:908,_ZN5boost9function1IvRKNS_10shared_ptrIKN8std_msgs8Float32_ISaIvEEEEEE13assign_to_ownERKSA_
FN:908,_ZN5boost9function1IvNS_10shared_ptrIKN8std_msgs5Int8_ISaIvEEEEEE13assign_to_ownERKS8_
FN:921,_ZN5boost9function1IvRKNS_10shared_ptrIKN8std_msgs8Float32_ISaIvEEEEEE9assign_toINS_3_bi6bind_tIvNS_4_mfi3mf1Iv10NavigationS9_EENSC_5list2INSC_5valueIPSG_EENS_3argILi1EEEEEEEEEvT_
FN:921,_ZN5boost9function1IvNS_10shared_ptrIKN8std_msgs5Int8_ISaIvEEEEEE9assign_toINS_8functionIFvRKS7_EEEEEvT_
FN:921,_ZN5boost9function0INS_10shared_ptrIN8std_msgs5Int8_ISaIvEEEEEE9assign_toIN3ros21DefaultMessageCreatorIS5_EEEEvT_
FN:921,_ZN5boost9function1IvNS_10shared_ptrIKN8std_msgs8Float32_ISaIvEEEEEE9assign_toINS_8functionIFvRKS7_EEEEEvT_
FN:921,_ZN5boost9function0IN3ros17SerializedMessageEE9assign_toINS_3_bi6bind_tIS2_PFS2_RKN8std_msgs5Int8_ISaIvEEEENS5_5list1INS_17reference_wrapperISB_EEEEEEEEvT_
FN:921,_ZN5boost9function1IvRKNS_10shared_ptrIKN8std_msgs5Int8_ISaIvEEEEEE9assign_toINS_3_bi6bind_tIvNS_4_mfi3mf1Iv10NavigationS9_EENSC_5list2INSC_5valueIPSG_EENS_3argILi1EEEEEEEEEvT_
FN:921,_ZN5boost9function0INS_10shared_ptrIN8std_msgs8Float32_ISaIvEEEEEE9assign_toIN3ros21DefaultMessageCreatorIS5_EEEEvT_
FN:921,_ZN5boost9function0IN3ros17SerializedMessageEE9assign_toINS_3_bi6bind_tIS2_PFS2_RKN8std_msgs8Float32_ISaIvEEEENS5_5list1INS_17reference_wrapperISB_EEEEEEEEvT_
FN:992,_ZN5boost9function0INS_10shared_ptrIN8std_msgs5Int8_ISaIvEEEEEE11move_assignERS7_
FN:992,_ZN5boost9function1IvRKN3ros25SingleSubscriberPublisherEE11move_assignERS5_
FN:992,_ZN5boost9function0INS_10shared_ptrIN8std_msgs8Float32_ISaIvEEEEEE11move_assignERS7_
FN:1056,_ZN5boost8functionIFvRKN3ros25SingleSubscriberPublisherEEED2Ev
FN:1056,_ZN5boost8functionIFNS_10shared_ptrIN8std_msgs5Int8_ISaIvEEEEEvEED2Ev
FN:1056,_ZN5boost8functionIFNS_10shared_ptrIN8std_msgs8Float32_ISaIvEEEEEvEED2Ev
FN:1056,_ZN5boost8functionIFvNS_10shared_ptrIKN8std_msgs5Int8_ISaIvEEEEEEED2Ev
FN:1056,_ZN5boost8functionIFvRKNS_10shared_ptrIKN8std_msgs8Float32_ISaIvEEEEEEED2Ev
FN:1056,_ZN5boost8functionIFN3ros17SerializedMessageEvEED2Ev
FN:1056,_ZN5boost8functionIFvNS_10shared_ptrIKN8std_msgs8Float32_ISaIvEEEEEEED2Ev
FN:1056,_ZN5boost8functionIFvRKNS_10shared_ptrIKN8std_msgs5Int8_ISaIvEEEEEEED2Ev
FN:1066,_ZN5boost8functionIFNS_10shared_ptrIN8std_msgs5Int8_ISaIvEEEEEvEEC2Ev
FN:1066,_ZN5boost8functionIFvRKN3ros25SingleSubscriberPublisherEEEC2Ev
FN:1066,_ZN5boost8functionIFNS_10shared_ptrIN8std_msgs8Float32_ISaIvEEEEEvEEC2Ev
FN:1069,_ZN5boost8functionIFvRKNS_10shared_ptrIKN8std_msgs5Int8_ISaIvEEEEEEEC2INS_3_bi6bind_tIvNS_4_mfi3mf1Iv10NavigationS9_EENSD_5list2INSD_5valueIPSH_EENS_3argILi1EEEEEEEEET_NS_11enable_if_cIXsrNS_11type_traits7ice_notIXsrNS_11is_integralISR_EE5valueEEE5valueEiE4typeE
FN:1069,_ZN5boost8functionIFvNS_10shared_ptrIKN8std_msgs5Int8_ISaIvEEEEEEEC2INS0_IFvRKS7_EEEEET_NS_11enable_if_cIXsrNS_11type_traits7ice_notIXsrNS_11is_integralISF_EE5valueEEE5valueEiE4typeE
FN:1069,_ZN5boost8functionIFN3ros17SerializedMessageEvEEC2INS_3_bi6bind_tIS2_PFS2_RKN8std_msgs8Float32_ISaIvEEEENS6_5list1INS_17reference_wrapperISC_EEEEEEEET_NS_11enable_if_cIXsrNS_11type_traits7ice_notIXsrNS_11is_integralISL_EE5valueEEE5valueEiE4typeE
FN:1069,_ZN5boost8functionIFvRKNS_10shared_ptrIKN8std_msgs8Float32_ISaIvEEEEEEEC2INS_3_bi6bind_tIvNS_4_mfi3mf1Iv10NavigationS9_EENSD_5list2INSD_5valueIPSH_EENS_3argILi1EEEEEEEEET_NS_11enable_if_cIXsrNS_11type_traits7ice_notIXsrNS_11is_integralISR_EE5valueEEE5valueEiE4typeE
FN:1069,_ZN5boost8functionIFvNS_10shared_ptrIKN8std_msgs8Float32_ISaIvEEEEEEEC2INS0_IFvRKS7_EEEEET_NS_11enable_if_cIXsrNS_11type_traits7ice_notIXsrNS_11is_integralISF_EE5valueEEE5valueEiE4typeE
FN:1069,_ZN5boost8functionIFNS_10shared_ptrIN8std_msgs5Int8_ISaIvEEEEEvEEC2IN3ros21DefaultMessageCreatorIS5_EEEET_NS_11enable_if_cIXsrNS_11type_traits7ice_notIXsrNS_11is_integralISD_EE5valueEEE5valueEiE4typeE
FN:1069,_ZN5boost8functionIFN3ros17SerializedMessageEvEEC2INS_3_bi6bind_tIS2_PFS2_RKN8std_msgs5Int8_ISaIvEEEENS6_5list1INS_17reference_wrapperISC_EEEEEEEET_NS_11enable_if_cIXsrNS_11type_traits7ice_notIXsrNS_11is_integralISL_EE5valueEEE5valueEiE4typeE
FN:1069,_ZN5boost8functionIFNS_10shared_ptrIN8std_msgs8Float32_ISaIvEEEEEvEEC2IN3ros21DefaultMessageCreatorIS5_EEEET_NS_11enable_if_cIXsrNS_11type_traits7ice_notIXsrNS_11is_integralISD_EE5valueEEE5valueEiE4typeE
FN:1097,_ZN5boost8functionIFNS_10shared_ptrIN8std_msgs5Int8_ISaIvEEEEEvEEC2ERKS8_
FN:1097,_ZN5boost8functionIFvRKNS_10shared_ptrIKN8std_msgs5Int8_ISaIvEEEEEEEC2ERKSB_
FN:1097,_ZN5boost8functionIFvRKNS_10shared_ptrIKN8std_msgs8Float32_ISaIvEEEEEEEC2ERKSB_
FN:1097,_ZN5boost8functionIFvNS_10shared_ptrIKN8std_msgs8Float32_ISaIvEEEEEEEC2ERKS9_
FN:1097,_ZN5boost8functionIFvRKN3ros25SingleSubscriberPublisherEEEC2ERKS6_
FN:1097,_ZN5boost8functionIFNS_10shared_ptrIN8std_msgs8Float32_ISaIvEEEEEvEEC2ERKS8_
FN:1097,_ZN5boost8functionIFvNS_10shared_ptrIKN8std_msgs5Int8_ISaIvEEEEEEEC2ERKS9_
FN:1107,_ZN5boost8functionIFNS_10shared_ptrIN8std_msgs8Float32_ISaIvEEEEEvEEaSERKS8_
FN:1107,_ZN5boost8functionIFvRKN3ros25SingleSubscriberPublisherEEEaSERKS6_
FN:1107,_ZN5boost8functionIFNS_10shared_ptrIN8std_msgs5Int8_ISaIvEEEEEvEEaSERKS8_
FNDA:0,_ZN5boost6detail8function21function_obj_invoker0INS_3_bi6bind_tIN3ros17SerializedMessageEPFS6_RKN8std_msgs5Int8_ISaIvEEEENS3_5list1INS_17reference_wrapperISB_EEEEEES6_E6invokeERNS1_15function_bufferE
FNDA:3,_ZN5boost6detail8function21function_obj_invoker0IN3ros21DefaultMessageCreatorIN8std_msgs5Int8_ISaIvEEEEENS_10shared_ptrIS8_EEE6invokeERNS1_15function_bufferE
FNDA:0,_ZN5boost6detail8function21function_obj_invoker0INS_3_bi6bind_tIN3ros17SerializedMessageEPFS6_RKN8std_msgs8Float32_ISaIvEEEENS3_5list1INS_17reference_wrapperISB_EEEEEES6_E6invokeERNS1_15function_bufferE
FNDA:3,_ZN5boost6detail8function21function_obj_invoker0IN3ros21DefaultMessageCreatorIN8std_msgs8Float32_ISaIvEEEEENS_10shared_ptrIS8_EEE6invokeERNS1_15function_bufferE
FNDA:3,_ZN5boost6detail8function26void_function_obj_invoker1INS_8functionIFvRKNS_10shared_ptrIKN8std_msgs5Int8_ISaIvEEEEEEEEvSA_E6invokeERNS1_15function_bufferESA_
FNDA:3,_ZN5boost6detail8function26void_function_obj_invoker1INS_8functionIFvRKNS_10shared_ptrIKN8std_msgs8Float32_ISaIvEEEEEEEEvSA_E6invokeERNS1_15function_bufferESA_
FNDA:3,_ZN5boost6detail8function26void_function_obj_invoker1INS_3_bi6bind_tIvNS_4_mfi3mf1Iv10NavigationRKNS_10shared_ptrIKN8std_msgs5Int8_ISaIvEEEEEEENS3_5list2INS3_5valueIPS7_EENS_3argILi1EEEEEEEvSG_E6invokeERNS1_15function_bufferESG_
FNDA:3,_ZN5boost6detail8function26void_function_obj_invoker1INS_3_bi6bind_tIvNS_4_mfi3mf1Iv10NavigationRKNS_10shared_ptrIKN8std_msgs8Float32_ISaIvEEEEEEENS3_5list2INS3_5valueIPS7_EENS_3argILi1EEEEEEEvSG_E6invokeERNS1_15function_bufferESG_
FNDA:3,_ZNK5boost6detail8function13basic_vtable1IvNS_10shared_ptrIKN8std_msgs5Int8_ISaIvEEEEEE9assign_toINS_8functionIFvRKS9_EEEEEbT_RNS1_15function_bufferE
FNDA:3,_ZNK5boost6detail8function13basic_vtable1IvNS_10shared_ptrIKN8std_msgs8Float32_ISaIvEEEEEE9assign_toINS_8functionIFvRKS9_EEEEEbT_RNS1_15function_bufferE
FNDA:0,_ZNK5boost6detail8function13basic_vtable0IN3ros17SerializedMessageEE9assign_toINS_3_bi6bind_tIS4_PFS4_RKN8std_msgs5Int8_ISaIvEEEENS7_5list1INS_17reference_wrapperISD_EEEEEEEEbT_RNS1_15function_bufferE
FNDA:3,_ZNK5boost6detail8function13basic_vtable0INS_10shared_ptrIN8std_msgs5Int8_ISaIvEEEEEE9assign_toIN3ros21DefaultMessageCreatorIS7_EEEEbT_RNS1_15function_bufferE
FNDA:3,_ZNK5boost6detail8function13basic_vtable1IvRKNS_10shared_ptrIKN8std_msgs5Int8_ISaIvEEEEEE9assign_toINS_3_bi6bind_tIvNS_4_mfi3mf1Iv10NavigationSB_EENSE_5list2INSE_5valueIPSI_EENS_3argILi1EEEEEEEEEbT_RNS1_15function_bufferE
FNDA:0,_ZNK5boost6detail8function13basic_vtable0IN3ros17SerializedMessageEE9assign_toINS_3_bi6bind_tIS4_PFS4_RKN8std_msgs8Float32_ISaIvEEEENS7_5list1INS_17reference_wrapperISD_EEEEEEEEbT_RNS1_15function_bufferE
FNDA:3,_ZNK5boost6detail8function13basic_vtable0INS_10shared_ptrIN8std_msgs8Float32_ISaIvEEEEEE9assign_toIN3ros21DefaultMessageCreatorIS7_EEEEbT_RNS1_15function_bufferE
FNDA:3,_ZNK5boost6detail8function13basic_vtable1IvRKNS_10shared_ptrIKN8std_msgs8Float32_ISaIvEEEEEE9assign_toINS_3_bi6bind_tIvNS_4_mfi3mf1Iv10NavigationSB_EENSE_5list2INSE_5valueIPSI_EENS_3argILi1EEEEEEEEEbT_RNS1_15function_bufferE
FNDA:6,_ZNK5boost6detail8function13basic_vtable1IvNS_10shared_ptrIKN8std_msgs5Int8_ISaIvEEEEEE5clearERNS1_15function_bufferE
FNDA:6,_ZNK5boost6detail8function13basic_vtable1IvNS_10shared_ptrIKN8std_msgs8Float32_ISaIvEEEEEE5clearERNS1_15function_bufferE
FNDA:0,_ZNK5boost6detail8function13basic_vtable0INS_10shared_ptrIN8std_msgs5Int8_ISaIvEEEEEE5clearERNS1_15function_bufferE
FNDA:0,_ZNK5boost6detail8function13basic_vtable1IvRKNS_10shared_ptrIKN8std_msgs5Int8_ISaIvEEEEEE5clearERNS1_15function_bufferE
FNDA:0,_ZNK5boost6detail8function13basic_vtable0IN3ros17SerializedMessageEE5clearERNS1_15function_bufferE
FNDA:0,_ZNK5boost6detail8function13basic_vtable0INS_10shared_ptrIN8std_msgs8Float32_ISaIvEEEEEE5clearERNS1_15function_bufferE
FNDA:0,_ZNK5boost6detail8function13basic_vtable1IvRKNS_10shared_ptrIKN8std_msgs8Float32_ISaIvEEEEEE5clearERNS1_15function_bufferE
FNDA:0,_ZNK5boost6detail8function13basic_vtable1IvRKN3ros25SingleSubscriberPublisherEE5clearERNS1_15function_bufferE
FNDA:0,_ZNK5boost6detail8function13basic_vtable0IN3ros17SerializedMessageEE14assign_functorINS_3_bi6bind_tIS4_PFS4_RKN8std_msgs5Int8_ISaIvEEEENS7_5list1INS_17reference_wrapperISD_EEEEEEEEvT_RNS1_15function_bufferEN4mpl_5bool_ILb1EEE
FNDA:3,_ZNK5boost6detail8function13basic_vtable0INS_10shared_ptrIN8std_msgs5Int8_ISaIvEEEEEE14assign_functorIN3ros21DefaultMessageCreatorIS7_EEEEvT_RNS1_15function_bufferEN4mpl_5bool_ILb1EEE
FNDA:3,_ZNK5boost6detail8function13basic_vtable1IvRKNS_10shared_ptrIKN8std_msgs5Int8_ISaIvEEEEEE14assign_functorINS_3_bi6bind_tIvNS_4_mfi3mf1Iv10NavigationSB_EENSE_5list2INSE_5valueIPSI_EENS_3argILi1EEEEEEEEEvT_RNS1_15function_bufferEN4mpl_5bool_ILb1EEE
FNDA:0,_ZNK5boost6detail8function13basic_vtable0IN3ros17SerializedMessageEE14assign_functorINS_3_bi6bind_tIS4_PFS4_RKN8std_msgs8Float32_ISaIvEEEENS7_5list1INS_17reference_wrapperISD_EEEEEEEEvT_RNS1_15function_bufferEN4mpl_5bool_ILb1EEE
FNDA:3,_ZNK5boost6detail8function13basic_vtable0INS_10shared_ptrIN8std_msgs8Float32_ISaIvEEEEEE14assign_functorIN3ros21DefaultMessageCreatorIS7_EEEEvT_RNS1_15function_bufferEN4mpl_5bool_ILb1EEE
FNDA:3,_ZNK5boost6detail8function13basic_vtable1IvRKNS_10shared_ptrIKN8std_msgs8Float32_ISaIvEEEEEE14assign_functorINS_3_bi6bind_tIvNS_4_mfi3mf1Iv10NavigationSB_EENSE_5list2INSE_5valueIPSI_EENS_3argILi1EEEEEEEEEvT_RNS1_15function_bufferEN4mpl_5bool_ILb1EEE
FNDA:3,_ZNK5boost6detail8function13basic_vtable1IvNS_10shared_ptrIKN8std_msgs5Int8_ISaIvEEEEEE14assign_functorINS_8functionIFvRKS9_EEEEEvT_RNS1_15function_bufferEN4mpl_5bool_ILb0EEE
FNDA:3,_ZNK5boost6detail8function13basic_vtable1IvNS_10shared_ptrIKN8std_msgs8Float32_ISaIvEEEEEE14assign_functorINS_8functionIFvRKS9_EEEEEvT_RNS1_15function_bufferEN4mpl_5bool_ILb0EEE
FNDA:3,_ZNK5boost6detail8function13basic_vtable1IvNS_10shared_ptrIKN8std_msgs5Int8_ISaIvEEEEEE9assign_toINS_8functionIFvRKS9_EEEEEbT_RNS1_15function_bufferENS1_16function_obj_tagE
FNDA:3,_ZNK5boost6detail8function13basic_vtable1IvNS_10shared_ptrIKN8std_msgs8Float32_ISaIvEEEEEE9assign_toINS_8functionIFvRKS9_EEEEEbT_RNS1_15function_bufferENS1_16function_obj_tagE
FNDA:0,_ZNK5boost6detail8function13basic_vtable0IN3ros17SerializedMessageEE9assign_toINS_3_bi6bind_tIS4_PFS4_RKN8std_msgs5Int8_ISaIvEEEENS7_5list1INS_17reference_wrapperISD_EEEEEEEEbT_RNS1_15function_bufferENS1_16function_obj_tagE
FNDA:3,_ZNK5boost6detail8function13basic_vtable0INS_10shared_ptrIN8std_msgs5Int8_ISaIvEEEEEE9assign_toIN3ros21DefaultMessageCreatorIS7_EEEEbT_RNS1_15function_bufferENS1_16function_obj_tagE
FNDA:3,_ZNK5boost6detail8function13basic_vtable1IvRKNS_10shared_ptrIKN8std_msgs5Int8_ISaIvEEEEEE9assign_toINS_3_bi6bind_tIvNS_4_mfi3mf1Iv10NavigationSB_EENSE_5list2INSE_5valueIPSI_EENS_3argILi1EEEEEEEEEbT_RNS1_15function_bufferENS1_16function_obj_tagE
FNDA:0,_ZNK5boost6detail8function13basic_vtable0IN3ros17SerializedMessageEE9assign_toINS_3_bi6bind_tIS4_PFS4_RKN8std_msgs8Float32_ISaIvEEEENS7_5list1INS_17reference_wrapperISD_EEEEEEEEbT_RNS1_15function_bufferENS1_16function_obj_tagE
FNDA:3,_ZNK5boost6detail8function13basic_vtable0INS_10shared_ptrIN8std_msgs8Float32_ISaIvEEEEEE9assign_toIN3ros21DefaultMessageCreatorIS7_EEEEbT_RNS1_15function_bufferENS1_16function_obj_tagE
FNDA:3,_ZNK5boost6detail8function13basic_vtable1IvRKNS_10shared_ptrIKN8std_msgs8Float32_ISaIvEEEEEE9assign_toINS_3_bi6bind_tIvNS_4_mfi3mf1Iv10NavigationSB_EENSE_5list2INSE_5valueIPSI_EENS_3argILi1EEEEEEEEEbT_RNS1_15function_bufferENS1_16function_obj_tagE
FNDA:12,_ZNK5boost9function1IvNS_10shared_ptrIKN8std_msgs5Int8_ISaIvEEEEEE10get_vtableEv
FNDA:12,_ZNK5boost9function1IvNS_10shared_ptrIKN8std_msgs8Float32_ISaIvEEEEEE10get_vtableEv
FNDA:3,_ZNK5boost9function0INS_10shared_ptrIN8std_msgs5Int8_ISaIvEEEEEE10get_vtableEv
FNDA:3,_ZNK5boost9function1IvRKNS_10shared_ptrIKN8std_msgs5Int8_ISaIvEEEEEE10get_vtableEv
FNDA:0,_ZNK5boost9function0IN3ros17SerializedMessageEE10get_vtableEv
FNDA:3,_ZNK5boost9function0INS_10shared_ptrIN8std_msgs8Float32_ISaIvEEEEEE10get_vtableEv
FNDA:3,_ZNK5boost9function1IvRKNS_10shared_ptrIKN8std_msgs8Float32_ISaIvEEEEEE10get_vtableEv
FNDA:0,_ZNK5boost9function1IvRKN3ros25SingleSubscriberPublisherEE10get_vtableEv
FNDA:6,_ZN5boost9function0INS_10shared_ptrIN8std_msgs8Float32_ISaIvEEEEEEC2Ev
FNDA:6,_ZN5boost9function0INS_10shared_ptrIN8std_msgs5Int8_ISaIvEEEEEEC2Ev
FNDA:0,_ZN5boost9function1IvRKN3ros25SingleSubscriberPublisherEEC2Ev
FNDA:3,_ZN5boost9function1IvNS_10shared_ptrIKN8std_msgs5Int8_ISaIvEEEEEEC2INS_8functionIFvRKS7_EEEEET_NS_11enable_if_cIXsrNS_11type_traits7ice_notIXsrNS_11is_integralISF_EE5valueEEE5valueEiE4typeE
FNDA:3,_ZN5boost9function1IvNS_10shared_ptrIKN8std_msgs8Float32_ISaIvEEEEEEC2INS_8functionIFvRKS7_EEEEET_NS_11enable_if_cIXsrNS_11type_traits7ice_notIXsrNS_11is_integralISF_EE5valueEEE5valueEiE4typeE
FNDA:0,_ZN5boost9function0IN3ros17SerializedMessageEEC2INS_3_bi6bind_tIS2_PFS2_RKN8std_msgs5Int8_ISaIvEEEENS5_5list1INS_17reference_wrapperISB_EEEEEEEET_NS_11enable_if_cIXsrNS_11type_traits7ice_notIXsrNS_11is_integralISK_EE5valueEEE5valueEiE4typeE
FNDA:3,_ZN5boost9function0INS_10shared_ptrIN8std_msgs5Int8_ISaIvEEEEEEC2IN3ros21DefaultMessageCreatorIS5_EEEET_NS_11enable_if_cIXsrNS_11type_traits7ice_notIXsrNS_11is_integralISC_EE5valueEEE5valueEiE4typeE
FNDA:3,_ZN5boost9function1IvRKNS_10shared_ptrIKN8std_msgs5Int8_ISaIvEEEEEEC2INS_3_bi6bind_tIvNS_4_mfi3mf1Iv10NavigationS9_EENSC_5list2INSC_5valueIPSG_EENS_3argILi1EEEEEEEEET_NS_11enable_if_cIXsrNS_11type_traits7ice_notIXsrNS_11is_integralISQ_EE5valueEEE5valueEiE4typeE
FNDA:0,_ZN5boost9function0IN3ros17SerializedMessageEEC2INS_3_bi6bind_tIS2_PFS2_RKN8std_msgs8Float32_ISaIvEEEENS5_5list1INS_17reference_wrapperISB_EEEEEEEET_NS_11enable_if_cIXsrNS_11type_traits7ice_notIXsrNS_11is_integralISK_EE5valueEEE5valueEiE4typeE
FNDA:3,_ZN5boost9function0INS_10shared_ptrIN8std_msgs8Float32_ISaIvEEEEEEC2IN3ros21DefaultMessageCreatorIS5_EEEET_NS_11enable_if_cIXsrNS_11type_traits7ice_notIXsrNS_11is_integralISC_EE5valueEEE5valueEiE4typeE
FNDA:3,_ZN5boost9function1IvRKNS_10shared_ptrIKN8std_msgs8Float32_ISaIvEEEEEEC2INS_3_bi6bind_tIvNS_4_mfi3mf1Iv10NavigationS9_EENSC_5list2INSC_5valueIPSG_EENS_3argILi1EEEEEEEEET_NS_11enable_if_cIXsrNS_11type_traits7ice_notIXsrNS_11is_integralISQ_EE5valueEEE5valueEiE4typeE
FNDA:6,_ZN5boost9function0INS_10shared_ptrIN8std_msgs5Int8_ISaIvEEEEEEC2ERKS7_
FNDA:3,_ZN5boost9function1IvNS_10shared_ptrIKN8std_msgs5Int8_ISaIvEEEEEEC2ERKS8_
FNDA:6,_ZN5boost9function0INS_10shared_ptrIN8std_msgs8Float32_ISaIvEEEEEEC2ERKS7_
FNDA:3,_ZN5boost9function1IvNS_10shared_ptrIKN8std_msgs8Float32_ISaIvEEEEEEC2ERKS8_
FNDA:24,_ZN5boost9function1IvRKNS_10shared_ptrIKN8std_msgs5Int8_ISaIvEEEEEEC2ERKSA_
FNDA:24,_ZN5boost9function1IvRKNS_10shared_ptrIKN8std_msgs8Float32_ISaIvEEEEEEC2ERKSA_
FNDA:0,_ZN5boost9function1IvRKN3ros25SingleSubscriberPublisherEEC2ERKS5_
FNDA:6,_ZN5boost9function1IvNS_10shared_ptrIKN8std_msgs5Int8_ISaIvEEEEEED2Ev
FNDA:6,_ZN5boost9function1IvNS_10shared_ptrIKN8std_msgs8Float32_ISaIvEEEEEED2Ev
FNDA:15,_ZN5boost9function0INS_10shared_ptrIN8std_msgs5Int8_ISaIvEEEEEED2Ev
FNDA:27,_ZN5boost9function1IvRKNS_10shared_ptrIKN8std_msgs5Int8_ISaIvEEEEEED2Ev
FNDA:0,_ZN5boost9function0IN3ros17SerializedMessageEED2Ev
FNDA:15,_ZN5boost9function0INS_10shared_ptrIN8std_msgs8Float32_ISaIvEEEEEED2Ev
FNDA:27,_ZN5boost9function1IvRKNS_10shared_ptrIKN8std_msgs8Float32_ISaIvEEEEEED2Ev
FNDA:0,_ZN5boost9function1IvRKN3ros25SingleSubscriberPublisherEED2Ev
FNDA:3,_ZNK5boost9function1IvNS_10shared_ptrIKN8std_msgs8Float32_ISaIvEEEEEEclES7_
FNDA:3,_ZNK5boost9function0INS_10shared_ptrIN8std_msgs8Float32_ISaIvEEEEEEclEv
FNDA:3,_ZNK5boost9function1IvNS_10shared_ptrIKN8std_msgs5Int8_ISaIvEEEEEEclES7_
FNDA:3,_ZNK5boost9function0INS_10shared_ptrIN8std_msgs5Int8_ISaIvEEEEEEclEv
FNDA:3,_ZNK5boost9function1IvRKNS_10shared_ptrIKN8std_msgs5Int8_ISaIvEEEEEEclES9_
FNDA:3,_ZNK5boost9function1IvRKNS_10shared_ptrIKN8std_msgs8Float32_ISaIvEEEEEEclES9_
FNDA:3,_ZN5boost9function0INS_10shared_ptrIN8std_msgs8Float32_ISaIvEEEEEE4swapERS7_
FNDA:3,_ZN5boost9function0INS_10shared_ptrIN8std_msgs5Int8_ISaIvEEEEEE4swapERS7_
FNDA:0,_ZN5boost9function1IvRKN3ros25SingleSubscriberPublisherEE4swapERS5_
FNDA:6,_ZN5boost9function1IvNS_10shared_ptrIKN8std_msgs5Int8_ISaIvEEEEEE5clearEv
FNDA:6,_ZN5boost9function1IvNS_10shared_ptrIKN8std_msgs8Float32_ISaIvEEEEEE5clearEv
FNDA:18,_ZN5boost9function0INS_10shared_ptrIN8std_msgs5Int8_ISaIvEEEEEE5clearEv
FNDA:27,_ZN5boost9function1IvRKNS_10shared_ptrIKN8std_msgs5Int8_ISaIvEEEEEE5clearEv
FNDA:0,_ZN5boost9function0IN3ros17SerializedMessageEE5clearEv
FNDA:18,_ZN5boost9function0INS_10shared_ptrIN8std_msgs8Float32_ISaIvEEEEEE5clearEv
FNDA:27,_ZN5boost9function1IvRKNS_10shared_ptrIKN8std_msgs8Float32_ISaIvEEEEEE5clearEv
FNDA:0,_ZN5boost9function1IvRKN3ros25SingleSubscriberPublisherEE5clearEv
FNDA:6,_ZN5boost9function0INS_10shared_ptrIN8std_msgs5Int8_ISaIvEEEEEE13assign_to_ownERKS7_
FNDA:3,_ZN5boost9function1IvNS_10shared_ptrIKN8std_msgs5Int8_ISaIvEEEEEE13assign_to_ownERKS8_
FNDA:6,_ZN5boost9function0INS_10shared_ptrIN8std_msgs8Float32_ISaIvEEEEEE13assign_to_ownERKS7_
FNDA:3,_ZN5boost9function1IvNS_10shared_ptrIKN8std_msgs8Float32_ISaIvEEEEEE13assign_to_ownERKS8_
FNDA:24,_ZN5boost9function1IvRKNS_10shared_ptrIKN8std_msgs5Int8_ISaIvEEEEEE13assign_to_ownERKSA_
FNDA:24,_ZN5boost9function1IvRKNS_10shared_ptrIKN8std_msgs8Float32_ISaIvEEEEEE13assign_to_ownERKSA_
FNDA:0,_ZN5boost9function1IvRKN3ros25SingleSubscriberPublisherEE13assign_to_ownERKS5_
FNDA:3,_ZN5boost9function1IvNS_10shared_ptrIKN8std_msgs5Int8_ISaIvEEEEEE9assign_toINS_8functionIFvRKS7_EEEEEvT_
FNDA:3,_ZN5boost9function1IvNS_10shared_ptrIKN8std_msgs8Float32_ISaIvEEEEEE9assign_toINS_8functionIFvRKS7_EEEEEvT_
FNDA:0,_ZN5boost9function0IN3ros17SerializedMessageEE9assign_toINS_3_bi6bind_tIS2_PFS2_RKN8std_msgs5Int8_ISaIvEEEENS5_5list1INS_17reference_wrapperISB_EEEEEEEEvT_
FNDA:3,_ZN5boost9function0INS_10shared_ptrIN8std_msgs5Int8_ISaIvEEEEEE9assign_toIN3ros21DefaultMessageCreatorIS5_EEEEvT_
FNDA:3,_ZN5boost9function1IvRKNS_10shared_ptrIKN8std_msgs5Int8_ISaIvEEEEEE9assign_toINS_3_bi6bind_tIvNS_4_mfi3mf1Iv10NavigationS9_EENSC_5list2INSC_5valueIPSG_EENS_3argILi1EEEEEEEEEvT_
FNDA:0,_ZN5boost9function0IN3ros17SerializedMessageEE9assign_toINS_3_bi6bind_tIS2_PFS2_RKN8std_msgs8Float32_ISaIvEEEENS5_5list1INS_17reference_wrapperISB_EEEEEEEEvT_
FNDA:3,_ZN5boost9function0INS_10shared_ptrIN8std_msgs8Float32_ISaIvEEEEEE9assign_toIN3ros21DefaultMessageCreatorIS5_EEEEvT_
FNDA:3,_ZN5boost9function1IvRKNS_10shared_ptrIKN8std_msgs8Float32_ISaIvEEEEEE9assign_toINS_3_bi6bind_tIvNS_4_mfi3mf1Iv10NavigationS9_EENSC_5list2INSC_5valueIPSG_EENS_3argILi1EEEEEEEEEvT_
FNDA:9,_ZN5boost9function0INS_10shared_ptrIN8std_msgs8Float32_ISaIvEEEEEE11move_assignERS7_
FNDA:9,_ZN5boost9function0INS_10shared_ptrIN8std_msgs5Int8_ISaIvEEEEEE11move_assignERS7_
FNDA:0,_ZN5boost9function1IvRKN3ros25SingleSubscriberPublisherEE11move_assignERS5_
FNDA:6,_ZN5boost8functionIFvNS_10shared_ptrIKN8std_msgs5Int8_ISaIvEEEEEEED2Ev
FNDA:6,_ZN5boost8functionIFvNS_10shared_ptrIKN8std_msgs8Float32_ISaIvEEEEEEED2Ev
FNDA:12,_ZN5boost8functionIFNS_10shared_ptrIN8std_msgs5Int8_ISaIvEEEEEvEED2Ev
FNDA:27,_ZN5boost8functionIFvRKNS_10shared_ptrIKN8std_msgs5Int8_ISaIvEEEEEEED2Ev
FNDA:0,_ZN5boost8functionIFN3ros17SerializedMessageEvEED2Ev
FNDA:12,_ZN5boost8functionIFNS_10shared_ptrIN8std_msgs8Float32_ISaIvEEEEEvEED2Ev
FNDA:27,_ZN5boost8functionIFvRKNS_10shared_ptrIKN8std_msgs8Float32_ISaIvEEEEEEED2Ev
FNDA:0,_ZN5boost8functionIFvRKN3ros25SingleSubscriberPublisherEEED2Ev
FNDA:3,_ZN5boost8functionIFNS_10shared_ptrIN8std_msgs8Float32_ISaIvEEEEEvEEC2Ev
FNDA:3,_ZN5boost8functionIFNS_10shared_ptrIN8std_msgs5Int8_ISaIvEEEEEvEEC2Ev
FNDA:0,_ZN5boost8functionIFvRKN3ros25SingleSubscriberPublisherEEEC2Ev
FNDA:3,_ZN5boost8functionIFvNS_10shared_ptrIKN8std_msgs5Int8_ISaIvEEEEEEEC2INS0_IFvRKS7_EEEEET_NS_11enable_if_cIXsrNS_11type_traits7ice_notIXsrNS_11is_integralISF_EE5valueEEE5valueEiE4typeE
FNDA:3,_ZN5boost8functionIFvNS_10shared_ptrIKN8std_msgs8Float32_ISaIvEEEEEEEC2INS0_IFvRKS7_EEEEET_NS_11enable_if_cIXsrNS_11type_traits7ice_notIXsrNS_11is_integralISF_EE5valueEEE5valueEiE4typeE
FNDA:0,_ZN5boost8functionIFN3ros17SerializedMessageEvEEC2INS_3_bi6bind_tIS2_PFS2_RKN8std_msgs5Int8_ISaIvEEEENS6_5list1INS_17reference_wrapperISC_EEEEEEEET_NS_11enable_if_cIXsrNS_11type_traits7ice_notIXsrNS_11is_integralISL_EE5valueEEE5valueEiE4typeE
FNDA:3,_ZN5boost8functionIFNS_10shared_ptrIN8std_msgs5Int8_ISaIvEEEEEvEEC2IN3ros21DefaultMessageCreatorIS5_EEEET_NS_11enable_if_cIXsrNS_11type_traits7ice_notIXsrNS_11is_integralISD_EE5valueEEE5valueEiE4typeE
FNDA:3,_ZN5boost8functionIFvRKNS_10shared_ptrIKN8std_msgs5Int8_ISaIvEEEEEEEC2INS_3_bi6bind_tIvNS_4_mfi3mf1Iv10NavigationS9_EENSD_5list2INSD_5valueIPSH_EENS_3argILi1EEEEEEEEET_NS_11enable_if_cIXsrNS_11type_traits7ice_notIXsrNS_11is_integralISR_EE5valueEEE5valueEiE4typeE
FNDA:0,_ZN5boost8functionIFN3ros17SerializedMessageEvEEC2INS_3_bi6bind_tIS2_PFS2_RKN8std_msgs8Float32_ISaIvEEEENS6_5list1INS_17reference_wrapperISC_EEEEEEEET_NS_11enable_if_cIXsrNS_11type_traits7ice_notIXsrNS_11is_integralISL_EE5valueEEE5valueEiE4typeE
FNDA:3,_ZN5boost8functionIFNS_10shared_ptrIN8std_msgs8Float32_ISaIvEEEEEvEEC2IN3ros21DefaultMessageCreatorIS5_EEEET_NS_11enable_if_cIXsrNS_11type_traits7ice_notIXsrNS_11is_integralISD_EE5valueEEE5valueEiE4typeE
FNDA:3,_ZN5boost8functionIFvRKNS_10shared_ptrIKN8std_msgs8Float32_ISaIvEEEEEEEC2INS_3_bi6bind_tIvNS_4_mfi3mf1Iv10NavigationS9_EENSD_5list2INSD_5valueIPSH_EENS_3argILi1EEEEEEEEET_NS_11enable_if_cIXsrNS_11type_traits7ice_notIXsrNS_11is_integralISR_EE5valueEEE5valueEiE4typeE
FNDA:6,_ZN5boost8functionIFNS_10shared_ptrIN8std_msgs5Int8_ISaIvEEEEEvEEC2ERKS8_
FNDA:3,_ZN5boost8functionIFvNS_10shared_ptrIKN8std_msgs5Int8_ISaIvEEEEEEEC2ERKS9_
FNDA:6,_ZN5boost8functionIFNS_10shared_ptrIN8std_msgs8Float32_ISaIvEEEEEvEEC2ERKS8_
FNDA:3,_ZN5boost8functionIFvNS_10shared_ptrIKN8std_msgs8Float32_ISaIvEEEEEEEC2ERKS9_
FNDA:24,_ZN5boost8functionIFvRKNS_10shared_ptrIKN8std_msgs5Int8_ISaIvEEEEEEEC2ERKSB_
FNDA:24,_ZN5boost8functionIFvRKNS_10shared_ptrIKN8std_msgs8Float32_ISaIvEEEEEEEC2ERKSB_
FNDA:0,_ZN5boost8functionIFvRKN3ros25SingleSubscriberPublisherEEEC2ERKS6_
FNDA:3,_ZN5boost8functionIFNS_10shared_ptrIN8std_msgs8Float32_ISaIvEEEEEvEEaSERKS8_
FNDA:3,_ZN5boost8functionIFNS_10shared_ptrIN8std_msgs5Int8_ISaIvEEEEEvEEaSERKS8_
FNDA:0,_ZN5boost8functionIFvRKN3ros25SingleSubscriberPublisherEEEaSERKS6_
FNF:138
FNH:102
DA:129,6
DA:135,6
DA:138,6
DA:150,12
DA:156,6
DA:158,6
DA:159,12
DA:160,12
DA:495,18
DA:498,18
DA:507,12
DA:509,12
DA:510,12
DA:511,12
DA:570,12
DA:572,12
DA:573,12
DA:584,6
DA:586,6
DA:587,6
DA:605,18
DA:607,18
DA:608,18
DA:610,18
DA:612,0
DA:684,36
DA:686,36
DA:713,12
DA:718,18
DA:726,18
DA:728,18
DA:729,18
DA:753,66
DA:755,66
DA:756,66
DA:765,96
DA:767,18
DA:769,18
DA:770,0
DA:772,18
DA:773,18
DA:867,6
DA:869,6
DA:870,0
DA:872,12
DA:873,6
DA:874,6
DA:875,6
DA:879,102
DA:881,102
DA:882,84
DA:883,12
DA:884,84
DA:886,102
DA:908,66
DA:910,66
DA:911,66
DA:912,66
DA:913,60
DA:915,6
DA:918,66
DA:921,18
DA:942,18
DA:943,18
DA:948,12
DA:949,18
DA:951,0
DA:952,18
DA:992,18
DA:994,18
DA:995,0
DA:998,18
DA:999,12
DA:1000,12
DA:1001,12
DA:1003,0
DA:1005,12
DA:1007,6
DA:1009,0
DA:1010,0
DA:1011,0
DA:1056,90
DA:1066,6
DA:1069,18
DA:1077,18
DA:1079,18
DA:1097,66
DA:1107,6
DA:1109,6
DA:1110,6
LF:90
LH:81
end_of_record
SF:/usr/include/boost/move/utility_core.hpp
FN:227,_ZN5boost7forwardINS_10shared_ptrIKN8std_msgs8Float32_ISaIvEEEEEEEOT_RNS_11move_detail16remove_referenceIS8_E4typeE
FN:227,_ZN5boost7forwardIRKNS_10shared_ptrIKN8std_msgs5Int8_ISaIvEEEEEEEOT_RNS_11move_detail16remove_referenceISA_E4typeE
FN:227,_ZN5boost7forwardINS_10shared_ptrIKN8std_msgs5Int8_ISaIvEEEEEEEOT_RNS_11move_detail16remove_referenceIS8_E4typeE
FN:227,_ZN5boost7forwardIRKNS_10shared_ptrIKN8std_msgs8Float32_ISaIvEEEEEEEOT_RNS_11move_detail16remove_referenceISA_E4typeE
FNDA:6,_ZN5boost7forwardINS_10shared_ptrIKN8std_msgs5Int8_ISaIvEEEEEEEOT_RNS_11move_detail16remove_referenceIS8_E4typeE
FNDA:6,_ZN5boost7forwardINS_10shared_ptrIKN8std_msgs8Float32_ISaIvEEEEEEEOT_RNS_11move_detail16remove_referenceIS8_E4typeE
FNDA:6,_ZN5boost7forwardIRKNS_10shared_ptrIKN8std_msgs5Int8_ISaIvEEEEEEEOT_RNS_11move_detail16remove_referenceISA_E4typeE
FNDA:6,_ZN5boost7forwardIRKNS_10shared_ptrIKN8std_msgs8Float32_ISaIvEEEEEEEOT_RNS_11move_detail16remove_referenceISA_E4typeE
FNF:4
FNH:4
DA:227,24
DA:228,24
LF:2
LH:2
end_of_record
SF:/usr/include/boost/smart_ptr/detail/operator_bool.hpp
FN:60,_ZNK5boost10shared_ptrIN8std_msgs8Float32_ISaIvEEEEntEv
FN:60,_ZNK5boost10shared_ptrIN3ros9Publisher4ImplEEntEv
FN:60,_ZNK5boost10shared_ptrIN8std_msgs5Int8_ISaIvEEEEntEv
FNDA:3,_ZNK5boost10shared_ptrIN8std_msgs8Float32_ISaIvEEEEntEv
FNDA:3,_ZNK5boost10shared_ptrIN8std_msgs5Int8_ISaIvEEEEntEv
FNDA:0,_ZNK5boost10shared_ptrIN3ros9Publisher4ImplEEntEv
FNF:3
FNH:2
DA:60,6
DA:62,6
LF:2
LH:2
end_of_record
SF:/usr/include/boost/smart_ptr/detail/shared_count.hpp
FN:114,_ZN5boost6detail12shared_countC2Ev
FN:154,_ZN5boost6detail12shared_countC2IPhNS_21checked_array_deleterIhEEEET_T0_
FN:190,_ZN5boost6detail12shared_countC2IPN8std_msgs8Float32_ISaIvEEENS0_13sp_ms_deleterIS6_EEEET_NS0_14sp_inplace_tagIT0_EE
FN:190,_ZN5boost6detail12shared_countC2IPN3ros27SubscriptionCallbackHelperTIRKNS_10shared_ptrIKN8std_msgs8Float32_ISaIvEEEEEvEENS0_13sp_ms_deleterISE_EEEET_NS0_14sp_inplace_tagIT0_EE
FN:190,_ZN5boost6detail12shared_countC2IPN3ros27SubscriptionCallbackHelperTIRKNS_10shared_ptrIKN8std_msgs5Int8_ISaIvEEEEEvEENS0_13sp_ms_deleterISE_EEEET_NS0_14sp_inplace_tagIT0_EE
FN:190,_ZN5boost6detail12shared_countC2IPN8std_msgs5Int8_ISaIvEEENS0_13sp_ms_deleterIS6_EEEET_NS0_14sp_inplace_tagIT0_EE
FN:441,_ZN5boost6detail12shared_countD2Ev
FN:449,_ZN5boost6detail12shared_countC2ERKS1_
FN:486,_ZN5boost6detail12shared_count4swapERS1_
FN:523,_ZNK5boost6detail12shared_count19get_untyped_deleterEv
FNDA:0,_ZN5boost6detail12shared_countC2Ev
FNDA:0,_ZN5boost6detail12shared_countC2IPhNS_21checked_array_deleterIhEEEET_T0_
FNDA:3,_ZN5boost6detail12shared_countC2IPN8std_msgs5Int8_ISaIvEEENS0_13sp_ms_deleterIS6_EEEET_NS0_14sp_inplace_tagIT0_EE
FNDA:3,_ZN5boost6detail12shared_countC2IPN8std_msgs8Float32_ISaIvEEENS0_13sp_ms_deleterIS6_EEEET_NS0_14sp_inplace_tagIT0_EE
FNDA:3,_ZN5boost6detail12shared_countC2IPN3ros27SubscriptionCallbackHelperTIRKNS_10shared_ptrIKN8std_msgs5Int8_ISaIvEEEEEvEENS0_13sp_ms_deleterISE_EEEET_NS0_14sp_inplace_tagIT0_EE
FNDA:3,_ZN5boost6detail12shared_countC2IPN3ros27SubscriptionCallbackHelperTIRKNS_10shared_ptrIKN8std_msgs8Float32_ISaIvEEEEEvEENS0_13sp_ms_deleterISE_EEEET_NS0_14sp_inplace_tagIT0_EE
FNDA:0,_ZN5boost6detail12shared_countD2Ev
FNDA:0,_ZN5boost6detail12shared_countC2ERKS1_
FNDA:0,_ZN5boost6detail12shared_count4swapERS1_
FNDA:12,_ZNK5boost6detail12shared_count19get_untyped_deleterEv
FNF:10
FNH:5
DA:114,0
DA:119,0
DA:154,0
DA:167,0
DA:169,0
DA:171,0
DA:172,0
DA:186,0
DA:190,12
DA:199,12
DA:201,0
DA:203,0
DA:204,0
DA:218,12
DA:441,0
DA:442,0
DA:443,0
DA:447,0
DA:449,0
DA:454,0
DA:455,0
DA:486,0
DA:488,0
DA:489,0
DA:490,0
DA:491,0
DA:523,12
DA:525,12
LF:28
LH:5
end_of_record
SF:/usr/include/boost/smart_ptr/detail/sp_counted_base_gcc_x86.hpp
FN:35,_ZN5boost6detail23atomic_exchange_and_addEPii
FN:55,_ZN5boost6detail16atomic_incrementEPi
FN:109,_ZN5boost6detail15sp_counted_baseC2Ev
FN:113,_ZN5boost6detail15sp_counted_baseD0Ev
FN:113,_ZN5boost6detail15sp_counted_baseD2Ev
FN:124,_ZN5boost6detail15sp_counted_base7destroyEv
FN:132,_ZN5boost6detail15sp_counted_base12add_ref_copyEv
FN:142,_ZN5boost6detail15sp_counted_base7releaseEv
FN:156,_ZN5boost6detail15sp_counted_base12weak_releaseEv
FNDA:0,_ZN5boost6detail23atomic_exchange_and_addEPii
FNDA:0,_ZN5boost6detail16atomic_incrementEPi
FNDA:0,_ZN5boost6detail15sp_counted_baseC2Ev
FNDA:0,_ZN5boost6detail15sp_counted_baseD0Ev
FNDA:0,_ZN5boost6detail15sp_counted_baseD2Ev
FNDA:0,_ZN5boost6detail15sp_counted_base7destroyEv
FNDA:0,_ZN5boost6detail15sp_counted_base12add_ref_copyEv
FNDA:0,_ZN5boost6detail15sp_counted_base7releaseEv
FNDA:0,_ZN5boost6detail15sp_counted_base12weak_releaseEv
FNF:9
FNH:0
DA:35,0
DA:50,0
DA:52,0
DA:55,0
DA:66,0
DA:67,0
DA:109,0
DA:111,0
DA:113,0
DA:114,0
DA:115,0
DA:124,0
DA:126,0
DA:127,0
DA:132,0
DA:134,0
DA:135,0
DA:142,0
DA:144,0
DA:146,0
DA:147,0
DA:149,0
DA:156,0
DA:158,0
DA:160,0
DA:162,0
LF:26
LH:0
end_of_record
SF:/usr/include/boost/smart_ptr/detail/sp_counted_impl.hpp
FN:127,_ZN5boost6detail18sp_counted_impl_pdIPhNS_21checked_array_deleterIhEEED2Ev
FN:127,_ZN5boost6detail18sp_counted_impl_pdIPN3ros27SubscriptionCallbackHelperTIRKNS_10shared_ptrIKN8std_msgs8Float32_ISaIvEEEEEvEENS0_13sp_ms_deleterISD_EEED2Ev
FN:127,_ZN5boost6detail18sp_counted_impl_pdIPN3ros27SubscriptionCallbackHelperTIRKNS_10shared_ptrIKN8std_msgs5Int8_ISaIvEEEEEvEENS0_13sp_ms_deleterISD_EEED0Ev
FN:127,_ZN5boost6detail18sp_counted_impl_pdIPhNS_21checked_array_deleterIhEEED0Ev
FN:127,_ZN5boost6detail18sp_counted_impl_pdIPN8std_msgs8Float32_ISaIvEEENS0_13sp_ms_deleterIS5_EEED2Ev
FN:127,_ZN5boost6detail18sp_counted_impl_pdIPN3ros27SubscriptionCallbackHelperTIRKNS_10shared_ptrIKN8std_msgs5Int8_ISaIvEEEEEvEENS0_13sp_ms_deleterISD_EEED2Ev
FN:127,_ZN5boost6detail18sp_counted_impl_pdIPN8std_msgs5Int8_ISaIvEEENS0_13sp_ms_deleterIS5_EEED2Ev
FN:127,_ZN5boost6detail18sp_counted_impl_pdIPN8std_msgs8Float32_ISaIvEEENS0_13sp_ms_deleterIS5_EEED0Ev
FN:127,_ZN5boost6detail18sp_counted_impl_pdIPN8std_msgs5Int8_ISaIvEEENS0_13sp_ms_deleterIS5_EEED0Ev
FN:127,_ZN5boost6detail18sp_counted_impl_pdIPN3ros27SubscriptionCallbackHelperTIRKNS_10shared_ptrIKN8std_msgs8Float32_ISaIvEEEEEvEENS0_13sp_ms_deleterISD_EEED0Ev
FN:143,_ZN5boost6detail18sp_counted_impl_pdIPhNS_21checked_array_deleterIhEEEC2ES2_RS4_
FN:147,_ZN5boost6detail18sp_counted_impl_pdIPN8std_msgs5Int8_ISaIvEEENS0_13sp_ms_deleterIS5_EEEC2ES6_
FN:147,_ZN5boost6detail18sp_counted_impl_pdIPN8std_msgs8Float32_ISaIvEEENS0_13sp_ms_deleterIS5_EEEC2ES6_
FN:147,_ZN5boost6detail18sp_counted_impl_pdIPN3ros27SubscriptionCallbackHelperTIRKNS_10shared_ptrIKN8std_msgs5Int8_ISaIvEEEEEvEENS0_13sp_ms_deleterISD_EEEC2ESE_
FN:147,_ZN5boost6detail18sp_counted_impl_pdIPN3ros27SubscriptionCallbackHelperTIRKNS_10shared_ptrIKN8std_msgs8Float32_ISaIvEEEEEvEENS0_13sp_ms_deleterISD_EEEC2ESE_
FN:151,_ZN5boost6detail18sp_counted_impl_pdIPN8std_msgs8Float32_ISaIvEEENS0_13sp_ms_deleterIS5_EEE7disposeEv
FN:151,_ZN5boost6detail18sp_counted_impl_pdIPN3ros27SubscriptionCallbackHelperTIRKNS_10shared_ptrIKN8std_msgs8Float32_ISaIvEEEEEvEENS0_13sp_ms_deleterISD_EEE7disposeEv
FN:151,_ZN5boost6detail18sp_counted_impl_pdIPN3ros27SubscriptionCallbackHelperTIRKNS_10shared_ptrIKN8std_msgs5Int8_ISaIvEEEEEvEENS0_13sp_ms_deleterISD_EEE7disposeEv
FN:151,_ZN5boost6detail18sp_counted_impl_pdIPN8std_msgs5Int8_ISaIvEEENS0_13sp_ms_deleterIS5_EEE7disposeEv
FN:151,_ZN5boost6detail18sp_counted_impl_pdIPhNS_21checked_array_deleterIhEEE7disposeEv
FN:156,_ZN5boost6detail18sp_counted_impl_pdIPN3ros27SubscriptionCallbackHelperTIRKNS_10shared_ptrIKN8std_msgs5Int8_ISaIvEEEEEvEENS0_13sp_ms_deleterISD_EEE11get_deleterERKSt9type_info
FN:156,_ZN5boost6detail18sp_counted_impl_pdIPN8std_msgs8Float32_ISaIvEEENS0_13sp_ms_deleterIS5_EEE11get_deleterERKSt9type_info
FN:156,_ZN5boost6detail18sp_counted_impl_pdIPN3ros27SubscriptionCallbackHelperTIRKNS_10shared_ptrIKN8std_msgs8Float32_ISaIvEEEEEvEENS0_13sp_ms_deleterISD_EEE11get_deleterERKSt9type_info
FN:156,_ZN5boost6detail18sp_counted_impl_pdIPhNS_21checked_array_deleterIhEEE11get_deleterERKSt9type_info
FN:156,_ZN5boost6detail18sp_counted_impl_pdIPN8std_msgs5Int8_ISaIvEEENS0_13sp_ms_deleterIS5_EEE11get_deleterERKSt9type_info
FN:161,_ZN5boost6detail18sp_counted_impl_pdIPhNS_21checked_array_deleterIhEEE19get_untyped_deleterEv
FN:161,_ZN5boost6detail18sp_counted_impl_pdIPN8std_msgs5Int8_ISaIvEEENS0_13sp_ms_deleterIS5_EEE19get_untyped_deleterEv
FN:161,_ZN5boost6detail18sp_counted_impl_pdIPN3ros27SubscriptionCallbackHelperTIRKNS_10shared_ptrIKN8std_msgs5Int8_ISaIvEEEEEvEENS0_13sp_ms_deleterISD_EEE19get_untyped_deleterEv
FN:161,_ZN5boost6detail18sp_counted_impl_pdIPN8std_msgs8Float32_ISaIvEEENS0_13sp_ms_deleterIS5_EEE19get_untyped_deleterEv
FN:161,_ZN5boost6detail18sp_counted_impl_pdIPN3ros27SubscriptionCallbackHelperTIRKNS_10shared_ptrIKN8std_msgs8Float32_ISaIvEEEEEvEENS0_13sp_ms_deleterISD_EEE19get_untyped_deleterEv
FNDA:3,_ZN5boost6detail18sp_counted_impl_pdIPN3ros27SubscriptionCallbackHelperTIRKNS_10shared_ptrIKN8std_msgs8Float32_ISaIvEEEEEvEENS0_13sp_ms_deleterISD_EEED0Ev
FNDA:3,_ZN5boost6detail18sp_counted_impl_pdIPN3ros27SubscriptionCallbackHelperTIRKNS_10shared_ptrIKN8std_msgs8Float32_ISaIvEEEEEvEENS0_13sp_ms_deleterISD_EEED2Ev
FNDA:0,_ZN5boost6detail18sp_counted_impl_pdIPhNS_21checked_array_deleterIhEEED0Ev
FNDA:0,_ZN5boost6detail18sp_counted_impl_pdIPhNS_21checked_array_deleterIhEEED2Ev
FNDA:3,_ZN5boost6detail18sp_counted_impl_pdIPN3ros27SubscriptionCallbackHelperTIRKNS_10shared_ptrIKN8std_msgs5Int8_ISaIvEEEEEvEENS0_13sp_ms_deleterISD_EEED0Ev
FNDA:3,_ZN5boost6detail18sp_counted_impl_pdIPN3ros27SubscriptionCallbackHelperTIRKNS_10shared_ptrIKN8std_msgs5Int8_ISaIvEEEEEvEENS0_13sp_ms_deleterISD_EEED2Ev
FNDA:3,_ZN5boost6detail18sp_counted_impl_pdIPN8std_msgs8Float32_ISaIvEEENS0_13sp_ms_deleterIS5_EEED0Ev
FNDA:3,_ZN5boost6detail18sp_counted_impl_pdIPN8std_msgs8Float32_ISaIvEEENS0_13sp_ms_deleterIS5_EEED2Ev
FNDA:3,_ZN5boost6detail18sp_counted_impl_pdIPN8std_msgs5Int8_ISaIvEEENS0_13sp_ms_deleterIS5_EEED0Ev
FNDA:3,_ZN5boost6detail18sp_counted_impl_pdIPN8std_msgs5Int8_ISaIvEEENS0_13sp_ms_deleterIS5_EEED2Ev
FNDA:0,_ZN5boost6detail18sp_counted_impl_pdIPhNS_21checked_array_deleterIhEEEC2ES2_RS4_
FNDA:3,_ZN5boost6detail18sp_counted_impl_pdIPN8std_msgs5Int8_ISaIvEEENS0_13sp_ms_deleterIS5_EEEC2ES6_
FNDA:3,_ZN5boost6detail18sp_counted_impl_pdIPN8std_msgs8Float32_ISaIvEEENS0_13sp_ms_deleterIS5_EEEC2ES6_
FNDA:3,_ZN5boost6detail18sp_counted_impl_pdIPN3ros27SubscriptionCallbackHelperTIRKNS_10shared_ptrIKN8std_msgs5Int8_ISaIvEEEEEvEENS0_13sp_ms_deleterISD_EEEC2ESE_
FNDA:3,_ZN5boost6detail18sp_counted_impl_pdIPN3ros27SubscriptionCallbackHelperTIRKNS_10shared_ptrIKN8std_msgs8Float32_ISaIvEEEEEvEENS0_13sp_ms_deleterISD_EEEC2ESE_
FNDA:3,_ZN5boost6detail18sp_counted_impl_pdIPN3ros27SubscriptionCallbackHelperTIRKNS_10shared_ptrIKN8std_msgs8Float32_ISaIvEEEEEvEENS0_13sp_ms_deleterISD_EEE7disposeEv
FNDA:0,_ZN5boost6detail18sp_counted_impl_pdIPhNS_21checked_array_deleterIhEEE7disposeEv
FNDA:3,_ZN5boost6detail18sp_counted_impl_pdIPN3ros27SubscriptionCallbackHelperTIRKNS_10shared_ptrIKN8std_msgs5Int8_ISaIvEEEEEvEENS0_13sp_ms_deleterISD_EEE7disposeEv
FNDA:3,_ZN5boost6detail18sp_counted_impl_pdIPN8std_msgs8Float32_ISaIvEEENS0_13sp_ms_deleterIS5_EEE7disposeEv
FNDA:3,_ZN5boost6detail18sp_counted_impl_pdIPN8std_msgs5Int8_ISaIvEEENS0_13sp_ms_deleterIS5_EEE7disposeEv
FNDA:0,_ZN5boost6detail18sp_counted_impl_pdIPN3ros27SubscriptionCallbackHelperTIRKNS_10shared_ptrIKN8std_msgs8Float32_ISaIvEEEEEvEENS0_13sp_ms_deleterISD_EEE11get_deleterERKSt9type_info
FNDA:0,_ZN5boost6detail18sp_counted_impl_pdIPhNS_21checked_array_deleterIhEEE11get_deleterERKSt9type_info
FNDA:0,_ZN5boost6detail18sp_counted_impl_pdIPN3ros27SubscriptionCallbackHelperTIRKNS_10shared_ptrIKN8std_msgs5Int8_ISaIvEEEEEvEENS0_13sp_ms_deleterISD_EEE11get_deleterERKSt9type_info
FNDA:0,_ZN5boost6detail18sp_counted_impl_pdIPN8std_msgs8Float32_ISaIvEEENS0_13sp_ms_deleterIS5_EEE11get_deleterERKSt9type_info
FNDA:0,_ZN5boost6detail18sp_counted_impl_pdIPN8std_msgs5Int8_ISaIvEEENS0_13sp_ms_deleterIS5_EEE11get_deleterERKSt9type_info
FNDA:3,_ZN5boost6detail18sp_counted_impl_pdIPN3ros27SubscriptionCallbackHelperTIRKNS_10shared_ptrIKN8std_msgs8Float32_ISaIvEEEEEvEENS0_13sp_ms_deleterISD_EEE19get_untyped_deleterEv
FNDA:0,_ZN5boost6detail18sp_counted_impl_pdIPhNS_21checked_array_deleterIhEEE19get_untyped_deleterEv
FNDA:3,_ZN5boost6detail18sp_counted_impl_pdIPN3ros27SubscriptionCallbackHelperTIRKNS_10shared_ptrIKN8std_msgs5Int8_ISaIvEEEEEvEENS0_13sp_ms_deleterISD_EEE19get_untyped_deleterEv
FNDA:3,_ZN5boost6detail18sp_counted_impl_pdIPN8std_msgs8Float32_ISaIvEEENS0_13sp_ms_deleterIS5_EEE19get_untyped_deleterEv
FNDA:3,_ZN5boost6detail18sp_counted_impl_pdIPN8std_msgs5Int8_ISaIvEEENS0_13sp_ms_deleterIS5_EEE19get_untyped_deleterEv
FNF:30
FNH:20
DA:127,24
DA:143,0
DA:145,0
DA:147,12
DA:149,12
DA:151,12
DA:153,12
DA:154,12
DA:156,0
DA:158,0
DA:161,12
DA:163,12
LF:12
LH:8
end_of_record
SF:/usr/include/boost/smart_ptr/detail/sp_forward.hpp
FN:39,_ZN5boost6detail10sp_forwardIRKNS_8functionIFNS_10shared_ptrIN8std_msgs5Int8_ISaIvEEEEEvEEEEEOT_RSD_
FN:39,_ZN5boost6detail10sp_forwardIRKNS_8functionIFvRKNS_10shared_ptrIKN8std_msgs5Int8_ISaIvEEEEEEEEEEOT_RSG_
FN:39,_ZN5boost6detail10sp_forwardIRKNS_8functionIFNS_10shared_ptrIN8std_msgs8Float32_ISaIvEEEEEvEEEEEOT_RSD_
FN:39,_ZN5boost6detail10sp_forwardIRKNS_8functionIFvRKNS_10shared_ptrIKN8std_msgs8Float32_ISaIvEEEEEEEEEEOT_RSG_
FNDA:3,_ZN5boost6detail10sp_forwardIRKNS_8functionIFNS_10shared_ptrIN8std_msgs5Int8_ISaIvEEEEEvEEEEEOT_RSD_
FNDA:3,_ZN5boost6detail10sp_forwardIRKNS_8functionIFvRKNS_10shared_ptrIKN8std_msgs5Int8_ISaIvEEEEEEEEEEOT_RSG_
FNDA:3,_ZN5boost6detail10sp_forwardIRKNS_8functionIFNS_10shared_ptrIN8std_msgs8Float32_ISaIvEEEEEvEEEEEOT_RSD_
FNDA:3,_ZN5boost6detail10sp_forwardIRKNS_8functionIFvRKNS_10shared_ptrIKN8std_msgs8Float32_ISaIvEEEEEEEEEEOT_RSG_
FNF:4
FNH:4
DA:39,12
DA:41,12
LF:2
LH:2
end_of_record
SF:/usr/include/boost/smart_ptr/make_shared_object.hpp
FN:49,_ZN5boost6detail13sp_ms_deleterIN3ros27SubscriptionCallbackHelperTIRKNS_10shared_ptrIKN8std_msgs8Float32_ISaIvEEEEEvEEE7destroyEv
FN:49,_ZN5boost6detail13sp_ms_deleterIN8std_msgs8Float32_ISaIvEEEE7destroyEv
FN:49,_ZN5boost6detail13sp_ms_deleterIN3ros27SubscriptionCallbackHelperTIRKNS_10shared_ptrIKN8std_msgs5Int8_ISaIvEEEEEvEEE7destroyEv
FN:49,_ZN5boost6detail13sp_ms_deleterIN8std_msgs5Int8_ISaIvEEEE7destroyEv
FN:71,_ZN5boost6detail13sp_ms_deleterIN3ros27SubscriptionCallbackHelperTIRKNS_10shared_ptrIKN8std_msgs5Int8_ISaIvEEEEEvEEEC2Ev
FN:71,_ZN5boost6detail13sp_ms_deleterIN8std_msgs8Float32_ISaIvEEEEC2Ev
FN:71,_ZN5boost6detail13sp_ms_deleterIN8std_msgs5Int8_ISaIvEEEEC2Ev
FN:71,_ZN5boost6detail13sp_ms_deleterIN3ros27SubscriptionCallbackHelperTIRKNS_10shared_ptrIKN8std_msgs8Float32_ISaIvEEEEEvEEEC2Ev
FN:84,_ZN5boost6detail13sp_ms_deleterIN8std_msgs5Int8_ISaIvEEEED2Ev
FN:84,_ZN5boost6detail13sp_ms_deleterIN3ros27SubscriptionCallbackHelperTIRKNS_10shared_ptrIKN8std_msgs5Int8_ISaIvEEEEEvEEED2Ev
FN:84,_ZN5boost6detail13sp_ms_deleterIN3ros27SubscriptionCallbackHelperTIRKNS_10shared_ptrIKN8std_msgs8Float32_ISaIvEEEEEvEEED2Ev
FN:84,_ZN5boost6detail13sp_ms_deleterIN8std_msgs8Float32_ISaIvEEEED2Ev
FN:89,_ZN5boost6detail13sp_ms_deleterIN8std_msgs8Float32_ISaIvEEEEclEPS5_
FN:89,_ZN5boost6detail13sp_ms_deleterIN8std_msgs5Int8_ISaIvEEEEclEPS5_
FN:89,_ZN5boost6detail13sp_ms_deleterIN3ros27SubscriptionCallbackHelperTIRKNS_10shared_ptrIKN8std_msgs5Int8_ISaIvEEEEEvEEEclEPSD_
FN:89,_ZN5boost6detail13sp_ms_deleterIN3ros27SubscriptionCallbackHelperTIRKNS_10shared_ptrIKN8std_msgs8Float32_ISaIvEEEEEvEEEclEPSD_
FN:94,_ZN5boost6detail13sp_ms_deleterIN3ros27SubscriptionCallbackHelperTIRKNS_10shared_ptrIKN8std_msgs5Int8_ISaIvEEEEEvEEE11operator_fnEPSD_
FN:94,_ZN5boost6detail13sp_ms_deleterIN3ros27SubscriptionCallbackHelperTIRKNS_10shared_ptrIKN8std_msgs8Float32_ISaIvEEEEEvEEE11operator_fnEPSD_
FN:94,_ZN5boost6detail13sp_ms_deleterIN8std_msgs5Int8_ISaIvEEEE11operator_fnEPS5_
FN:94,_ZN5boost6detail13sp_ms_deleterIN8std_msgs8Float32_ISaIvEEEE11operator_fnEPS5_
FN:98,_ZN5boost6detail13sp_ms_deleterIN3ros27SubscriptionCallbackHelperTIRKNS_10shared_ptrIKN8std_msgs5Int8_ISaIvEEEEEvEEE7addressEv
FN:98,_ZN5boost6detail13sp_ms_deleterIN8std_msgs8Float32_ISaIvEEEE7addressEv
FN:98,_ZN5boost6detail13sp_ms_deleterIN8std_msgs5Int8_ISaIvEEEE7addressEv
FN:98,_ZN5boost6detail13sp_ms_deleterIN3ros27SubscriptionCallbackHelperTIRKNS_10shared_ptrIKN8std_msgs8Float32_ISaIvEEEEEvEEE7addressEv
FN:103,_ZN5boost6detail13sp_ms_deleterIN8std_msgs5Int8_ISaIvEEEE15set_initializedEv
FN:103,_ZN5boost6detail13sp_ms_deleterIN3ros27SubscriptionCallbackHelperTIRKNS_10shared_ptrIKN8std_msgs5Int8_ISaIvEEEEEvEEE15set_initializedEv
FN:103,_ZN5boost6detail13sp_ms_deleterIN3ros27SubscriptionCallbackHelperTIRKNS_10shared_ptrIKN8std_msgs8Float32_ISaIvEEEEEvEEE15set_initializedEv
FN:103,_ZN5boost6detail13sp_ms_deleterIN8std_msgs8Float32_ISaIvEEEE15set_initializedEv
FN:246,_ZN5boost11make_sharedIN8std_msgs5Int8_ISaIvEEEJEEENS_6detail15sp_if_not_arrayIT_E4typeEDpOT0_
FN:246,_ZN5boost11make_sharedIN3ros27SubscriptionCallbackHelperTIRKNS_10shared_ptrIKN8std_msgs8Float32_ISaIvEEEEEvEEJRKNS_8functionIFvSB_EEERKNSD_IFNS3_IS7_EEvEEEEEENS_6detail15sp_if_not_arrayIT_E4typeEDpOT0_
FN:246,_ZN5boost11make_sharedIN8std_msgs8Float32_ISaIvEEEJEEENS_6detail15sp_if_not_arrayIT_E4typeEDpOT0_
FN:246,_ZN5boost11make_sharedIN3ros27SubscriptionCallbackHelperTIRKNS_10shared_ptrIKN8std_msgs5Int8_ISaIvEEEEEvEEJRKNS_8functionIFvSB_EEERKNSD_IFNS3_IS7_EEvEEEEEENS_6detail15sp_if_not_arrayIT_E4typeEDpOT0_
FNDA:6,_ZN5boost6detail13sp_ms_deleterIN8std_msgs5Int8_ISaIvEEEE7destroyEv
FNDA:6,_ZN5boost6detail13sp_ms_deleterIN8std_msgs8Float32_ISaIvEEEE7destroyEv
FNDA:6,_ZN5boost6detail13sp_ms_deleterIN3ros27SubscriptionCallbackHelperTIRKNS_10shared_ptrIKN8std_msgs5Int8_ISaIvEEEEEvEEE7destroyEv
FNDA:6,_ZN5boost6detail13sp_ms_deleterIN3ros27SubscriptionCallbackHelperTIRKNS_10shared_ptrIKN8std_msgs8Float32_ISaIvEEEEEvEEE7destroyEv
FNDA:3,_ZN5boost6detail13sp_ms_deleterIN8std_msgs5Int8_ISaIvEEEEC2Ev
FNDA:3,_ZN5boost6detail13sp_ms_deleterIN8std_msgs8Float32_ISaIvEEEEC2Ev
FNDA:3,_ZN5boost6detail13sp_ms_deleterIN3ros27SubscriptionCallbackHelperTIRKNS_10shared_ptrIKN8std_msgs5Int8_ISaIvEEEEEvEEEC2Ev
FNDA:3,_ZN5boost6detail13sp_ms_deleterIN3ros27SubscriptionCallbackHelperTIRKNS_10shared_ptrIKN8std_msgs8Float32_ISaIvEEEEEvEEEC2Ev
FNDA:3,_ZN5boost6detail13sp_ms_deleterIN8std_msgs5Int8_ISaIvEEEED2Ev
FNDA:3,_ZN5boost6detail13sp_ms_deleterIN8std_msgs8Float32_ISaIvEEEED2Ev
FNDA:3,_ZN5boost6detail13sp_ms_deleterIN3ros27SubscriptionCallbackHelperTIRKNS_10shared_ptrIKN8std_msgs5Int8_ISaIvEEEEEvEEED2Ev
FNDA:3,_ZN5boost6detail13sp_ms_deleterIN3ros27SubscriptionCallbackHelperTIRKNS_10shared_ptrIKN8std_msgs8Float32_ISaIvEEEEEvEEED2Ev
FNDA:3,_ZN5boost6detail13sp_ms_deleterIN3ros27SubscriptionCallbackHelperTIRKNS_10shared_ptrIKN8std_msgs8Float32_ISaIvEEEEEvEEEclEPSD_
FNDA:3,_ZN5boost6detail13sp_ms_deleterIN3ros27SubscriptionCallbackHelperTIRKNS_10shared_ptrIKN8std_msgs5Int8_ISaIvEEEEEvEEEclEPSD_
FNDA:3,_ZN5boost6detail13sp_ms_deleterIN8std_msgs8Float32_ISaIvEEEEclEPS5_
FNDA:3,_ZN5boost6detail13sp_ms_deleterIN8std_msgs5Int8_ISaIvEEEEclEPS5_
FNDA:0,_ZN5boost6detail13sp_ms_deleterIN8std_msgs5Int8_ISaIvEEEE11operator_fnEPS5_
FNDA:0,_ZN5boost6detail13sp_ms_deleterIN8std_msgs8Float32_ISaIvEEEE11operator_fnEPS5_
FNDA:0,_ZN5boost6detail13sp_ms_deleterIN3ros27SubscriptionCallbackHelperTIRKNS_10shared_ptrIKN8std_msgs5Int8_ISaIvEEEEEvEEE11operator_fnEPSD_
FNDA:0,_ZN5boost6detail13sp_ms_deleterIN3ros27SubscriptionCallbackHelperTIRKNS_10shared_ptrIKN8std_msgs8Float32_ISaIvEEEEEvEEE11operator_fnEPSD_
FNDA:3,_ZN5boost6detail13sp_ms_deleterIN8std_msgs5Int8_ISaIvEEEE7addressEv
FNDA:3,_ZN5boost6detail13sp_ms_deleterIN8std_msgs8Float32_ISaIvEEEE7addressEv
FNDA:3,_ZN5boost6detail13sp_ms_deleterIN3ros27SubscriptionCallbackHelperTIRKNS_10shared_ptrIKN8std_msgs5Int8_ISaIvEEEEEvEEE7addressEv
FNDA:3,_ZN5boost6detail13sp_ms_deleterIN3ros27SubscriptionCallbackHelperTIRKNS_10shared_ptrIKN8std_msgs8Float32_ISaIvEEEEEvEEE7addressEv
FNDA:3,_ZN5boost6detail13sp_ms_deleterIN8std_msgs5Int8_ISaIvEEEE15set_initializedEv
FNDA:3,_ZN5boost6detail13sp_ms_deleterIN8std_msgs8Float32_ISaIvEEEE15set_initializedEv
FNDA:3,_ZN5boost6detail13sp_ms_deleterIN3ros27SubscriptionCallbackHelperTIRKNS_10shared_ptrIKN8std_msgs5Int8_ISaIvEEEEEvEEE15set_initializedEv
FNDA:3,_ZN5boost6detail13sp_ms_deleterIN3ros27SubscriptionCallbackHelperTIRKNS_10shared_ptrIKN8std_msgs8Float32_ISaIvEEEEEvEEE15set_initializedEv
FNDA:3,_ZN5boost11make_sharedIN8std_msgs5Int8_ISaIvEEEJEEENS_6detail15sp_if_not_arrayIT_E4typeEDpOT0_
FNDA:3,_ZN5boost11make_sharedIN8std_msgs8Float32_ISaIvEEEJEEENS_6detail15sp_if_not_arrayIT_E4typeEDpOT0_
FNDA:3,_ZN5boost11make_sharedIN3ros27SubscriptionCallbackHelperTIRKNS_10shared_ptrIKN8std_msgs5Int8_ISaIvEEEEEvEEJRKNS_8functionIFvSB_EEERKNSD_IFNS3_IS7_EEvEEEEEENS_6detail15sp_if_not_arrayIT_E4typeEDpOT0_
FNDA:3,_ZN5boost11make_sharedIN3ros27SubscriptionCallbackHelperTIRKNS_10shared_ptrIKN8std_msgs8Float32_ISaIvEEEEEvEEJRKNS_8functionIFvSB_EEERKNSD_IFNS3_IS7_EEvEEEEEENS_6detail15sp_if_not_arrayIT_E4typeEDpOT0_
FNF:32
FNH:28
DA:49,24
DA:51,24
DA:56,12
DA:57,6
DA:65,12
DA:67,24
DA:71,12
DA:73,12
DA:84,12
DA:86,12
DA:87,12
DA:89,12
DA:91,12
DA:92,12
DA:94,0
DA:96,0
DA:98,12
DA:100,12
DA:103,12
DA:105,12
DA:106,12
DA:246,12
DA:248,24
DA:250,12
DA:252,12
DA:254,12
DA:255,12
DA:257,12
DA:259,12
DA:260,24
LF:30
LH:28
end_of_record
SF:/usr/include/boost/smart_ptr/shared_array.hpp
FN:44,_ZN5boost12shared_arrayIhED2Ev
FN:56,_ZN5boost12shared_arrayIhEC2Ev
FN:69,_ZN5boost12shared_arrayIhEC2IhEEPT_
FN:175,_ZN5boost12shared_arrayIhE5resetIhEEvPT_
FN:203,_ZNK5boost12shared_arrayIhE3getEv
FN:221,_ZN5boost12shared_arrayIhE4swapERS1_
FNDA:0,_ZN5boost12shared_arrayIhED2Ev
FNDA:0,_ZN5boost12shared_arrayIhEC2Ev
FNDA:0,_ZN5boost12shared_arrayIhEC2IhEEPT_
FNDA:0,_ZN5boost12shared_arrayIhE5resetIhEEvPT_
FNDA:0,_ZNK5boost12shared_arrayIhE3getEv
FNDA:0,_ZN5boost12shared_arrayIhE4swapERS1_
FNF:6
FNH:0
DA:44,0
DA:56,0
DA:58,0
DA:69,0
DA:71,0
DA:72,0
DA:175,0
DA:177,0
DA:178,0
DA:179,0
DA:203,0
DA:205,0
DA:221,0
DA:223,0
DA:224,0
DA:225,0
LF:16
LH:0
end_of_record
SF:/usr/include/boost/smart_ptr/shared_ptr.hpp
FN:228,_ZN5boost6detail26sp_enable_shared_from_thisEz
FN:251,_ZN5boost6detail21sp_assert_convertibleIN3ros27SubscriptionCallbackHelperTIRKNS_10shared_ptrIKN8std_msgs8Float32_ISaIvEEEEEvEENS2_26SubscriptionCallbackHelperEEEvv
FN:251,_ZN5boost6detail21sp_assert_convertibleIvKvEEvv
FN:251,_ZN5boost6detail21sp_assert_convertibleIN8std_msgs8Float32_ISaIvEEEKS5_EEvv
FN:251,_ZN5boost6detail21sp_assert_convertibleIA_hS2_EEvv
FN:251,_ZN5boost6detail21sp_assert_convertibleIN8std_msgs8Float32_ISaIvEEEKvEEvv
FN:251,_ZN5boost6detail21sp_assert_convertibleIN8std_msgs5Int8_ISaIvEEEKS5_EEvv
FN:251,_ZN5boost6detail21sp_assert_convertibleIN8std_msgs5Int8_ISaIvEEEKvEEvv
FN:251,_ZN5boost6detail21sp_assert_convertibleIN3ros27SubscriptionCallbackHelperTIRKNS_10shared_ptrIKN8std_msgs5Int8_ISaIvEEEEEvEENS2_26SubscriptionCallbackHelperEEEvv
FN:293,_ZN5boost6detail20sp_deleter_constructIN8std_msgs8Float32_ISaIvEEES5_EEvPNS_10shared_ptrIT_EEPT0_
FN:293,_ZN5boost6detail20sp_deleter_constructIN3ros27SubscriptionCallbackHelperTIRKNS_10shared_ptrIKN8std_msgs5Int8_ISaIvEEEEEvEESD_EEvPNS4_IT_EEPT0_
FN:293,_ZN5boost6detail20sp_deleter_constructIN8std_msgs5Int8_ISaIvEEES5_EEvPNS_10shared_ptrIT_EEPT0_
FN:293,_ZN5boost6detail20sp_deleter_constructIN3ros27SubscriptionCallbackHelperTIRKNS_10shared_ptrIKN8std_msgs8Float32_ISaIvEEEEEvEESD_EEvPNS4_IT_EEPT0_
FN:323,_ZN5boost10shared_ptrIKN8std_msgs5Int8_ISaIvEEEED2Ev
FN:323,_ZN5boost10shared_ptrIKN8std_msgs8Float32_ISaIvEEEED2Ev
FN:323,_ZN5boost10shared_ptrIN8std_msgs5Int8_ISaIvEEEED2Ev
FN:323,_ZN5boost10shared_ptrIKvED2Ev
FN:323,_ZN5boost10shared_ptrIN3ros27SubscriptionCallbackHelperTIRKNS0_IKN8std_msgs5Int8_ISaIvEEEEEvEEED2Ev
FN:323,_ZN5boost10shared_ptrIN3ros26SubscriptionCallbackHelperEED2Ev
FN:323,_ZN5boost10shared_ptrIvED2Ev
FN:323,_ZN5boost10shared_ptrIN8std_msgs8Float32_ISaIvEEEED2Ev
FN:323,_ZN5boost10shared_ptrISt3mapINSt7__cxx1112basic_stringIcSt11char_traitsIcESaIcEEES7_St4lessIS7_ESaISt4pairIKS7_S7_EEEED2Ev
FN:323,_ZN5boost10shared_ptrIN3ros27SubscriptionCallbackHelperTIRKNS0_IKN8std_msgs8Float32_ISaIvEEEEEvEEED2Ev
FN:334,_ZN5boost10shared_ptrIN8std_msgs5Int8_ISaIvEEEEC2Ev
FN:334,_ZN5boost10shared_ptrIKvEC2Ev
FN:334,_ZN5boost10shared_ptrISt3mapINSt7__cxx1112basic_stringIcSt11char_traitsIcESaIcEEES7_St4lessIS7_ESaISt4pairIKS7_S7_EEEEC2Ev
FN:334,_ZN5boost10shared_ptrIKN8std_msgs5Int8_ISaIvEEEEC2Ev
FN:334,_ZN5boost10shared_ptrIKN8std_msgs8Float32_ISaIvEEEEC2Ev
FN:334,_ZN5boost10shared_ptrIN3ros26SubscriptionCallbackHelperEEC2Ev
FN:334,_ZN5boost10shared_ptrIN8std_msgs8Float32_ISaIvEEEEC2Ev
FN:358,_ZN5boost10shared_ptrIN3ros27SubscriptionCallbackHelperTIRKNS0_IKN8std_msgs8Float32_ISaIvEEEEEvEEEC2ISB_NS_6detail14sp_inplace_tagINSE_13sp_ms_deleterISB_EEEEEEPT_T0_
FN:358,_ZN5boost10shared_ptrIN8std_msgs8Float32_ISaIvEEEEC2IS4_NS_6detail14sp_inplace_tagINS7_13sp_ms_deleterIS4_EEEEEEPT_T0_
FN:358,_ZN5boost10shared_ptrIN3ros27SubscriptionCallbackHelperTIRKNS0_IKN8std_msgs5Int8_ISaIvEEEEEvEEEC2ISB_NS_6detail14sp_inplace_tagINSE_13sp_ms_deleterISB_EEEEEEPT_T0_
FN:358,_ZN5boost10shared_ptrIN8std_msgs5Int8_ISaIvEEEEC2IS4_NS_6detail14sp_inplace_tagINS7_13sp_ms_deleterIS4_EEEEEEPT_T0_
FN:392,_ZN5boost10shared_ptrIN8std_msgs8Float32_ISaIvEEEEC2ERKS5_
FN:392,_ZN5boost10shared_ptrISt3mapINSt7__cxx1112basic_stringIcSt11char_traitsIcESaIcEEES7_St4lessIS7_ESaISt4pairIKS7_S7_EEEEC2ERKSF_
FN:392,_ZN5boost10shared_ptrIN8std_msgs5Int8_ISaIvEEEEC2ERKS5_
FN:392,_ZN5boost10shared_ptrIKN8std_msgs8Float32_ISaIvEEEEC2ERKS6_
FN:392,_ZN5boost10shared_ptrIKN8std_msgs5Int8_ISaIvEEEEC2ERKS6_
FN:420,_ZN5boost10shared_ptrIKvEC2IN8std_msgs5Int8_ISaIvEEEEERKNS0_IT_EENS_6detail24sp_enable_if_convertibleIS8_S1_E4typeE
FN:420,_ZN5boost10shared_ptrIKvEC2IN8std_msgs8Float32_ISaIvEEEEERKNS0_IT_EENS_6detail24sp_enable_if_convertibleIS8_S1_E4typeE
FN:434,_ZN5boost10shared_ptrIN8std_msgs5Int8_ISaIvEEEEC2IKS4_EERKNS0_IT_EEPS4_
FN:434,_ZN5boost10shared_ptrIKN8std_msgs5Int8_ISaIvEEEEC2IKvEERKNS0_IT_EEPS5_
FN:434,_ZN5boost10shared_ptrIN8std_msgs8Float32_ISaIvEEEEC2IS4_EERKNS0_IT_EEPS4_
FN:434,_ZN5boost10shared_ptrIN3ros27SubscriptionCallbackHelperTIRKNS0_IKN8std_msgs5Int8_ISaIvEEEEEvEEEC2ISB_EERKNS0_IT_EEPSB_
FN:434,_ZN5boost10shared_ptrIvEC2IKvEERKNS0_IT_EEPv
FN:434,_ZN5boost10shared_ptrIN8std_msgs5Int8_ISaIvEEEEC2IS4_EERKNS0_IT_EEPS4_
FN:434,_ZN5boost10shared_ptrIKN8std_msgs8Float32_ISaIvEEEEC2IKvEERKNS0_IT_EEPS5_
FN:434,_ZN5boost10shared_ptrIN8std_msgs8Float32_ISaIvEEEEC2IKS4_EERKNS0_IT_EEPS4_
FN:434,_ZN5boost10shared_ptrIN3ros27SubscriptionCallbackHelperTIRKNS0_IKN8std_msgs8Float32_ISaIvEEEEEvEEEC2ISB_EERKNS0_IT_EEPSB_
FN:500,_ZN5boost10shared_ptrIKN8std_msgs5Int8_ISaIvEEEEaSERKS6_
FN:500,_ZN5boost10shared_ptrIN8std_msgs5Int8_ISaIvEEEEaSERKS5_
FN:500,_ZN5boost10shared_ptrIKN8std_msgs8Float32_ISaIvEEEEaSERKS6_
FN:500,_ZN5boost10shared_ptrIN8std_msgs8Float32_ISaIvEEEEaSERKS5_
FN:500,_ZN5boost10shared_ptrISt3mapINSt7__cxx1112basic_stringIcSt11char_traitsIcESaIcEEES7_St4lessIS7_ESaISt4pairIKS7_S7_EEEEaSERKSF_
FN:563,_ZN5boost10shared_ptrIKN8std_msgs8Float32_ISaIvEEEEC2EOS6_
FN:563,_ZN5boost10shared_ptrIKN8std_msgs5Int8_ISaIvEEEEC2EOS6_
FN:572,_ZN5boost10shared_ptrIKN8std_msgs8Float32_ISaIvEEEEC2IS4_EEONS0_IT_EENS_6detail24sp_enable_if_convertibleIS8_S5_E4typeE
FN:572,_ZN5boost10shared_ptrIKvEC2IvEEONS0_IT_EENS_6detail24sp_enable_if_convertibleIS4_S1_E4typeE
FN:572,_ZN5boost10shared_ptrIN3ros26SubscriptionCallbackHelperEEC2INS1_27SubscriptionCallbackHelperTIRKNS0_IKN8std_msgs8Float32_ISaIvEEEEEvEEEEONS0_IT_EENS_6detail24sp_enable_if_convertibleISF_S2_E4typeE
FN:572,_ZN5boost10shared_ptrIKN8std_msgs5Int8_ISaIvEEEEC2IS4_EEONS0_IT_EENS_6detail24sp_enable_if_convertibleIS8_S5_E4typeE
FN:572,_ZN5boost10shared_ptrIN3ros26SubscriptionCallbackHelperEEC2INS1_27SubscriptionCallbackHelperTIRKNS0_IKN8std_msgs5Int8_ISaIvEEEEEvEEEEONS0_IT_EENS_6detail24sp_enable_if_convertibleISF_S2_E4typeE
FN:594,_ZN5boost10shared_ptrIN3ros26SubscriptionCallbackHelperEEaSINS1_27SubscriptionCallbackHelperTIRKNS0_IKN8std_msgs5Int8_ISaIvEEEEEvEEEERS3_ONS0_IT_EE
FN:594,_ZN5boost10shared_ptrIN3ros26SubscriptionCallbackHelperEEaSINS1_27SubscriptionCallbackHelperTIRKNS0_IKN8std_msgs8Float32_ISaIvEEEEEvEEEERS3_ONS0_IT_EE
FN:639,_ZNK5boost10shared_ptrIN8std_msgs5Int8_ISaIvEEEEdeEv
FN:639,_ZNK5boost10shared_ptrIN8std_msgs8Float32_ISaIvEEEEdeEv
FN:646,_ZNK5boost10shared_ptrIN3ros9Publisher4ImplEEptEv
FN:661,_ZNK5boost10shared_ptrIKN8std_msgs5Int8_ISaIvEEEE3getEv
FN:661,_ZNK5boost10shared_ptrIKvE3getEv
FN:661,_ZNK5boost10shared_ptrIKN8std_msgs8Float32_ISaIvEEEE3getEv
FN:679,_ZN5boost10shared_ptrIN3ros26SubscriptionCallbackHelperEE4swapERS3_
FN:679,_ZN5boost10shared_ptrISt3mapINSt7__cxx1112basic_stringIcSt11char_traitsIcESaIcEEES7_St4lessIS7_ESaISt4pairIKS7_S7_EEEE4swapERSF_
FN:679,_ZN5boost10shared_ptrIKN8std_msgs5Int8_ISaIvEEEE4swapERS6_
FN:679,_ZN5boost10shared_ptrIN8std_msgs5Int8_ISaIvEEEE4swapERS5_
FN:679,_ZN5boost10shared_ptrIKN8std_msgs8Float32_ISaIvEEEE4swapERS6_
FN:679,_ZN5boost10shared_ptrIN8std_msgs8Float32_ISaIvEEEE4swapERS5_
FN:700,_ZNK5boost10shared_ptrIN3ros27SubscriptionCallbackHelperTIRKNS0_IKN8std_msgs5Int8_ISaIvEEEEEvEEE29_internal_get_untyped_deleterEv
FN:700,_ZNK5boost10shared_ptrIN8std_msgs5Int8_ISaIvEEEE29_internal_get_untyped_deleterEv
FN:700,_ZNK5boost10shared_ptrIN8std_msgs8Float32_ISaIvEEEE29_internal_get_untyped_deleterEv
FN:700,_ZNK5boost10shared_ptrIN3ros27SubscriptionCallbackHelperTIRKNS0_IKN8std_msgs8Float32_ISaIvEEEEEvEEE29_internal_get_untyped_deleterEv
FN:783,_ZN5boost19static_pointer_castIKN8std_msgs8Float32_ISaIvEEEKvEENS_10shared_ptrIT_EERKNS7_IT0_EE
FN:783,_ZN5boost19static_pointer_castIKN8std_msgs5Int8_ISaIvEEEKvEENS_10shared_ptrIT_EERKNS7_IT0_EE
FN:793,_ZN5boost18const_pointer_castIvKvEENS_10shared_ptrIT_EERKNS2_IT0_EE
FN:793,_ZN5boost18const_pointer_castIN8std_msgs8Float32_ISaIvEEEKS4_EENS_10shared_ptrIT_EERKNS6_IT0_EE
FN:793,_ZN5boost18const_pointer_castIN8std_msgs5Int8_ISaIvEEEKS4_EENS_10shared_ptrIT_EERKNS6_IT0_EE
FNDA:24,_ZN5boost6detail26sp_enable_shared_from_thisEz
FNDA:6,_ZN5boost6detail21sp_assert_convertibleIvKvEEvv
FNDA:6,_ZN5boost6detail21sp_assert_convertibleIN8std_msgs8Float32_ISaIvEEEKS5_EEvv
FNDA:6,_ZN5boost6detail21sp_assert_convertibleIN8std_msgs5Int8_ISaIvEEEKS5_EEvv
FNDA:3,_ZN5boost6detail21sp_assert_convertibleIN8std_msgs8Float32_ISaIvEEEKvEEvv
FNDA:3,_ZN5boost6detail21sp_assert_convertibleIN8std_msgs5Int8_ISaIvEEEKvEEvv
FNDA:3,_ZN5boost6detail21sp_assert_convertibleIN3ros27SubscriptionCallbackHelperTIRKNS_10shared_ptrIKN8std_msgs5Int8_ISaIvEEEEEvEENS2_26SubscriptionCallbackHelperEEEvv
FNDA:0,_ZN5boost6detail21sp_assert_convertibleIA_hS2_EEvv
FNDA:3,_ZN5boost6detail21sp_assert_convertibleIN3ros27SubscriptionCallbackHelperTIRKNS_10shared_ptrIKN8std_msgs8Float32_ISaIvEEEEEvEENS2_26SubscriptionCallbackHelperEEEvv
FNDA:3,_ZN5boost6detail20sp_deleter_constructIN8std_msgs5Int8_ISaIvEEES5_EEvPNS_10shared_ptrIT_EEPT0_
FNDA:3,_ZN5boost6detail20sp_deleter_constructIN8std_msgs8Float32_ISaIvEEES5_EEvPNS_10shared_ptrIT_EEPT0_
FNDA:3,_ZN5boost6detail20sp_deleter_constructIN3ros27SubscriptionCallbackHelperTIRKNS_10shared_ptrIKN8std_msgs5Int8_ISaIvEEEEEvEESD_EEvPNS4_IT_EEPT0_
FNDA:3,_ZN5boost6detail20sp_deleter_constructIN3ros27SubscriptionCallbackHelperTIRKNS_10shared_ptrIKN8std_msgs8Float32_ISaIvEEEEEvEESD_EEvPNS4_IT_EEPT0_
FNDA:6,_ZN5boost10shared_ptrIvED2Ev
FNDA:18,_ZN5boost10shared_ptrIKN8std_msgs8Float32_ISaIvEEEED2Ev
FNDA:18,_ZN5boost10shared_ptrIKN8std_msgs5Int8_ISaIvEEEED2Ev
FNDA:24,_ZN5boost10shared_ptrISt3mapINSt7__cxx1112basic_stringIcSt11char_traitsIcESaIcEEES7_St4lessIS7_ESaISt4pairIKS7_S7_EEEED2Ev
FNDA:21,_ZN5boost10shared_ptrIN8std_msgs5Int8_ISaIvEEEED2Ev
FNDA:21,_ZN5boost10shared_ptrIN8std_msgs8Float32_ISaIvEEEED2Ev
FNDA:6,_ZN5boost10shared_ptrIN3ros27SubscriptionCallbackHelperTIRKNS0_IKN8std_msgs5Int8_ISaIvEEEEEvEEED2Ev
FNDA:6,_ZN5boost10shared_ptrIN3ros27SubscriptionCallbackHelperTIRKNS0_IKN8std_msgs8Float32_ISaIvEEEEEvEEED2Ev
FNDA:12,_ZN5boost10shared_ptrIN3ros26SubscriptionCallbackHelperEED2Ev
FNDA:0,_ZN5boost10shared_ptrIKvED2Ev
FNDA:3,_ZN5boost10shared_ptrIKN8std_msgs8Float32_ISaIvEEEEC2Ev
FNDA:3,_ZN5boost10shared_ptrIKN8std_msgs5Int8_ISaIvEEEEC2Ev
FNDA:6,_ZN5boost10shared_ptrIN8std_msgs8Float32_ISaIvEEEEC2Ev
FNDA:12,_ZN5boost10shared_ptrISt3mapINSt7__cxx1112basic_stringIcSt11char_traitsIcESaIcEEES7_St4lessIS7_ESaISt4pairIKS7_S7_EEEEC2Ev
FNDA:6,_ZN5boost10shared_ptrIN8std_msgs5Int8_ISaIvEEEEC2Ev
FNDA:6,_ZN5boost10shared_ptrIN3ros26SubscriptionCallbackHelperEEC2Ev
FNDA:0,_ZN5boost10shared_ptrIKvEC2Ev
FNDA:3,_ZN5boost10shared_ptrIN8std_msgs5Int8_ISaIvEEEEC2IS4_NS_6detail14sp_inplace_tagINS7_13sp_ms_deleterIS4_EEEEEEPT_T0_
FNDA:3,_ZN5boost10shared_ptrIN8std_msgs8Float32_ISaIvEEEEC2IS4_NS_6detail14sp_inplace_tagINS7_13sp_ms_deleterIS4_EEEEEEPT_T0_
FNDA:3,_ZN5boost10shared_ptrIN3ros27SubscriptionCallbackHelperTIRKNS0_IKN8std_msgs5Int8_ISaIvEEEEEvEEEC2ISB_NS_6detail14sp_inplace_tagINSE_13sp_ms_deleterISB_EEEEEEPT_T0_
FNDA:3,_ZN5boost10shared_ptrIN3ros27SubscriptionCallbackHelperTIRKNS0_IKN8std_msgs8Float32_ISaIvEEEEEvEEEC2ISB_NS_6detail14sp_inplace_tagINSE_13sp_ms_deleterISB_EEEEEEPT_T0_
FNDA:3,_ZN5boost10shared_ptrIN8std_msgs8Float32_ISaIvEEEEC2ERKS5_
FNDA:12,_ZN5boost10shared_ptrISt3mapINSt7__cxx1112basic_stringIcSt11char_traitsIcESaIcEEES7_St4lessIS7_ESaISt4pairIKS7_S7_EEEEC2ERKSF_
FNDA:3,_ZN5boost10shared_ptrIN8std_msgs5Int8_ISaIvEEEEC2ERKS5_
FNDA:3,_ZN5boost10shared_ptrIKN8std_msgs8Float32_ISaIvEEEEC2ERKS6_
FNDA:3,_ZN5boost10shared_ptrIKN8std_msgs5Int8_ISaIvEEEEC2ERKS6_
FNDA:3,_ZN5boost10shared_ptrIKvEC2IN8std_msgs8Float32_ISaIvEEEEERKNS0_IT_EENS_6detail24sp_enable_if_convertibleIS8_S1_E4typeE
FNDA:3,_ZN5boost10shared_ptrIKvEC2IN8std_msgs5Int8_ISaIvEEEEERKNS0_IT_EENS_6detail24sp_enable_if_convertibleIS8_S1_E4typeE
FNDA:6,_ZN5boost10shared_ptrIvEC2IKvEERKNS0_IT_EEPv
FNDA:6,_ZN5boost10shared_ptrIN8std_msgs8Float32_ISaIvEEEEC2IKS4_EERKNS0_IT_EEPS4_
FNDA:3,_ZN5boost10shared_ptrIKN8std_msgs8Float32_ISaIvEEEEC2IKvEERKNS0_IT_EEPS5_
FNDA:6,_ZN5boost10shared_ptrIN8std_msgs5Int8_ISaIvEEEEC2IKS4_EERKNS0_IT_EEPS4_
FNDA:3,_ZN5boost10shared_ptrIKN8std_msgs5Int8_ISaIvEEEEC2IKvEERKNS0_IT_EEPS5_
FNDA:3,_ZN5boost10shared_ptrIN8std_msgs5Int8_ISaIvEEEEC2IS4_EERKNS0_IT_EEPS4_
FNDA:3,_ZN5boost10shared_ptrIN8std_msgs8Float32_ISaIvEEEEC2IS4_EERKNS0_IT_EEPS4_
FNDA:3,_ZN5boost10shared_ptrIN3ros27SubscriptionCallbackHelperTIRKNS0_IKN8std_msgs5Int8_ISaIvEEEEEvEEEC2ISB_EERKNS0_IT_EEPSB_
FNDA:3,_ZN5boost10shared_ptrIN3ros27SubscriptionCallbackHelperTIRKNS0_IKN8std_msgs8Float32_ISaIvEEEEEvEEEC2ISB_EERKNS0_IT_EEPSB_
FNDA:3,_ZN5boost10shared_ptrIKN8std_msgs8Float32_ISaIvEEEEaSERKS6_
FNDA:3,_ZN5boost10shared_ptrIKN8std_msgs5Int8_ISaIvEEEEaSERKS6_
FNDA:3,_ZN5boost10shared_ptrIN8std_msgs8Float32_ISaIvEEEEaSERKS5_
FNDA:12,_ZN5boost10shared_ptrISt3mapINSt7__cxx1112basic_stringIcSt11char_traitsIcESaIcEEES7_St4lessIS7_ESaISt4pairIKS7_S7_EEEEaSERKSF_
FNDA:3,_ZN5boost10shared_ptrIN8std_msgs5Int8_ISaIvEEEEaSERKS5_
FNDA:3,_ZN5boost10shared_ptrIKN8std_msgs8Float32_ISaIvEEEEC2EOS6_
FNDA:3,_ZN5boost10shared_ptrIKN8std_msgs5Int8_ISaIvEEEEC2EOS6_
FNDA:6,_ZN5boost10shared_ptrIKvEC2IvEEONS0_IT_EENS_6detail24sp_enable_if_convertibleIS4_S1_E4typeE
FNDA:6,_ZN5boost10shared_ptrIKN8std_msgs8Float32_ISaIvEEEEC2IS4_EEONS0_IT_EENS_6detail24sp_enable_if_convertibleIS8_S5_E4typeE
FNDA:6,_ZN5boost10shared_ptrIKN8std_msgs5Int8_ISaIvEEEEC2IS4_EEONS0_IT_EENS_6detail24sp_enable_if_convertibleIS8_S5_E4typeE
FNDA:3,_ZN5boost10shared_ptrIN3ros26SubscriptionCallbackHelperEEC2INS1_27SubscriptionCallbackHelperTIRKNS0_IKN8std_msgs5Int8_ISaIvEEEEEvEEEEONS0_IT_EENS_6detail24sp_enable_if_convertibleISF_S2_E4typeE
FNDA:3,_ZN5boost10shared_ptrIN3ros26SubscriptionCallbackHelperEEC2INS1_27SubscriptionCallbackHelperTIRKNS0_IKN8std_msgs8Float32_ISaIvEEEEEvEEEEONS0_IT_EENS_6detail24sp_enable_if_convertibleISF_S2_E4typeE
FNDA:3,_ZN5boost10shared_ptrIN3ros26SubscriptionCallbackHelperEEaSINS1_27SubscriptionCallbackHelperTIRKNS0_IKN8std_msgs5Int8_ISaIvEEEEEvEEEERS3_ONS0_IT_EE
FNDA:3,_ZN5boost10shared_ptrIN3ros26SubscriptionCallbackHelperEEaSINS1_27SubscriptionCallbackHelperTIRKNS0_IKN8std_msgs8Float32_ISaIvEEEEEvEEEERS3_ONS0_IT_EE
FNDA:3,_ZNK5boost10shared_ptrIN8std_msgs8Float32_ISaIvEEEEdeEv
FNDA:3,_ZNK5boost10shared_ptrIN8std_msgs5Int8_ISaIvEEEEdeEv
FNDA:0,_ZNK5boost10shared_ptrIN3ros9Publisher4ImplEEptEv
FNDA:6,_ZNK5boost10shared_ptrIKN8std_msgs8Float32_ISaIvEEEE3getEv
FNDA:6,_ZNK5boost10shared_ptrIKN8std_msgs5Int8_ISaIvEEEE3getEv
FNDA:12,_ZNK5boost10shared_ptrIKvE3getEv
FNDA:3,_ZN5boost10shared_ptrIKN8std_msgs8Float32_ISaIvEEEE4swapERS6_
FNDA:3,_ZN5boost10shared_ptrIKN8std_msgs5Int8_ISaIvEEEE4swapERS6_
FNDA:3,_ZN5boost10shared_ptrIN8std_msgs8Float32_ISaIvEEEE4swapERS5_
FNDA:12,_ZN5boost10shared_ptrISt3mapINSt7__cxx1112basic_stringIcSt11char_traitsIcESaIcEEES7_St4lessIS7_ESaISt4pairIKS7_S7_EEEE4swapERSF_
FNDA:3,_ZN5boost10shared_ptrIN8std_msgs5Int8_ISaIvEEEE4swapERS5_
FNDA:6,_ZN5boost10shared_ptrIN3ros26SubscriptionCallbackHelperEE4swapERS3_
FNDA:3,_ZNK5boost10shared_ptrIN8std_msgs5Int8_ISaIvEEEE29_internal_get_untyped_deleterEv
FNDA:3,_ZNK5boost10shared_ptrIN8std_msgs8Float32_ISaIvEEEE29_internal_get_untyped_deleterEv
FNDA:3,_ZNK5boost10shared_ptrIN3ros27SubscriptionCallbackHelperTIRKNS0_IKN8std_msgs5Int8_ISaIvEEEEEvEEE29_internal_get_untyped_deleterEv
FNDA:3,_ZNK5boost10shared_ptrIN3ros27SubscriptionCallbackHelperTIRKNS0_IKN8std_msgs8Float32_ISaIvEEEEEvEEE29_internal_get_untyped_deleterEv
FNDA:3,_ZN5boost19static_pointer_castIKN8std_msgs8Float32_ISaIvEEEKvEENS_10shared_ptrIT_EERKNS7_IT0_EE
FNDA:3,_ZN5boost19static_pointer_castIKN8std_msgs5Int8_ISaIvEEEKvEENS_10shared_ptrIT_EERKNS7_IT0_EE
FNDA:6,_ZN5boost18const_pointer_castIvKvEENS_10shared_ptrIT_EERKNS2_IT0_EE
FNDA:6,_ZN5boost18const_pointer_castIN8std_msgs8Float32_ISaIvEEEKS4_EENS_10shared_ptrIT_EERKNS6_IT0_EE
FNDA:6,_ZN5boost18const_pointer_castIN8std_msgs5Int8_ISaIvEEEKS4_EENS_10shared_ptrIT_EERKNS6_IT0_EE
FNF:85
FNH:81
DA:228,24
DA:230,24
DA:251,30
DA:265,30
DA:293,12
DA:295,12
DA:296,12
DA:323,132
DA:334,36
DA:336,36
DA:358,12
DA:360,12
DA:361,12
DA:392,24
DA:394,24
DA:420,6
DA:427,6
DA:429,6
DA:430,6
DA:434,36
DA:436,36
DA:500,24
DA:502,24
DA:503,24
DA:563,6
DA:565,6
DA:566,6
DA:567,6
DA:572,24
DA:579,24
DA:581,24
DA:583,24
DA:584,24
DA:585,24
DA:594,6
DA:596,6
DA:597,6
DA:639,6
DA:641,6
DA:642,6
DA:646,0
DA:648,0
DA:649,0
DA:661,24
DA:663,24
DA:679,30
DA:681,30
DA:682,30
DA:683,30
DA:700,12
DA:702,12
DA:783,6
DA:789,6
DA:790,6
DA:793,18
DA:799,18
DA:800,18
LF:57
LH:54
end_of_record
SF:/usr/include/boost/throw_exception.hpp
FN:60,_ZN5boost36throw_exception_assert_compatibilityERKSt9exception
FN:62,_ZN5boost15throw_exceptionINS_17bad_function_callEEEvRKT_
FNDA:0,_ZN5boost36throw_exception_assert_compatibilityERKSt9exception
FNDA:0,_ZN5boost15throw_exceptionINS_17bad_function_callEEEvRKT_
FNF:2
FNH:0
DA:60,0
DA:62,0
DA:66,0
DA:69,0
LF:4
LH:0
end_of_record
SF:/usr/include/c++/5/bits/alloc_traits.h
FN:490,_ZNSt16allocator_traitsISaISt13_Rb_tree_nodeISt4pairIKNSt7__cxx1112basic_stringIcSt11char_traitsIcESaIcEEES7_EEEE8allocateERSB_m
FN:490,_ZNSt16allocator_traitsISaINSt7__cxx1112basic_stringIcSt11char_traitsIcESaIcEEEEE8allocateERS6_m
FN:516,_ZNSt16allocator_traitsISaINSt7__cxx1112basic_stringIcSt11char_traitsIcESaIcEEEEE10deallocateERS6_PS5_m
FN:516,_ZNSt16allocator_traitsISaISt13_Rb_tree_nodeISt4pairIKNSt7__cxx1112basic_stringIcSt11char_traitsIcESaIcEEES7_EEEE10deallocateERSB_PSA_m
FN:529,_ZNSt16allocator_traitsISaISt13_Rb_tree_nodeISt4pairIKNSt7__cxx1112basic_stringIcSt11char_traitsIcESaIcEEES7_EEEE9constructIS9_JRKS9_EEEvRSB_PT_DpOT0_
FN:541,_ZNSt16allocator_traitsISaISt13_Rb_tree_nodeISt4pairIKNSt7__cxx1112basic_stringIcSt11char_traitsIcESaIcEEES7_EEEE7destroyIS9_EEvRSB_PT_
FN:571,_ZSt18__do_alloc_on_copyISaINSt7__cxx1112basic_stringIcSt11char_traitsIcESaIcEEEEEvRT_RKS7_St17integral_constantIbLb0EE
FN:571,_ZSt18__do_alloc_on_copyISaISt13_Rb_tree_nodeISt4pairIKNSt7__cxx1112basic_stringIcSt11char_traitsIcESaIcEEES7_EEEEvRT_RKSC_St17integral_constantIbLb0EE
FN:575,_ZSt15__alloc_on_copyISaINSt7__cxx1112basic_stringIcSt11char_traitsIcESaIcEEEEEvRT_RKS7_
FN:575,_ZSt15__alloc_on_copyISaISt13_Rb_tree_nodeISt4pairIKNSt7__cxx1112basic_stringIcSt11char_traitsIcESaIcEEES7_EEEEvRT_RKSC_
FNDA:0,_ZNSt16allocator_traitsISaISt13_Rb_tree_nodeISt4pairIKNSt7__cxx1112basic_stringIcSt11char_traitsIcESaIcEEES7_EEEE8allocateERSB_m
FNDA:125,_ZNSt16allocator_traitsISaINSt7__cxx1112basic_stringIcSt11char_traitsIcESaIcEEEEE8allocateERS6_m
FNDA:0,_ZNSt16allocator_traitsISaISt13_Rb_tree_nodeISt4pairIKNSt7__cxx1112basic_stringIcSt11char_traitsIcESaIcEEES7_EEEE10deallocateERSB_PSA_m
FNDA:112,_ZNSt16allocator_traitsISaINSt7__cxx1112basic_stringIcSt11char_traitsIcESaIcEEEEE10deallocateERS6_PS5_m
FNDA:0,_ZNSt16allocator_traitsISaISt13_Rb_tree_nodeISt4pairIKNSt7__cxx1112basic_stringIcSt11char_traitsIcESaIcEEES7_EEEE9constructIS9_JRKS9_EEEvRSB_PT_DpOT0_
FNDA:0,_ZNSt16allocator_traitsISaISt13_Rb_tree_nodeISt4pairIKNSt7__cxx1112basic_stringIcSt11char_traitsIcESaIcEEES7_EEEE7destroyIS9_EEvRSB_PT_
FNDA:0,_ZSt18__do_alloc_on_copyISaISt13_Rb_tree_nodeISt4pairIKNSt7__cxx1112basic_stringIcSt11char_traitsIcESaIcEEES7_EEEEvRT_RKSC_St17integral_constantIbLb0EE
FNDA:0,_ZSt18__do_alloc_on_copyISaINSt7__cxx1112basic_stringIcSt11char_traitsIcESaIcEEEEEvRT_RKS7_St17integral_constantIbLb0EE
FNDA:0,_ZSt15__alloc_on_copyISaISt13_Rb_tree_nodeISt4pairIKNSt7__cxx1112basic_stringIcSt11char_traitsIcESaIcEEES7_EEEEvRT_RKSC_
FNDA:0,_ZSt15__alloc_on_copyISaINSt7__cxx1112basic_stringIcSt11char_traitsIcESaIcEEEEEvRT_RKS7_
FNF:10
FNH:2
DA:490,125
DA:491,125
DA:516,112
DA:517,112
DA:529,0
DA:530,0
DA:541,0
DA:542,0
DA:571,0
DA:572,0
DA:575,0
DA:579,0
DA:580,0
LF:13
LH:4
end_of_record
SF:/usr/include/c++/5/bits/allocator.h
FN:113,_ZNSaISt13_Rb_tree_nodeISt4pairIKNSt7__cxx1112basic_stringIcSt11char_traitsIcESaIcEEES6_EEEC2Ev
FN:113,_ZNSaINSt7__cxx1112basic_stringIcSt11char_traitsIcESaIcEEEEC2Ev
FN:121,_ZNSaINSt7__cxx1112basic_stringIcSt11char_traitsIcESaIcEEEED2Ev
FN:121,_ZNSaISt13_Rb_tree_nodeISt4pairIKNSt7__cxx1112basic_stringIcSt11char_traitsIcESaIcEEES6_EEED2Ev
FN:146,_ZStneINSt7__cxx1112basic_stringIcSt11char_traitsIcESaIcEEEEbRKSaIT_ES9_
FN:146,_ZStneISt13_Rb_tree_nodeISt4pairIKNSt7__cxx1112basic_stringIcSt11char_traitsIcESaIcEEES7_EEEbRKSaIT_ESE_
FNDA:0,_ZNSaISt13_Rb_tree_nodeISt4pairIKNSt7__cxx1112basic_stringIcSt11char_traitsIcESaIcEEES6_EEEC2Ev
FNDA:118,_ZNSaINSt7__cxx1112basic_stringIcSt11char_traitsIcESaIcEEEEC2Ev
FNDA:228,_ZNSaINSt7__cxx1112basic_stringIcSt11char_traitsIcESaIcEEEED2Ev
FNDA:0,_ZNSaISt13_Rb_tree_nodeISt4pairIKNSt7__cxx1112basic_stringIcSt11char_traitsIcESaIcEEES6_EEED2Ev
FNDA:0,_ZStneISt13_Rb_tree_nodeISt4pairIKNSt7__cxx1112basic_stringIcSt11char_traitsIcESaIcEEES7_EEEbRKSaIT_ESE_
FNDA:0,_ZStneINSt7__cxx1112basic_stringIcSt11char_traitsIcESaIcEEEEbRKSaIT_ES9_
FNF:6
FNH:2
DA:113,118
DA:121,228
DA:146,0
DA:148,0
LF:4
LH:2
end_of_record
SF:/usr/include/c++/5/bits/basic_string.h
FN:4937,_ZSteqIcSt11char_traitsIcESaIcEEbRKNSt7__cxx1112basic_stringIT_T0_T1_EEPKS5_
FNDA:0,_ZSteqIcSt11char_traitsIcESaIcEEbRKNSt7__cxx1112basic_stringIT_T0_T1_EEPKS5_
FNF:1
FNH:0
DA:4937,0
DA:4939,0
LF:2
LH:0
end_of_record
SF:/usr/include/c++/5/bits/ios_base.h
FN:129,_ZStorSt13_Ios_OpenmodeS_
FNDA:0,_ZStorSt13_Ios_OpenmodeS_
FNF:1
FNH:0
DA:129,0
DA:130,0
LF:2
LH:0
end_of_record
SF:/usr/include/c++/5/bits/move.h
FN:47,_ZSt11__addressofINSt7__cxx1112basic_stringIcSt11char_traitsIcESaIcEEEEPT_RS6_
FN:76,_ZSt7forwardIRNSt7__cxx1112basic_stringIcSt11char_traitsIcESaIcEEEEOT_RNSt16remove_referenceIS7_E4typeE
FN:76,_ZSt7forwardIRKNSt7__cxx1112basic_stringIcSt11char_traitsIcESaIcEEEEOT_RNSt16remove_referenceIS8_E4typeE
FN:76,_ZSt7forwardIRKSt4pairIKNSt7__cxx1112basic_stringIcSt11char_traitsIcESaIcEEES6_EEOT_RNSt16remove_referenceISB_E4typeE
FN:101,_ZSt4moveIRPN8std_msgs8Float32_ISaIvEEEEONSt16remove_referenceIT_E4typeEOS7_
FN:101,_ZSt4moveIRPSt3mapINSt7__cxx1112basic_stringIcSt11char_traitsIcESaIcEEES6_St4lessIS6_ESaISt4pairIKS6_S6_EEEEONSt16remove_referenceIT_E4typeEOSH_
FN:101,_ZSt4moveIRPKN8std_msgs5Int8_ISaIvEEEEONSt16remove_referenceIT_E4typeEOS8_
FN:101,_ZSt4moveIRPN3ros26SubscriptionCallbackHelperEEONSt16remove_referenceIT_E4typeEOS5_
FN:101,_ZSt4moveIRPKN8std_msgs8Float32_ISaIvEEEEONSt16remove_referenceIT_E4typeEOS8_
FN:101,_ZSt4moveIRPN8std_msgs5Int8_ISaIvEEEEONSt16remove_referenceIT_E4typeEOS7_
FN:101,_ZSt4moveIRPhEONSt16remove_referenceIT_E4typeEOS3_
FN:176,_ZSt4swapIPN3ros26SubscriptionCallbackHelperEEvRT_S4_
FN:176,_ZSt4swapIPKN8std_msgs8Float32_ISaIvEEEEvRT_S7_
FN:176,_ZSt4swapIPKN8std_msgs5Int8_ISaIvEEEEvRT_S7_
FN:176,_ZSt4swapIPhEvRT_S2_
FN:176,_ZSt4swapIPSt3mapINSt7__cxx1112basic_stringIcSt11char_traitsIcESaIcEEES6_St4lessIS6_ESaISt4pairIKS6_S6_EEEEvRT_SG_
FN:176,_ZSt4swapIPN8std_msgs5Int8_ISaIvEEEEvRT_S6_
FN:176,_ZSt4swapIPN8std_msgs8Float32_ISaIvEEEEvRT_S6_
FNDA:1308,_ZSt11__addressofINSt7__cxx1112basic_stringIcSt11char_traitsIcESaIcEEEEPT_RS6_
FNDA:1,_ZSt7forwardIRNSt7__cxx1112basic_stringIcSt11char_traitsIcESaIcEEEEOT_RNSt16remove_referenceIS7_E4typeE
FNDA:12,_ZSt7forwardIRKNSt7__cxx1112basic_stringIcSt11char_traitsIcESaIcEEEEOT_RNSt16remove_referenceIS8_E4typeE
FNDA:0,_ZSt7forwardIRKSt4pairIKNSt7__cxx1112basic_stringIcSt11char_traitsIcESaIcEEES6_EEOT_RNSt16remove_referenceISB_E4typeE
FNDA:9,_ZSt4moveIRPKN8std_msgs8Float32_ISaIvEEEEONSt16remove_referenceIT_E4typeEOS8_
FNDA:9,_ZSt4moveIRPKN8std_msgs5Int8_ISaIvEEEEONSt16remove_referenceIT_E4typeEOS8_
FNDA:9,_ZSt4moveIRPN8std_msgs8Float32_ISaIvEEEEONSt16remove_referenceIT_E4typeEOS7_
FNDA:36,_ZSt4moveIRPSt3mapINSt7__cxx1112basic_stringIcSt11char_traitsIcESaIcEEES6_St4lessIS6_ESaISt4pairIKS6_S6_EEEEONSt16remove_referenceIT_E4typeEOSH_
FNDA:9,_ZSt4moveIRPN8std_msgs5Int8_ISaIvEEEEONSt16remove_referenceIT_E4typeEOS7_
FNDA:0,_ZSt4moveIRPhEONSt16remove_referenceIT_E4typeEOS3_
FNDA:18,_ZSt4moveIRPN3ros26SubscriptionCallbackHelperEEONSt16remove_referenceIT_E4typeEOS5_
FNDA:3,_ZSt4swapIPKN8std_msgs8Float32_ISaIvEEEEvRT_S7_
FNDA:3,_ZSt4swapIPKN8std_msgs5Int8_ISaIvEEEEvRT_S7_
FNDA:3,_ZSt4swapIPN8std_msgs8Float32_ISaIvEEEEvRT_S6_
FNDA:12,_ZSt4swapIPSt3mapINSt7__cxx1112basic_stringIcSt11char_traitsIcESaIcEEES6_St4lessIS6_ESaISt4pairIKS6_S6_EEEEvRT_SG_
FNDA:3,_ZSt4swapIPN8std_msgs5Int8_ISaIvEEEEvRT_S6_
FNDA:0,_ZSt4swapIPhEvRT_S2_
FNDA:6,_ZSt4swapIPN3ros26SubscriptionCallbackHelperEEvRT_S4_
FNF:18
FNH:15
DA:47,1308
DA:50,1308
DA:76,13
DA:77,13
DA:101,90
DA:102,90
DA:176,30
DA:185,30
DA:186,30
DA:187,30
DA:188,30
LF:11
LH:11
end_of_record
SF:/usr/include/c++/5/bits/stl_algobase.h
FN:282,_ZSt12__niter_baseIPNSt7__cxx1112basic_stringIcSt11char_traitsIcESaIcEEEENSt11_Niter_baseIT_E13iterator_typeES8_
FN:282,_ZSt12__niter_baseIN9__gnu_cxx17__normal_iteratorIPNSt7__cxx1112basic_stringIcSt11char_traitsIcESaIcEEESt6vectorIS7_SaIS7_EEEEENSt11_Niter_baseIT_E13iterator_typeESE_
FN:282,_ZSt12__niter_baseIN9__gnu_cxx17__normal_iteratorIPKNSt7__cxx1112basic_stringIcSt11char_traitsIcESaIcEEESt6vectorIS7_SaIS7_EEEEENSt11_Niter_baseIT_E13iterator_typeESF_
FN:293,_ZSt12__miter_baseIN9__gnu_cxx17__normal_iteratorIPKNSt7__cxx1112basic_stringIcSt11char_traitsIcESaIcEEESt6vectorIS7_SaIS7_EEEEENSt11_Miter_baseIT_E13iterator_typeESF_
FN:293,_ZSt12__miter_baseIPNSt7__cxx1112basic_stringIcSt11char_traitsIcESaIcEEEENSt11_Miter_baseIT_E13iterator_typeES8_
FN:335,_ZNSt11__copy_moveILb0ELb0ESt26random_access_iterator_tagE8__copy_mIPNSt7__cxx1112basic_stringIcSt11char_traitsIcESaIcEEES9_EET0_T_SB_SA_
FN:335,_ZNSt11__copy_moveILb0ELb0ESt26random_access_iterator_tagE8__copy_mIPKNSt7__cxx1112basic_stringIcSt11char_traitsIcESaIcEEEPS8_EET0_T_SD_SC_
FN:391,_ZSt13__copy_move_aILb0EPNSt7__cxx1112basic_stringIcSt11char_traitsIcESaIcEEES6_ET1_T0_S8_S7_
FN:391,_ZSt13__copy_move_aILb0EPKNSt7__cxx1112basic_stringIcSt11char_traitsIcESaIcEEEPS5_ET1_T0_SA_S9_
FN:436,_ZSt14__copy_move_a2ILb0EN9__gnu_cxx17__normal_iteratorIPKNSt7__cxx1112basic_stringIcSt11char_traitsIcESaIcEEESt6vectorIS7_SaIS7_EEEENS1_IPS7_SC_EEET1_T0_SH_SG_
FN:436,_ZSt14__copy_move_a2ILb0EPNSt7__cxx1112basic_stringIcSt11char_traitsIcESaIcEEES6_ET1_T0_S8_S7_
FN:462,_ZSt4copyIN9__gnu_cxx17__normal_iteratorIPKNSt7__cxx1112basic_stringIcSt11char_traitsIcESaIcEEESt6vectorIS7_SaIS7_EEEENS1_IPS7_SC_EEET0_T_SH_SG_
FN:462,_ZSt4copyIPNSt7__cxx1112basic_stringIcSt11char_traitsIcESaIcEEES6_ET0_T_S8_S7_
FNDA:0,_ZSt12__niter_baseIPNSt7__cxx1112basic_stringIcSt11char_traitsIcESaIcEEEENSt11_Niter_baseIT_E13iterator_typeES8_
FNDA:6,_ZSt12__niter_baseIN9__gnu_cxx17__normal_iteratorIPNSt7__cxx1112basic_stringIcSt11char_traitsIcESaIcEEESt6vectorIS7_SaIS7_EEEEENSt11_Niter_baseIT_E13iterator_typeESE_
FNDA:12,_ZSt12__niter_baseIN9__gnu_cxx17__normal_iteratorIPKNSt7__cxx1112basic_stringIcSt11char_traitsIcESaIcEEESt6vectorIS7_SaIS7_EEEEENSt11_Niter_baseIT_E13iterator_typeESF_
FNDA:0,_ZSt12__miter_baseIPNSt7__cxx1112basic_stringIcSt11char_traitsIcESaIcEEEENSt11_Miter_baseIT_E13iterator_typeES8_
FNDA:12,_ZSt12__miter_baseIN9__gnu_cxx17__normal_iteratorIPKNSt7__cxx1112basic_stringIcSt11char_traitsIcESaIcEEESt6vectorIS7_SaIS7_EEEEENSt11_Miter_baseIT_E13iterator_typeESF_
FNDA:0,_ZNSt11__copy_moveILb0ELb0ESt26random_access_iterator_tagE8__copy_mIPNSt7__cxx1112basic_stringIcSt11char_traitsIcESaIcEEES9_EET0_T_SB_SA_
FNDA:6,_ZNSt11__copy_moveILb0ELb0ESt26random_access_iterator_tagE8__copy_mIPKNSt7__cxx1112basic_stringIcSt11char_traitsIcESaIcEEEPS8_EET0_T_SD_SC_
FNDA:0,_ZSt13__copy_move_aILb0EPNSt7__cxx1112basic_stringIcSt11char_traitsIcESaIcEEES6_ET1_T0_S8_S7_
FNDA:6,_ZSt13__copy_move_aILb0EPKNSt7__cxx1112basic_stringIcSt11char_traitsIcESaIcEEEPS5_ET1_T0_SA_S9_
FNDA:0,_ZSt14__copy_move_a2ILb0EPNSt7__cxx1112basic_stringIcSt11char_traitsIcESaIcEEES6_ET1_T0_S8_S7_
FNDA:6,_ZSt14__copy_move_a2ILb0EN9__gnu_cxx17__normal_iteratorIPKNSt7__cxx1112basic_stringIcSt11char_traitsIcESaIcEEESt6vectorIS7_SaIS7_EEEENS1_IPS7_SC_EEET1_T0_SH_SG_
FNDA:0,_ZSt4copyIPNSt7__cxx1112basic_stringIcSt11char_traitsIcESaIcEEES6_ET0_T_S8_S7_
FNDA:6,_ZSt4copyIN9__gnu_cxx17__normal_iteratorIPKNSt7__cxx1112basic_stringIcSt11char_traitsIcESaIcEEESt6vectorIS7_SaIS7_EEEENS1_IPS7_SC_EEET0_T_SH_SG_
FNF:13
FNH:7
DA:282,18
DA:283,18
DA:293,12
DA:294,12
DA:335,6
DA:338,6
DA:340,0
DA:341,0
DA:342,0
DA:344,6
DA:391,6
DA:399,6
DA:402,6
DA:436,6
DA:438,6
DA:440,6
DA:462,6
DA:471,6
DA:472,6
LF:19
LH:16
end_of_record
SF:/usr/include/c++/5/bits/stl_construct.h
FN:74,_ZSt10_ConstructINSt7__cxx1112basic_stringIcSt11char_traitsIcESaIcEEEJRKS5_EEvPT_DpOT0_
FN:74,_ZSt10_ConstructINSt7__cxx1112basic_stringIcSt11char_traitsIcESaIcEEEJRS5_EEvPT_DpOT0_
FN:92,_ZSt8_DestroyINSt7__cxx1112basic_stringIcSt11char_traitsIcESaIcEEEEvPT_
FN:100,_ZNSt12_Destroy_auxILb0EE9__destroyIN9__gnu_cxx17__normal_iteratorIPNSt7__cxx1112basic_stringIcSt11char_traitsIcESaIcEEESt6vectorIS9_SaIS9_EEEEEEvT_SF_
FN:100,_ZNSt12_Destroy_auxILb0EE9__destroyIPNSt7__cxx1112basic_stringIcSt11char_traitsIcESaIcEEEEEvT_S9_
FN:122,_ZSt8_DestroyIPNSt7__cxx1112basic_stringIcSt11char_traitsIcESaIcEEEEvT_S7_
FN:122,_ZSt8_DestroyIN9__gnu_cxx17__normal_iteratorIPNSt7__cxx1112basic_stringIcSt11char_traitsIcESaIcEEESt6vectorIS7_SaIS7_EEEEEvT_SD_
FN:148,_ZSt8_DestroyIPNSt7__cxx1112basic_stringIcSt11char_traitsIcESaIcEEES5_EvT_S7_RSaIT0_E
FN:148,_ZSt8_DestroyIN9__gnu_cxx17__normal_iteratorIPNSt7__cxx1112basic_stringIcSt11char_traitsIcESaIcEEESt6vectorIS7_SaIS7_EEEES7_EvT_SD_RSaIT0_E
FNDA:12,_ZSt10_ConstructINSt7__cxx1112basic_stringIcSt11char_traitsIcESaIcEEEJRKS5_EEvPT_DpOT0_
FNDA:1,_ZSt10_ConstructINSt7__cxx1112basic_stringIcSt11char_traitsIcESaIcEEEJRS5_EEvPT_DpOT0_
FNDA:651,_ZSt8_DestroyINSt7__cxx1112basic_stringIcSt11char_traitsIcESaIcEEEEvPT_
FNDA:6,_ZNSt12_Destroy_auxILb0EE9__destroyIN9__gnu_cxx17__normal_iteratorIPNSt7__cxx1112basic_stringIcSt11char_traitsIcESaIcEEESt6vectorIS9_SaIS9_EEEEEEvT_SF_
FNDA:144,_ZNSt12_Destroy_auxILb0EE9__destroyIPNSt7__cxx1112basic_stringIcSt11char_traitsIcESaIcEEEEEvT_S9_
FNDA:6,_ZSt8_DestroyIN9__gnu_cxx17__normal_iteratorIPNSt7__cxx1112basic_stringIcSt11char_traitsIcESaIcEEESt6vectorIS7_SaIS7_EEEEEvT_SD_
FNDA:144,_ZSt8_DestroyIPNSt7__cxx1112basic_stringIcSt11char_traitsIcESaIcEEEEvT_S7_
FNDA:6,_ZSt8_DestroyIN9__gnu_cxx17__normal_iteratorIPNSt7__cxx1112basic_stringIcSt11char_traitsIcESaIcEEESt6vectorIS7_SaIS7_EEEES7_EvT_SD_RSaIT0_E
FNDA:144,_ZSt8_DestroyIPNSt7__cxx1112basic_stringIcSt11char_traitsIcESaIcEEES5_EvT_S7_RSaIT0_E
FNF:9
FNH:9
DA:74,13
DA:75,13
DA:92,651
DA:93,651
DA:100,801
DA:102,1452
DA:103,651
DA:104,150
DA:122,150
DA:126,150
DA:128,150
DA:148,150
DA:151,150
DA:152,150
LF:14
LH:14
end_of_record
SF:/usr/include/c++/5/bits/stl_function.h
FN:105,_ZNSt14unary_functionIRKN3ros25SingleSubscriberPublisherEvEC2Ev
FN:105,_ZNSt14unary_functionIN5boost10shared_ptrIKN8std_msgs5Int8_ISaIvEEEEEvEC2Ev
FN:105,_ZNSt14unary_functionIN5boost10shared_ptrIKN8std_msgs8Float32_ISaIvEEEEEvEC2Ev
FN:105,_ZNSt14unary_functionIRKN5boost10shared_ptrIKN8std_msgs5Int8_ISaIvEEEEEvEC2Ev
FN:105,_ZNSt14unary_functionIRKN5boost10shared_ptrIKN8std_msgs8Float32_ISaIvEEEEEvEC2Ev
FNDA:6,_ZNSt14unary_functionIN5boost10shared_ptrIKN8std_msgs5Int8_ISaIvEEEEEvEC2Ev
FNDA:6,_ZNSt14unary_functionIN5boost10shared_ptrIKN8std_msgs8Float32_ISaIvEEEEEvEC2Ev
FNDA:27,_ZNSt14unary_functionIRKN5boost10shared_ptrIKN8std_msgs5Int8_ISaIvEEEEEvEC2Ev
FNDA:27,_ZNSt14unary_functionIRKN5boost10shared_ptrIKN8std_msgs8Float32_ISaIvEEEEEvEC2Ev
FNDA:0,_ZNSt14unary_functionIRKN3ros25SingleSubscriberPublisherEvEC2Ev
FNF:5
FNH:4
DA:105,66
LF:1
LH:1
end_of_record
SF:/usr/include/c++/5/bits/stl_iterator.h
FN:740,_ZN9__gnu_cxx17__normal_iteratorIPNSt7__cxx1112basic_stringIcSt11char_traitsIcESaIcEEESt6vectorIS6_SaIS6_EEEC2ERKS7_
FN:740,_ZN9__gnu_cxx17__normal_iteratorIPKNSt7__cxx1112basic_stringIcSt11char_traitsIcESaIcEEESt6vectorIS6_SaIS6_EEEC2ERKS8_
FN:753,_ZNK9__gnu_cxx17__normal_iteratorIPNSt7__cxx1112basic_stringIcSt11char_traitsIcESaIcEEESt6vectorIS6_SaIS6_EEEdeEv
FN:753,_ZNK9__gnu_cxx17__normal_iteratorIPKNSt7__cxx1112basic_stringIcSt11char_traitsIcESaIcEEESt6vectorIS6_SaIS6_EEEdeEv
FN:761,_ZN9__gnu_cxx17__normal_iteratorIPNSt7__cxx1112basic_stringIcSt11char_traitsIcESaIcEEESt6vectorIS6_SaIS6_EEEppEv
FN:761,_ZN9__gnu_cxx17__normal_iteratorIPKNSt7__cxx1112basic_stringIcSt11char_traitsIcESaIcEEESt6vectorIS6_SaIS6_EEEppEv
FN:805,_ZNK9__gnu_cxx17__normal_iteratorIPKNSt7__cxx1112basic_stringIcSt11char_traitsIcESaIcEEESt6vectorIS6_SaIS6_EEE4baseEv
FN:805,_ZNK9__gnu_cxx17__normal_iteratorIPNSt7__cxx1112basic_stringIcSt11char_traitsIcESaIcEEESt6vectorIS6_SaIS6_EEE4baseEv
FN:841,_ZN9__gnu_cxxneIPNSt7__cxx1112basic_stringIcSt11char_traitsIcESaIcEEESt6vectorIS6_SaIS6_EEEEbRKNS_17__normal_iteratorIT_T0_EESG_
FN:841,_ZN9__gnu_cxxneIPKNSt7__cxx1112basic_stringIcSt11char_traitsIcESaIcEEESt6vectorIS6_SaIS6_EEEEbRKNS_17__normal_iteratorIT_T0_EESH_
FNDA:28,_ZN9__gnu_cxx17__normal_iteratorIPNSt7__cxx1112basic_stringIcSt11char_traitsIcESaIcEEESt6vectorIS6_SaIS6_EEEC2ERKS7_
FNDA:351,_ZN9__gnu_cxx17__normal_iteratorIPKNSt7__cxx1112basic_stringIcSt11char_traitsIcESaIcEEESt6vectorIS6_SaIS6_EEEC2ERKS8_
FNDA:330,_ZNK9__gnu_cxx17__normal_iteratorIPKNSt7__cxx1112basic_stringIcSt11char_traitsIcESaIcEEESt6vectorIS6_SaIS6_EEEdeEv
FNDA:0,_ZNK9__gnu_cxx17__normal_iteratorIPNSt7__cxx1112basic_stringIcSt11char_traitsIcESaIcEEESt6vectorIS6_SaIS6_EEEdeEv
FNDA:225,_ZN9__gnu_cxx17__normal_iteratorIPKNSt7__cxx1112basic_stringIcSt11char_traitsIcESaIcEEESt6vectorIS6_SaIS6_EEEppEv
FNDA:0,_ZN9__gnu_cxx17__normal_iteratorIPNSt7__cxx1112basic_stringIcSt11char_traitsIcESaIcEEESt6vectorIS6_SaIS6_EEEppEv
FNDA:50,_ZNK9__gnu_cxx17__normal_iteratorIPNSt7__cxx1112basic_stringIcSt11char_traitsIcESaIcEEESt6vectorIS6_SaIS6_EEE4baseEv
FNDA:508,_ZNK9__gnu_cxx17__normal_iteratorIPKNSt7__cxx1112basic_stringIcSt11char_traitsIcESaIcEEESt6vectorIS6_SaIS6_EEE4baseEv
FNDA:129,_ZN9__gnu_cxxneIPKNSt7__cxx1112basic_stringIcSt11char_traitsIcESaIcEEESt6vectorIS6_SaIS6_EEEEbRKNS_17__normal_iteratorIT_T0_EESH_
FNDA:6,_ZN9__gnu_cxxneIPNSt7__cxx1112basic_stringIcSt11char_traitsIcESaIcEEESt6vectorIS6_SaIS6_EEEEbRKNS_17__normal_iteratorIT_T0_EESG_
FNF:10
FNH:8
DA:740,379
DA:741,379
DA:753,330
DA:754,330
DA:761,225
DA:763,225
DA:764,225
DA:805,558
DA:806,558
DA:841,135
DA:844,135
LF:11
LH:11
end_of_record
SF:/usr/include/c++/5/bits/stl_iterator_base_types.h
FN:215,_ZNSt10_Iter_baseIPNSt7__cxx1112basic_stringIcSt11char_traitsIcESaIcEEELb0EE7_S_baseES6_
FN:215,_ZNSt10_Iter_baseIN9__gnu_cxx17__normal_iteratorIPKNSt7__cxx1112basic_stringIcSt11char_traitsIcESaIcEEESt6vectorIS7_SaIS7_EEEELb0EE7_S_baseESD_
FN:223,_ZNSt10_Iter_baseIN9__gnu_cxx17__normal_iteratorIPNSt7__cxx1112basic_stringIcSt11char_traitsIcESaIcEEESt6vectorIS7_SaIS7_EEEELb1EE7_S_baseESC_
FN:223,_ZNSt10_Iter_baseIN9__gnu_cxx17__normal_iteratorIPKNSt7__cxx1112basic_stringIcSt11char_traitsIcESaIcEEESt6vectorIS7_SaIS7_EEEELb1EE7_S_baseESD_
FNDA:0,_ZNSt10_Iter_baseIPNSt7__cxx1112basic_stringIcSt11char_traitsIcESaIcEEELb0EE7_S_baseES6_
FNDA:12,_ZNSt10_Iter_baseIN9__gnu_cxx17__normal_iteratorIPKNSt7__cxx1112basic_stringIcSt11char_traitsIcESaIcEEESt6vectorIS7_SaIS7_EEEELb0EE7_S_baseESD_
FNDA:6,_ZNSt10_Iter_baseIN9__gnu_cxx17__normal_iteratorIPNSt7__cxx1112basic_stringIcSt11char_traitsIcESaIcEEESt6vectorIS7_SaIS7_EEEELb1EE7_S_baseESC_
FNDA:12,_ZNSt10_Iter_baseIN9__gnu_cxx17__normal_iteratorIPKNSt7__cxx1112basic_stringIcSt11char_traitsIcESaIcEEESt6vectorIS7_SaIS7_EEEELb1EE7_S_baseESD_
FNF:4
FNH:3
DA:215,12
DA:216,12
DA:223,18
DA:224,18
LF:4
LH:4
end_of_record
SF:/usr/include/c++/5/bits/stl_map.h
FN:96,_ZNSt3mapINSt7__cxx1112basic_stringIcSt11char_traitsIcESaIcEEES5_St4lessIS5_ESaISt4pairIKS5_S5_EEED2Ev
FN:162,_ZNSt3mapINSt7__cxx1112basic_stringIcSt11char_traitsIcESaIcEEES5_St4lessIS5_ESaISt4pairIKS5_S5_EEEC2Ev
FN:296,_ZNSt3mapINSt7__cxx1112basic_stringIcSt11char_traitsIcESaIcEEES5_St4lessIS5_ESaISt4pairIKS5_S5_EEEaSERKSC_
FNDA:0,_ZNSt3mapINSt7__cxx1112basic_stringIcSt11char_traitsIcESaIcEEES5_St4lessIS5_ESaISt4pairIKS5_S5_EEED2Ev
FNDA:0,_ZNSt3mapINSt7__cxx1112basic_stringIcSt11char_traitsIcESaIcEEES5_St4lessIS5_ESaISt4pairIKS5_S5_EEEC2Ev
FNDA:6,_ZNSt3mapINSt7__cxx1112basic_stringIcSt11char_traitsIcESaIcEEES5_St4lessIS5_ESaISt4pairIKS5_S5_EEEaSERKSC_
FNF:3
FNH:1
DA:96,0
DA:162,0
DA:166,0
DA:296,6
DA:298,6
DA:299,6
LF:6
LH:3
end_of_record
SF:/usr/include/c++/5/bits/stl_pair.h
FN:96,_ZNSt4pairIKNSt7__cxx1112basic_stringIcSt11char_traitsIcESaIcEEES5_ED2Ev
FN:127,_ZNSt4pairIKNSt7__cxx1112basic_stringIcSt11char_traitsIcESaIcEEES5_EC2ERKS7_
FNDA:0,_ZNSt4pairIKNSt7__cxx1112basic_stringIcSt11char_traitsIcESaIcEEES5_ED2Ev
FNDA:0,_ZNSt4pairIKNSt7__cxx1112basic_stringIcSt11char_traitsIcESaIcEEES5_EC2ERKS7_
FNF:2
FNH:0
DA:96,0
DA:127,0
LF:2
LH:0
end_of_record
SF:/usr/include/c++/5/bits/stl_tree.h
FN:94,_ZNSt18_Rb_tree_node_baseC2Ev
FN:105,_ZNSt18_Rb_tree_node_base10_S_minimumEPS_
FN:119,_ZNSt18_Rb_tree_node_base10_S_maximumEPS_
FN:134,_ZNSt13_Rb_tree_nodeISt4pairIKNSt7__cxx1112basic_stringIcSt11char_traitsIcESaIcEEES6_EEC2Ev
FN:152,_ZNSt13_Rb_tree_nodeISt4pairIKNSt7__cxx1112basic_stringIcSt11char_traitsIcESaIcEEES6_EE9_M_valptrEv
FN:156,_ZNKSt13_Rb_tree_nodeISt4pairIKNSt7__cxx1112basic_stringIcSt11char_traitsIcESaIcEEES6_EE9_M_valptrEv
FN:365,_ZNSt8_Rb_treeINSt7__cxx1112basic_stringIcSt11char_traitsIcESaIcEEESt4pairIKS5_S5_ESt10_Select1stIS8_ESt4lessIS5_ESaIS8_EE20_Reuse_or_alloc_nodeC2ERSE_
FN:383,_ZNSt8_Rb_treeINSt7__cxx1112basic_stringIcSt11char_traitsIcESaIcEEESt4pairIKS5_S5_ESt10_Select1stIS8_ESt4lessIS5_ESaIS8_EE20_Reuse_or_alloc_nodeD2Ev
FN:391,_ZNSt8_Rb_treeINSt7__cxx1112basic_stringIcSt11char_traitsIcESaIcEEESt4pairIKS5_S5_ESt10_Select1stIS8_ESt4lessIS5_ESaIS8_EE20_Reuse_or_alloc_nodeclIRKS8_EEPSt13_Rb_tree_nodeIS8_EOT_
FN:407,_ZNSt8_Rb_treeINSt7__cxx1112basic_stringIcSt11char_traitsIcESaIcEEESt4pairIKS5_S5_ESt10_Select1stIS8_ESt4lessIS5_ESaIS8_EE20_Reuse_or_alloc_node10_M_extractEv
FN:477,_ZNSt8_Rb_treeINSt7__cxx1112basic_stringIcSt11char_traitsIcESaIcEEESt4pairIKS5_S5_ESt10_Select1stIS8_ESt4lessIS5_ESaIS8_EE21_M_get_Node_allocatorEv
FN:481,_ZNKSt8_Rb_treeINSt7__cxx1112basic_stringIcSt11char_traitsIcESaIcEEESt4pairIKS5_S5_ESt10_Select1stIS8_ESt4lessIS5_ESaIS8_EE21_M_get_Node_allocatorEv
FN:490,_ZNSt8_Rb_treeINSt7__cxx1112basic_stringIcSt11char_traitsIcESaIcEEESt4pairIKS5_S5_ESt10_Select1stIS8_ESt4lessIS5_ESaIS8_EE11_M_get_nodeEv
FN:494,_ZNSt8_Rb_treeINSt7__cxx1112basic_stringIcSt11char_traitsIcESaIcEEESt4pairIKS5_S5_ESt10_Select1stIS8_ESt4lessIS5_ESaIS8_EE11_M_put_nodeEPSt13_Rb_tree_nodeIS8_E
FN:524,_ZNSt8_Rb_treeINSt7__cxx1112basic_stringIcSt11char_traitsIcESaIcEEESt4pairIKS5_S5_ESt10_Select1stIS8_ESt4lessIS5_ESaIS8_EE17_M_construct_nodeIJRKS8_EEEvPSt13_Rb_tree_nodeIS8_EDpOT_
FN:543,_ZNSt8_Rb_treeINSt7__cxx1112basic_stringIcSt11char_traitsIcESaIcEEESt4pairIKS5_S5_ESt10_Select1stIS8_ESt4lessIS5_ESaIS8_EE14_M_create_nodeIJRKS8_EEEPSt13_Rb_tree_nodeIS8_EDpOT_
FN:551,_ZNSt8_Rb_treeINSt7__cxx1112basic_stringIcSt11char_traitsIcESaIcEEESt4pairIKS5_S5_ESt10_Select1stIS8_ESt4lessIS5_ESaIS8_EE15_M_destroy_nodeEPSt13_Rb_tree_nodeIS8_E
FN:559,_ZNSt8_Rb_treeINSt7__cxx1112basic_stringIcSt11char_traitsIcESaIcEEESt4pairIKS5_S5_ESt10_Select1stIS8_ESt4lessIS5_ESaIS8_EE12_M_drop_nodeEPSt13_Rb_tree_nodeIS8_E
FN:567,_ZNSt8_Rb_treeINSt7__cxx1112basic_stringIcSt11char_traitsIcESaIcEEESt4pairIKS5_S5_ESt10_Select1stIS8_ESt4lessIS5_ESaIS8_EE13_M_clone_nodeINSE_20_Reuse_or_alloc_nodeEEEPSt13_Rb_tree_nodeIS8_EPKSI_RT_
FN:580,_ZNSt8_Rb_treeINSt7__cxx1112basic_stringIcSt11char_traitsIcESaIcEEESt4pairIKS5_S5_ESt10_Select1stIS8_ESt4lessIS5_ESaIS8_EE13_Rb_tree_implISC_Lb1EED2Ev
FN:586,_ZNSt8_Rb_treeINSt7__cxx1112basic_stringIcSt11char_traitsIcESaIcEEESt4pairIKS5_S5_ESt10_Select1stIS8_ESt4lessIS5_ESaIS8_EE13_Rb_tree_implISC_Lb1EEC2Ev
FN:604,_ZNSt8_Rb_treeINSt7__cxx1112basic_stringIcSt11char_traitsIcESaIcEEESt4pairIKS5_S5_ESt10_Select1stIS8_ESt4lessIS5_ESaIS8_EE13_Rb_tree_implISC_Lb1EE8_M_resetEv
FN:614,_ZNSt8_Rb_treeINSt7__cxx1112basic_stringIcSt11char_traitsIcESaIcEEESt4pairIKS5_S5_ESt10_Select1stIS8_ESt4lessIS5_ESaIS8_EE13_Rb_tree_implISC_Lb1EE13_M_initializeEv
FN:627,_ZNSt8_Rb_treeINSt7__cxx1112basic_stringIcSt11char_traitsIcESaIcEEESt4pairIKS5_S5_ESt10_Select1stIS8_ESt4lessIS5_ESaIS8_EE7_M_rootEv
FN:631,_ZNKSt8_Rb_treeINSt7__cxx1112basic_stringIcSt11char_traitsIcESaIcEEESt4pairIKS5_S5_ESt10_Select1stIS8_ESt4lessIS5_ESaIS8_EE7_M_rootEv
FN:635,_ZNSt8_Rb_treeINSt7__cxx1112basic_stringIcSt11char_traitsIcESaIcEEESt4pairIKS5_S5_ESt10_Select1stIS8_ESt4lessIS5_ESaIS8_EE11_M_leftmostEv
FN:643,_ZNSt8_Rb_treeINSt7__cxx1112basic_stringIcSt11char_traitsIcESaIcEEESt4pairIKS5_S5_ESt10_Select1stIS8_ESt4lessIS5_ESaIS8_EE12_M_rightmostEv
FN:651,_ZNSt8_Rb_treeINSt7__cxx1112basic_stringIcSt11char_traitsIcESaIcEEESt4pairIKS5_S5_ESt10_Select1stIS8_ESt4lessIS5_ESaIS8_EE8_M_beginEv
FN:655,_ZNKSt8_Rb_treeINSt7__cxx1112basic_stringIcSt11char_traitsIcESaIcEEESt4pairIKS5_S5_ESt10_Select1stIS8_ESt4lessIS5_ESaIS8_EE8_M_beginEv
FN:662,_ZNSt8_Rb_treeINSt7__cxx1112basic_stringIcSt11char_traitsIcESaIcEEESt4pairIKS5_S5_ESt10_Select1stIS8_ESt4lessIS5_ESaIS8_EE6_M_endEv
FN:678,_ZNSt8_Rb_treeINSt7__cxx1112basic_stringIcSt11char_traitsIcESaIcEEESt4pairIKS5_S5_ESt10_Select1stIS8_ESt4lessIS5_ESaIS8_EE7_S_leftEPSt18_Rb_tree_node_base
FN:682,_ZNSt8_Rb_treeINSt7__cxx1112basic_stringIcSt11char_traitsIcESaIcEEESt4pairIKS5_S5_ESt10_Select1stIS8_ESt4lessIS5_ESaIS8_EE7_S_leftEPKSt18_Rb_tree_node_base
FN:686,_ZNSt8_Rb_treeINSt7__cxx1112basic_stringIcSt11char_traitsIcESaIcEEESt4pairIKS5_S5_ESt10_Select1stIS8_ESt4lessIS5_ESaIS8_EE8_S_rightEPSt18_Rb_tree_node_base
FN:690,_ZNSt8_Rb_treeINSt7__cxx1112basic_stringIcSt11char_traitsIcESaIcEEESt4pairIKS5_S5_ESt10_Select1stIS8_ESt4lessIS5_ESaIS8_EE8_S_rightEPKSt18_Rb_tree_node_base
FN:702,_ZNSt8_Rb_treeINSt7__cxx1112basic_stringIcSt11char_traitsIcESaIcEEESt4pairIKS5_S5_ESt10_Select1stIS8_ESt4lessIS5_ESaIS8_EE10_S_minimumEPSt18_Rb_tree_node_base
FN:710,_ZNSt8_Rb_treeINSt7__cxx1112basic_stringIcSt11char_traitsIcESaIcEEESt4pairIKS5_S5_ESt10_Select1stIS8_ESt4lessIS5_ESaIS8_EE10_S_maximumEPSt18_Rb_tree_node_base
FN:807,_ZNSt8_Rb_treeINSt7__cxx1112basic_stringIcSt11char_traitsIcESaIcEEESt4pairIKS5_S5_ESt10_Select1stIS8_ESt4lessIS5_ESaIS8_EEC2Ev
FN:857,_ZNSt8_Rb_treeINSt7__cxx1112basic_stringIcSt11char_traitsIcESaIcEEESt4pairIKS5_S5_ESt10_Select1stIS8_ESt4lessIS5_ESaIS8_EED2Ev
FN:1073,_ZNSt8_Rb_treeINSt7__cxx1112basic_stringIcSt11char_traitsIcESaIcEEESt4pairIKS5_S5_ESt10_Select1stIS8_ESt4lessIS5_ESaIS8_EE5clearEv
FN:1451,_ZNSt8_Rb_treeINSt7__cxx1112basic_stringIcSt11char_traitsIcESaIcEEESt4pairIKS5_S5_ESt10_Select1stIS8_ESt4lessIS5_ESaIS8_EEaSERKSE_
FN:1570,_ZNSt8_Rb_treeINSt7__cxx1112basic_stringIcSt11char_traitsIcESaIcEEESt4pairIKS5_S5_ESt10_Select1stIS8_ESt4lessIS5_ESaIS8_EE7_M_copyINSE_20_Reuse_or_alloc_nodeEEEPSt13_Rb_tree_nodeIS8_EPKSI_SJ_RT_
FN:1606,_ZNSt8_Rb_treeINSt7__cxx1112basic_stringIcSt11char_traitsIcESaIcEEESt4pairIKS5_S5_ESt10_Select1stIS8_ESt4lessIS5_ESaIS8_EE8_M_eraseEPSt13_Rb_tree_nodeIS8_E
FNDA:0,_ZNSt18_Rb_tree_node_baseC2Ev
FNDA:0,_ZNSt18_Rb_tree_node_base10_S_minimumEPS_
FNDA:0,_ZNSt18_Rb_tree_node_base10_S_maximumEPS_
FNDA:0,_ZNSt13_Rb_tree_nodeISt4pairIKNSt7__cxx1112basic_stringIcSt11char_traitsIcESaIcEEES6_EEC2Ev
FNDA:0,_ZNSt13_Rb_tree_nodeISt4pairIKNSt7__cxx1112basic_stringIcSt11char_traitsIcESaIcEEES6_EE9_M_valptrEv
FNDA:0,_ZNKSt13_Rb_tree_nodeISt4pairIKNSt7__cxx1112basic_stringIcSt11char_traitsIcESaIcEEES6_EE9_M_valptrEv
FNDA:52,_ZNSt8_Rb_treeINSt7__cxx1112basic_stringIcSt11char_traitsIcESaIcEEESt4pairIKS5_S5_ESt10_Select1stIS8_ESt4lessIS5_ESaIS8_EE20_Reuse_or_alloc_nodeC2ERSE_
FNDA:52,_ZNSt8_Rb_treeINSt7__cxx1112basic_stringIcSt11char_traitsIcESaIcEEESt4pairIKS5_S5_ESt10_Select1stIS8_ESt4lessIS5_ESaIS8_EE20_Reuse_or_alloc_nodeD2Ev
FNDA:0,_ZNSt8_Rb_treeINSt7__cxx1112basic_stringIcSt11char_traitsIcESaIcEEESt4pairIKS5_S5_ESt10_Select1stIS8_ESt4lessIS5_ESaIS8_EE20_Reuse_or_alloc_nodeclIRKS8_EEPSt13_Rb_tree_nodeIS8_EOT_
FNDA:0,_ZNSt8_Rb_treeINSt7__cxx1112basic_stringIcSt11char_traitsIcESaIcEEESt4pairIKS5_S5_ESt10_Select1stIS8_ESt4lessIS5_ESaIS8_EE20_Reuse_or_alloc_node10_M_extractEv
FNDA:0,_ZNSt8_Rb_treeINSt7__cxx1112basic_stringIcSt11char_traitsIcESaIcEEESt4pairIKS5_S5_ESt10_Select1stIS8_ESt4lessIS5_ESaIS8_EE21_M_get_Node_allocatorEv
FNDA:0,_ZNKSt8_Rb_treeINSt7__cxx1112basic_stringIcSt11char_traitsIcESaIcEEESt4pairIKS5_S5_ESt10_Select1stIS8_ESt4lessIS5_ESaIS8_EE21_M_get_Node_allocatorEv
FNDA:0,_ZNSt8_Rb_treeINSt7__cxx1112basic_stringIcSt11char_traitsIcESaIcEEESt4pairIKS5_S5_ESt10_Select1stIS8_ESt4lessIS5_ESaIS8_EE11_M_get_nodeEv
FNDA:0,_ZNSt8_Rb_treeINSt7__cxx1112basic_stringIcSt11char_traitsIcESaIcEEESt4pairIKS5_S5_ESt10_Select1stIS8_ESt4lessIS5_ESaIS8_EE11_M_put_nodeEPSt13_Rb_tree_nodeIS8_E
FNDA:0,_ZNSt8_Rb_treeINSt7__cxx1112basic_stringIcSt11char_traitsIcESaIcEEESt4pairIKS5_S5_ESt10_Select1stIS8_ESt4lessIS5_ESaIS8_EE17_M_construct_nodeIJRKS8_EEEvPSt13_Rb_tree_nodeIS8_EDpOT_
FNDA:0,_ZNSt8_Rb_treeINSt7__cxx1112basic_stringIcSt11char_traitsIcESaIcEEESt4pairIKS5_S5_ESt10_Select1stIS8_ESt4lessIS5_ESaIS8_EE14_M_create_nodeIJRKS8_EEEPSt13_Rb_tree_nodeIS8_EDpOT_
FNDA:0,_ZNSt8_Rb_treeINSt7__cxx1112basic_stringIcSt11char_traitsIcESaIcEEESt4pairIKS5_S5_ESt10_Select1stIS8_ESt4lessIS5_ESaIS8_EE15_M_destroy_nodeEPSt13_Rb_tree_nodeIS8_E
FNDA:0,_ZNSt8_Rb_treeINSt7__cxx1112basic_stringIcSt11char_traitsIcESaIcEEESt4pairIKS5_S5_ESt10_Select1stIS8_ESt4lessIS5_ESaIS8_EE12_M_drop_nodeEPSt13_Rb_tree_nodeIS8_E
FNDA:0,_ZNSt8_Rb_treeINSt7__cxx1112basic_stringIcSt11char_traitsIcESaIcEEESt4pairIKS5_S5_ESt10_Select1stIS8_ESt4lessIS5_ESaIS8_EE13_M_clone_nodeINSE_20_Reuse_or_alloc_nodeEEEPSt13_Rb_tree_nodeIS8_EPKSI_RT_
FNDA:0,_ZNSt8_Rb_treeINSt7__cxx1112basic_stringIcSt11char_traitsIcESaIcEEESt4pairIKS5_S5_ESt10_Select1stIS8_ESt4lessIS5_ESaIS8_EE13_Rb_tree_implISC_Lb1EED2Ev
FNDA:0,_ZNSt8_Rb_treeINSt7__cxx1112basic_stringIcSt11char_traitsIcESaIcEEESt4pairIKS5_S5_ESt10_Select1stIS8_ESt4lessIS5_ESaIS8_EE13_Rb_tree_implISC_Lb1EEC2Ev
FNDA:52,_ZNSt8_Rb_treeINSt7__cxx1112basic_stringIcSt11char_traitsIcESaIcEEESt4pairIKS5_S5_ESt10_Select1stIS8_ESt4lessIS5_ESaIS8_EE13_Rb_tree_implISC_Lb1EE8_M_resetEv
FNDA:0,_ZNSt8_Rb_treeINSt7__cxx1112basic_stringIcSt11char_traitsIcESaIcEEESt4pairIKS5_S5_ESt10_Select1stIS8_ESt4lessIS5_ESaIS8_EE13_Rb_tree_implISC_Lb1EE13_M_initializeEv
FNDA:52,_ZNSt8_Rb_treeINSt7__cxx1112basic_stringIcSt11char_traitsIcESaIcEEESt4pairIKS5_S5_ESt10_Select1stIS8_ESt4lessIS5_ESaIS8_EE7_M_rootEv
FNDA:52,_ZNKSt8_Rb_treeINSt7__cxx1112basic_stringIcSt11char_traitsIcESaIcEEESt4pairIKS5_S5_ESt10_Select1stIS8_ESt4lessIS5_ESaIS8_EE7_M_rootEv
FNDA:0,_ZNSt8_Rb_treeINSt7__cxx1112basic_stringIcSt11char_traitsIcESaIcEEESt4pairIKS5_S5_ESt10_Select1stIS8_ESt4lessIS5_ESaIS8_EE11_M_leftmostEv
FNDA:52,_ZNSt8_Rb_treeINSt7__cxx1112basic_stringIcSt11char_traitsIcESaIcEEESt4pairIKS5_S5_ESt10_Select1stIS8_ESt4lessIS5_ESaIS8_EE12_M_rightmostEv
FNDA:0,_ZNSt8_Rb_treeINSt7__cxx1112basic_stringIcSt11char_traitsIcESaIcEEESt4pairIKS5_S5_ESt10_Select1stIS8_ESt4lessIS5_ESaIS8_EE8_M_beginEv
FNDA:0,_ZNKSt8_Rb_treeINSt7__cxx1112basic_stringIcSt11char_traitsIcESaIcEEESt4pairIKS5_S5_ESt10_Select1stIS8_ESt4lessIS5_ESaIS8_EE8_M_beginEv
FNDA:0,_ZNSt8_Rb_treeINSt7__cxx1112basic_stringIcSt11char_traitsIcESaIcEEESt4pairIKS5_S5_ESt10_Select1stIS8_ESt4lessIS5_ESaIS8_EE6_M_endEv
FNDA:0,_ZNSt8_Rb_treeINSt7__cxx1112basic_stringIcSt11char_traitsIcESaIcEEESt4pairIKS5_S5_ESt10_Select1stIS8_ESt4lessIS5_ESaIS8_EE7_S_leftEPSt18_Rb_tree_node_base
FNDA:0,_ZNSt8_Rb_treeINSt7__cxx1112basic_stringIcSt11char_traitsIcESaIcEEESt4pairIKS5_S5_ESt10_Select1stIS8_ESt4lessIS5_ESaIS8_EE7_S_leftEPKSt18_Rb_tree_node_base
FNDA:0,_ZNSt8_Rb_treeINSt7__cxx1112basic_stringIcSt11char_traitsIcESaIcEEESt4pairIKS5_S5_ESt10_Select1stIS8_ESt4lessIS5_ESaIS8_EE8_S_rightEPSt18_Rb_tree_node_base
FNDA:0,_ZNSt8_Rb_treeINSt7__cxx1112basic_stringIcSt11char_traitsIcESaIcEEESt4pairIKS5_S5_ESt10_Select1stIS8_ESt4lessIS5_ESaIS8_EE8_S_rightEPKSt18_Rb_tree_node_base
FNDA:0,_ZNSt8_Rb_treeINSt7__cxx1112basic_stringIcSt11char_traitsIcESaIcEEESt4pairIKS5_S5_ESt10_Select1stIS8_ESt4lessIS5_ESaIS8_EE10_S_minimumEPSt18_Rb_tree_node_base
FNDA:0,_ZNSt8_Rb_treeINSt7__cxx1112basic_stringIcSt11char_traitsIcESaIcEEESt4pairIKS5_S5_ESt10_Select1stIS8_ESt4lessIS5_ESaIS8_EE10_S_maximumEPSt18_Rb_tree_node_base
FNDA:0,_ZNSt8_Rb_treeINSt7__cxx1112basic_stringIcSt11char_traitsIcESaIcEEESt4pairIKS5_S5_ESt10_Select1stIS8_ESt4lessIS5_ESaIS8_EEC2Ev
FNDA:0,_ZNSt8_Rb_treeINSt7__cxx1112basic_stringIcSt11char_traitsIcESaIcEEESt4pairIKS5_S5_ESt10_Select1stIS8_ESt4lessIS5_ESaIS8_EED2Ev
FNDA:0,_ZNSt8_Rb_treeINSt7__cxx1112basic_stringIcSt11char_traitsIcESaIcEEESt4pairIKS5_S5_ESt10_Select1stIS8_ESt4lessIS5_ESaIS8_EE5clearEv
FNDA:52,_ZNSt8_Rb_treeINSt7__cxx1112basic_stringIcSt11char_traitsIcESaIcEEESt4pairIKS5_S5_ESt10_Select1stIS8_ESt4lessIS5_ESaIS8_EEaSERKSE_
FNDA:0,_ZNSt8_Rb_treeINSt7__cxx1112basic_stringIcSt11char_traitsIcESaIcEEESt4pairIKS5_S5_ESt10_Select1stIS8_ESt4lessIS5_ESaIS8_EE7_M_copyINSE_20_Reuse_or_alloc_nodeEEEPSt13_Rb_tree_nodeIS8_EPKSI_SJ_RT_
FNDA:0,_ZNSt8_Rb_treeINSt7__cxx1112basic_stringIcSt11char_traitsIcESaIcEEESt4pairIKS5_S5_ESt10_Select1stIS8_ESt4lessIS5_ESaIS8_EE8_M_eraseEPSt13_Rb_tree_nodeIS8_E
FNF:42
FNH:7
DA:94,0
DA:105,0
DA:107,0
DA:108,0
DA:119,0
DA:121,0
DA:122,0
DA:134,0
DA:152,0
DA:153,0
DA:156,0
DA:157,0
DA:365,52
DA:366,52
DA:368,52
DA:370,0
DA:372,0
DA:373,0
DA:376,52
DA:377,52
DA:383,52
DA:384,52
DA:391,0
DA:394,0
DA:395,0
DA:397,0
DA:398,0
DA:399,0
DA:402,0
DA:407,0
DA:409,0
DA:410,0
DA:412,0
DA:413,0
DA:414,0
DA:416,0
DA:418,0
DA:420,0
DA:422,0
DA:424,0
DA:425,0
DA:427,0
DA:428,0
DA:432,0
DA:435,0
DA:437,0
DA:477,0
DA:478,0
DA:481,0
DA:482,0
DA:490,0
DA:491,0
DA:494,0
DA:495,0
DA:524,0
DA:528,0
DA:529,0
DA:531,0
DA:533,0
DA:536,0
DA:537,0
DA:539,0
DA:543,0
DA:545,0
DA:546,0
DA:547,0
DA:551,0
DA:553,0
DA:555,0
DA:559,0
DA:561,0
DA:562,0
DA:563,0
DA:567,0
DA:569,0
DA:570,0
DA:571,0
DA:572,0
DA:573,0
DA:580,0
DA:586,0
DA:588,0
DA:589,0
DA:604,52
DA:606,52
DA:607,52
DA:608,52
DA:609,52
DA:610,52
DA:614,0
DA:616,0
DA:617,0
DA:618,0
DA:619,0
DA:620,0
DA:627,52
DA:628,52
DA:631,52
DA:632,52
DA:635,0
DA:636,0
DA:643,52
DA:644,52
DA:651,0
DA:652,0
DA:655,0
DA:658,0
DA:662,0
DA:663,0
DA:678,0
DA:679,0
DA:682,0
DA:683,0
DA:686,0
DA:687,0
DA:690,0
DA:691,0
DA:702,0
DA:703,0
DA:710,0
DA:711,0
DA:807,0
DA:857,0
DA:858,0
DA:1073,0
DA:1075,0
DA:1076,0
DA:1077,0
DA:1451,52
DA:1454,52
DA:1458,52
DA:1460,0
DA:1461,0
DA:1462,0
DA:1463,0
DA:1467,0
DA:1468,0
DA:1473,104
DA:1474,52
DA:1476,52
DA:1478,0
DA:1479,0
DA:1480,0
DA:1481,0
DA:1485,52
DA:1570,0
DA:1574,0
DA:1575,0
DA:1579,0
DA:1580,0
DA:1581,0
DA:1582,0
DA:1584,0
DA:1586,0
DA:1587,0
DA:1588,0
DA:1589,0
DA:1590,0
DA:1591,0
DA:1592,0
DA:1595,0
DA:1597,0
DA:1598,0
DA:1600,0
DA:1606,0
DA:1610,0
DA:1612,0
DA:1613,0
DA:1614,0
DA:1615,0
DA:1617,0
LF:171
LH:26
end_of_record
SF:/usr/include/c++/5/bits/stl_uninitialized.h
FN:68,_ZNSt20__uninitialized_copyILb0EE13__uninit_copyIN9__gnu_cxx17__normal_iteratorIPKNSt7__cxx1112basic_stringIcSt11char_traitsIcESaIcEEESt6vectorIS9_SaIS9_EEEEPS9_EET0_T_SI_SH_
FN:68,_ZNSt20__uninitialized_copyILb0EE13__uninit_copyIPNSt7__cxx1112basic_stringIcSt11char_traitsIcESaIcEEES8_EET0_T_SA_S9_
FN:107,_ZSt18uninitialized_copyIPNSt7__cxx1112basic_stringIcSt11char_traitsIcESaIcEEES6_ET0_T_S8_S7_
FN:107,_ZSt18uninitialized_copyIN9__gnu_cxx17__normal_iteratorIPKNSt7__cxx1112basic_stringIcSt11char_traitsIcESaIcEEESt6vectorIS7_SaIS7_EEEEPS7_ET0_T_SG_SF_
FN:279,_ZSt22__uninitialized_copy_aIN9__gnu_cxx17__normal_iteratorIPKNSt7__cxx1112basic_stringIcSt11char_traitsIcESaIcEEESt6vectorIS7_SaIS7_EEEEPS7_S7_ET0_T_SG_SF_RSaIT1_E
FN:279,_ZSt22__uninitialized_copy_aIPNSt7__cxx1112basic_stringIcSt11char_traitsIcESaIcEEES6_S5_ET0_T_S8_S7_RSaIT1_E
FNDA:12,_ZNSt20__uninitialized_copyILb0EE13__uninit_copyIN9__gnu_cxx17__normal_iteratorIPKNSt7__cxx1112basic_stringIcSt11char_traitsIcESaIcEEESt6vectorIS9_SaIS9_EEEEPS9_EET0_T_SI_SH_
FNDA:16,_ZNSt20__uninitialized_copyILb0EE13__uninit_copyIPNSt7__cxx1112basic_stringIcSt11char_traitsIcESaIcEEES8_EET0_T_SA_S9_
FNDA:12,_ZSt18uninitialized_copyIN9__gnu_cxx17__normal_iteratorIPKNSt7__cxx1112basic_stringIcSt11char_traitsIcESaIcEEESt6vectorIS7_SaIS7_EEEEPS7_ET0_T_SG_SF_
FNDA:16,_ZSt18uninitialized_copyIPNSt7__cxx1112basic_stringIcSt11char_traitsIcESaIcEEES6_ET0_T_S8_S7_
FNDA:12,_ZSt22__uninitialized_copy_aIN9__gnu_cxx17__normal_iteratorIPKNSt7__cxx1112basic_stringIcSt11char_traitsIcESaIcEEESt6vectorIS7_SaIS7_EEEEPS7_S7_ET0_T_SG_SF_RSaIT1_E
FNDA:16,_ZSt22__uninitialized_copy_aIPNSt7__cxx1112basic_stringIcSt11char_traitsIcESaIcEEES6_S5_ET0_T_S8_S7_RSaIT1_E
FNF:6
FNH:6
DA:68,28
DA:71,28
DA:74,54
DA:75,13
DA:76,28
DA:78,0
DA:80,0
DA:81,0
DA:107,28
DA:120,28
DA:126,28
DA:279,28
DA:281,28
LF:13
LH:10
end_of_record
SF:/usr/include/c++/5/bits/stl_vector.h
FN:79,_ZNSt12_Vector_baseINSt7__cxx1112basic_stringIcSt11char_traitsIcESaIcEEESaIS5_EE12_Vector_implD2Ev
FN:86,_ZNSt12_Vector_baseINSt7__cxx1112basic_stringIcSt11char_traitsIcESaIcEEESaIS5_EE12_Vector_implC2Ev
FN:113,_ZNSt12_Vector_baseINSt7__cxx1112basic_stringIcSt11char_traitsIcESaIcEEESaIS5_EE19_M_get_Tp_allocatorEv
FN:117,_ZNKSt12_Vector_baseINSt7__cxx1112basic_stringIcSt11char_traitsIcESaIcEEESaIS5_EE19_M_get_Tp_allocatorEv
FN:124,_ZNSt12_Vector_baseINSt7__cxx1112basic_stringIcSt11char_traitsIcESaIcEEESaIS5_EEC2Ev
FN:159,_ZNSt12_Vector_baseINSt7__cxx1112basic_stringIcSt11char_traitsIcESaIcEEESaIS5_EED2Ev
FN:167,_ZNSt12_Vector_baseINSt7__cxx1112basic_stringIcSt11char_traitsIcESaIcEEESaIS5_EE11_M_allocateEm
FN:174,_ZNSt12_Vector_baseINSt7__cxx1112basic_stringIcSt11char_traitsIcESaIcEEESaIS5_EE13_M_deallocateEPS5_m
FN:253,_ZNSt6vectorINSt7__cxx1112basic_stringIcSt11char_traitsIcESaIcEEESaIS5_EEC2Ev
FN:423,_ZNSt6vectorINSt7__cxx1112basic_stringIcSt11char_traitsIcESaIcEEESaIS5_EED2Ev
FN:547,_ZNSt6vectorINSt7__cxx1112basic_stringIcSt11char_traitsIcESaIcEEESaIS5_EE5beginEv
FN:556,_ZNKSt6vectorINSt7__cxx1112basic_stringIcSt11char_traitsIcESaIcEEESaIS5_EE5beginEv
FN:565,_ZNSt6vectorINSt7__cxx1112basic_stringIcSt11char_traitsIcESaIcEEESaIS5_EE3endEv
FN:574,_ZNKSt6vectorINSt7__cxx1112basic_stringIcSt11char_traitsIcESaIcEEESaIS5_EE3endEv
FN:654,_ZNKSt6vectorINSt7__cxx1112basic_stringIcSt11char_traitsIcESaIcEEESaIS5_EE4sizeEv
FN:734,_ZNKSt6vectorINSt7__cxx1112basic_stringIcSt11char_traitsIcESaIcEEESaIS5_EE8capacityEv
FN:1211,_ZNSt6vectorINSt7__cxx1112basic_stringIcSt11char_traitsIcESaIcEEESaIS5_EE5clearEv
FN:1221,_ZNSt6vectorINSt7__cxx1112basic_stringIcSt11char_traitsIcESaIcEEESaIS5_EE20_M_allocate_and_copyIN9__gnu_cxx17__normal_iteratorIPKS5_S7_EEEEPS5_mT_SF_
FN:1436,_ZNSt6vectorINSt7__cxx1112basic_stringIcSt11char_traitsIcESaIcEEESaIS5_EE15_M_erase_at_endEPS5_
FNDA:123,_ZNSt12_Vector_baseINSt7__cxx1112basic_stringIcSt11char_traitsIcESaIcEEESaIS5_EE12_Vector_implD2Ev
FNDA:13,_ZNSt12_Vector_baseINSt7__cxx1112basic_stringIcSt11char_traitsIcESaIcEEESaIS5_EE12_Vector_implC2Ev
FNDA:283,_ZNSt12_Vector_baseINSt7__cxx1112basic_stringIcSt11char_traitsIcESaIcEEESaIS5_EE19_M_get_Tp_allocatorEv
FNDA:16,_ZNKSt12_Vector_baseINSt7__cxx1112basic_stringIcSt11char_traitsIcESaIcEEESaIS5_EE19_M_get_Tp_allocatorEv
FNDA:13,_ZNSt12_Vector_baseINSt7__cxx1112basic_stringIcSt11char_traitsIcESaIcEEESaIS5_EEC2Ev
FNDA:123,_ZNSt12_Vector_baseINSt7__cxx1112basic_stringIcSt11char_traitsIcESaIcEEESaIS5_EED2Ev
FNDA:125,_ZNSt12_Vector_baseINSt7__cxx1112basic_stringIcSt11char_traitsIcESaIcEEESaIS5_EE11_M_allocateEm
FNDA:143,_ZNSt12_Vector_baseINSt7__cxx1112basic_stringIcSt11char_traitsIcESaIcEEESaIS5_EE13_M_deallocateEPS5_m
FNDA:13,_ZNSt6vectorINSt7__cxx1112basic_stringIcSt11char_traitsIcESaIcEEESaIS5_EEC2Ev
FNDA:123,_ZNSt6vectorINSt7__cxx1112basic_stringIcSt11char_traitsIcESaIcEEESaIS5_EED2Ev
FNDA:14,_ZNSt6vectorINSt7__cxx1112basic_stringIcSt11char_traitsIcESaIcEEESaIS5_EE5beginEv
FNDA:123,_ZNKSt6vectorINSt7__cxx1112basic_stringIcSt11char_traitsIcESaIcEEESaIS5_EE5beginEv
FNDA:8,_ZNSt6vectorINSt7__cxx1112basic_stringIcSt11char_traitsIcESaIcEEESaIS5_EE3endEv
FNDA:228,_ZNKSt6vectorINSt7__cxx1112basic_stringIcSt11char_traitsIcESaIcEEESaIS5_EE3endEv
FNDA:56,_ZNKSt6vectorINSt7__cxx1112basic_stringIcSt11char_traitsIcESaIcEEESaIS5_EE4sizeEv
FNDA:18,_ZNKSt6vectorINSt7__cxx1112basic_stringIcSt11char_traitsIcESaIcEEESaIS5_EE8capacityEv
FNDA:1,_ZNSt6vectorINSt7__cxx1112basic_stringIcSt11char_traitsIcESaIcEEESaIS5_EE5clearEv
FNDA:12,_ZNSt6vectorINSt7__cxx1112basic_stringIcSt11char_traitsIcESaIcEEESaIS5_EE20_M_allocate_and_copyIN9__gnu_cxx17__normal_iteratorIPKS5_S7_EEEEPS5_mT_SF_
FNDA:1,_ZNSt6vectorINSt7__cxx1112basic_stringIcSt11char_traitsIcESaIcEEESaIS5_EE15_M_erase_at_endEPS5_
FNF:19
FNH:19
DA:79,123
DA:86,13
DA:87,13
DA:88,13
DA:113,283
DA:114,283
DA:117,16
DA:118,16
DA:124,13
DA:125,13
DA:159,123
DA:160,246
DA:161,369
DA:167,125
DA:170,125
DA:174,143
DA:177,143
DA:178,112
DA:179,143
DA:253,13
DA:257,13
DA:423,123
DA:424,123
DA:425,246
DA:547,14
DA:548,14
DA:556,123
DA:557,123
DA:565,8
DA:566,8
DA:574,228
DA:575,228
DA:654,56
DA:655,56
DA:734,18
DA:736,18
DA:1211,1
DA:1212,1
DA:1221,12
DA:1224,12
DA:1227,12
DA:1228,12
DA:1229,12
DA:1231,0
DA:1233,0
DA:1234,0
DA:1436,1
DA:1438,1
DA:1439,1
DA:1440,1
LF:50
LH:47
end_of_record
SF:/usr/include/c++/5/bits/vector.tcc
FN:167,_ZNSt6vectorINSt7__cxx1112basic_stringIcSt11char_traitsIcESaIcEEESaIS5_EEaSERKS7_
FNDA:18,_ZNSt6vectorINSt7__cxx1112basic_stringIcSt11char_traitsIcESaIcEEESaIS5_EEaSERKS7_
FNF:1
FNH:1
DA:167,18
DA:170,18
DA:173,18
DA:175,0
DA:176,0
DA:179,0
DA:180,0
DA:182,0
DA:183,0
DA:184,0
DA:185,0
DA:187,0
DA:191,18
DA:192,18
DA:194,12
DA:195,12
DA:196,12
DA:197,12
DA:198,24
DA:200,24
DA:201,12
DA:202,12
DA:204,6
DA:206,6
DA:207,6
DA:211,0
DA:213,0
DA:216,0
DA:218,18
DA:220,18
LF:30
LH:18
end_of_record
SF:/usr/include/c++/5/ext/aligned_buffer.h
FN:56,_ZN9__gnu_cxx16__aligned_membufISt4pairIKNSt7__cxx1112basic_stringIcSt11char_traitsIcESaIcEEES7_EEC2Ev
FN:62,_ZN9__gnu_cxx16__aligned_membufISt4pairIKNSt7__cxx1112basic_stringIcSt11char_traitsIcESaIcEEES7_EE7_M_addrEv
FN:66,_ZNK9__gnu_cxx16__aligned_membufISt4pairIKNSt7__cxx1112basic_stringIcSt11char_traitsIcESaIcEEES7_EE7_M_addrEv
FN:70,_ZN9__gnu_cxx16__aligned_membufISt4pairIKNSt7__cxx1112basic_stringIcSt11char_traitsIcESaIcEEES7_EE6_M_ptrEv
FN:74,_ZNK9__gnu_cxx16__aligned_membufISt4pairIKNSt7__cxx1112basic_stringIcSt11char_traitsIcESaIcEEES7_EE6_M_ptrEv
FNDA:0,_ZN9__gnu_cxx16__aligned_membufISt4pairIKNSt7__cxx1112basic_stringIcSt11char_traitsIcESaIcEEES7_EEC2Ev
FNDA:0,_ZN9__gnu_cxx16__aligned_membufISt4pairIKNSt7__cxx1112basic_stringIcSt11char_traitsIcESaIcEEES7_EE7_M_addrEv
FNDA:0,_ZNK9__gnu_cxx16__aligned_membufISt4pairIKNSt7__cxx1112basic_stringIcSt11char_traitsIcESaIcEEES7_EE7_M_addrEv
FNDA:0,_ZN9__gnu_cxx16__aligned_membufISt4pairIKNSt7__cxx1112basic_stringIcSt11char_traitsIcESaIcEEES7_EE6_M_ptrEv
FNDA:0,_ZNK9__gnu_cxx16__aligned_membufISt4pairIKNSt7__cxx1112basic_stringIcSt11char_traitsIcESaIcEEES7_EE6_M_ptrEv
FNF:5
FNH:0
DA:56,0
DA:62,0
DA:63,0
DA:66,0
DA:67,0
DA:70,0
DA:71,0
DA:74,0
DA:75,0
LF:9
LH:0
end_of_record
SF:/usr/include/c++/5/ext/alloc_traits.h
FN:145,_ZN9__gnu_cxx14__alloc_traitsISaINSt7__cxx1112basic_stringIcSt11char_traitsIcESaIcEEEEE27_S_propagate_on_copy_assignEv
FN:145,_ZN9__gnu_cxx14__alloc_traitsISaISt13_Rb_tree_nodeISt4pairIKNSt7__cxx1112basic_stringIcSt11char_traitsIcESaIcEEES8_EEEE27_S_propagate_on_copy_assignEv
FN:154,_ZN9__gnu_cxx14__alloc_traitsISaINSt7__cxx1112basic_stringIcSt11char_traitsIcESaIcEEEEE15_S_always_equalEv
FN:154,_ZN9__gnu_cxx14__alloc_traitsISaISt13_Rb_tree_nodeISt4pairIKNSt7__cxx1112basic_stringIcSt11char_traitsIcESaIcEEES8_EEEE15_S_always_equalEv
FNDA:52,_ZN9__gnu_cxx14__alloc_traitsISaISt13_Rb_tree_nodeISt4pairIKNSt7__cxx1112basic_stringIcSt11char_traitsIcESaIcEEES8_EEEE27_S_propagate_on_copy_assignEv
FNDA:18,_ZN9__gnu_cxx14__alloc_traitsISaINSt7__cxx1112basic_stringIcSt11char_traitsIcESaIcEEEEE27_S_propagate_on_copy_assignEv
FNDA:0,_ZN9__gnu_cxx14__alloc_traitsISaISt13_Rb_tree_nodeISt4pairIKNSt7__cxx1112basic_stringIcSt11char_traitsIcESaIcEEES8_EEEE15_S_always_equalEv
FNDA:0,_ZN9__gnu_cxx14__alloc_traitsISaINSt7__cxx1112basic_stringIcSt11char_traitsIcESaIcEEEEE15_S_always_equalEv
FNF:4
FNH:2
DA:145,70
DA:146,70
DA:154,0
DA:155,0
LF:4
LH:2
end_of_record
SF:/usr/include/c++/5/ext/new_allocator.h
FN:79,_ZN9__gnu_cxx13new_allocatorISt13_Rb_tree_nodeISt4pairIKNSt7__cxx1112basic_stringIcSt11char_traitsIcESaIcEEES8_EEEC2Ev
FN:79,_ZN9__gnu_cxx13new_allocatorINSt7__cxx1112basic_stringIcSt11char_traitsIcESaIcEEEEC2Ev
FN:86,_ZN9__gnu_cxx13new_allocatorINSt7__cxx1112basic_stringIcSt11char_traitsIcESaIcEEEED2Ev
FN:86,_ZN9__gnu_cxx13new_allocatorISt13_Rb_tree_nodeISt4pairIKNSt7__cxx1112basic_stringIcSt11char_traitsIcESaIcEEES8_EEED2Ev
FN:99,_ZN9__gnu_cxx13new_allocatorINSt7__cxx1112basic_stringIcSt11char_traitsIcESaIcEEEE8allocateEmPKv
FN:99,_ZN9__gnu_cxx13new_allocatorISt13_Rb_tree_nodeISt4pairIKNSt7__cxx1112basic_stringIcSt11char_traitsIcESaIcEEES8_EEE8allocateEmPKv
FN:109,_ZN9__gnu_cxx13new_allocatorISt13_Rb_tree_nodeISt4pairIKNSt7__cxx1112basic_stringIcSt11char_traitsIcESaIcEEES8_EEE10deallocateEPSB_m
FN:109,_ZN9__gnu_cxx13new_allocatorINSt7__cxx1112basic_stringIcSt11char_traitsIcESaIcEEEE10deallocateEPS6_m
FN:113,_ZNK9__gnu_cxx13new_allocatorINSt7__cxx1112basic_stringIcSt11char_traitsIcESaIcEEEE8max_sizeEv
FN:113,_ZNK9__gnu_cxx13new_allocatorISt13_Rb_tree_nodeISt4pairIKNSt7__cxx1112basic_stringIcSt11char_traitsIcESaIcEEES8_EEE8max_sizeEv
FN:119,_ZN9__gnu_cxx13new_allocatorISt13_Rb_tree_nodeISt4pairIKNSt7__cxx1112basic_stringIcSt11char_traitsIcESaIcEEES8_EEE9constructISA_JRKSA_EEEvPT_DpOT0_
FN:124,_ZN9__gnu_cxx13new_allocatorISt13_Rb_tree_nodeISt4pairIKNSt7__cxx1112basic_stringIcSt11char_traitsIcESaIcEEES8_EEE7destroyISA_EEvPT_
FNDA:0,_ZN9__gnu_cxx13new_allocatorISt13_Rb_tree_nodeISt4pairIKNSt7__cxx1112basic_stringIcSt11char_traitsIcESaIcEEES8_EEEC2Ev
FNDA:118,_ZN9__gnu_cxx13new_allocatorINSt7__cxx1112basic_stringIcSt11char_traitsIcESaIcEEEEC2Ev
FNDA:228,_ZN9__gnu_cxx13new_allocatorINSt7__cxx1112basic_stringIcSt11char_traitsIcESaIcEEEED2Ev
FNDA:0,_ZN9__gnu_cxx13new_allocatorISt13_Rb_tree_nodeISt4pairIKNSt7__cxx1112basic_stringIcSt11char_traitsIcESaIcEEES8_EEED2Ev
FNDA:0,_ZN9__gnu_cxx13new_allocatorISt13_Rb_tree_nodeISt4pairIKNSt7__cxx1112basic_stringIcSt11char_traitsIcESaIcEEES8_EEE8allocateEmPKv
FNDA:125,_ZN9__gnu_cxx13new_allocatorINSt7__cxx1112basic_stringIcSt11char_traitsIcESaIcEEEE8allocateEmPKv
FNDA:0,_ZN9__gnu_cxx13new_allocatorISt13_Rb_tree_nodeISt4pairIKNSt7__cxx1112basic_stringIcSt11char_traitsIcESaIcEEES8_EEE10deallocateEPSB_m
FNDA:112,_ZN9__gnu_cxx13new_allocatorINSt7__cxx1112basic_stringIcSt11char_traitsIcESaIcEEEE10deallocateEPS6_m
FNDA:0,_ZNK9__gnu_cxx13new_allocatorISt13_Rb_tree_nodeISt4pairIKNSt7__cxx1112basic_stringIcSt11char_traitsIcESaIcEEES8_EEE8max_sizeEv
FNDA:141,_ZNK9__gnu_cxx13new_allocatorINSt7__cxx1112basic_stringIcSt11char_traitsIcESaIcEEEE8max_sizeEv
FNDA:0,_ZN9__gnu_cxx13new_allocatorISt13_Rb_tree_nodeISt4pairIKNSt7__cxx1112basic_stringIcSt11char_traitsIcESaIcEEES8_EEE9constructISA_JRKSA_EEEvPT_DpOT0_
FNDA:0,_ZN9__gnu_cxx13new_allocatorISt13_Rb_tree_nodeISt4pairIKNSt7__cxx1112basic_stringIcSt11char_traitsIcESaIcEEES8_EEE7destroyISA_EEvPT_
FNF:12
FNH:5
DA:79,118
DA:86,228
DA:99,125
DA:101,125
DA:102,0
DA:104,125
DA:109,112
DA:110,112
DA:113,141
DA:114,141
DA:119,0
DA:120,0
DA:124,0
LF:13
LH:9
end_of_record
SF:/usr/include/c++/5/iostream
DA:74,1
LF:1
LH:1
end_of_record
SF:/usr/include/c++/5/new
FN:129,_ZnwmPv
FN:135,_ZdlPvS_
FNDA:0,_ZnwmPv
FNDA:0,_ZdlPvS_
FNF:2
FNH:0
DA:129,0
DA:130,0
DA:135,0
LF:3
LH:0
end_of_record
SF:/usr/include/c++/5/typeinfo
FN:99,_ZNKSt9type_info4nameEv
FN:120,_ZNKSt9type_infoeqERKS_
FNDA:0,_ZNKSt9type_info4nameEv
FNDA:0,_ZNKSt9type_infoeqERKS_
FNF:2
FNH:0
DA:99,0
DA:100,0
DA:120,0
DA:122,0
DA:123,0
DA:124,0
LF:6
LH:0
end_of_record
SF:/usr/include/gtest/gtest-message.h
FN:85,_ZN7testing7MessageD2Ev
FNDA:0,_ZN7testing7MessageD2Ev
FNF:1
FNH:0
DA:85,0
LF:1
LH:0
end_of_record
SF:/usr/include/gtest/gtest-printers.h
FN:218,_ZN16testing_internal26DefaultPrintNonContainerToIiEEvRKT_PSo
FN:218,_ZN16testing_internal26DefaultPrintNonContainerToIdEEvRKT_PSo
FN:335,_ZN7testing8internal14DefaultPrintToIdEEvcNS0_13bool_constantILb0EEERKT_PSo
FN:335,_ZN7testing8internal14DefaultPrintToIiEEvcNS0_13bool_constantILb0EEERKT_PSo
FN:353,_ZN7testing8internal7PrintToIiEEvRKT_PSo
FN:353,_ZN7testing8internal7PrintToIdEEvRKT_PSo
FN:591,_ZN7testing8internal16UniversalPrinterIdE5PrintERKdPSo
FN:591,_ZN7testing8internal16UniversalPrinterIiE5PrintERKiPSo
FN:683,_ZN7testing8internal21UniversalTersePrinterIiE5PrintERKiPSo
FN:683,_ZN7testing8internal21UniversalTersePrinterIdE5PrintERKdPSo
FN:752,_ZN7testing8internal14UniversalPrintIdEEvRKT_PSo
FN:752,_ZN7testing8internal14UniversalPrintIiEEvRKT_PSo
FN:847,_ZN7testing13PrintToStringIiEENSt7__cxx1112basic_stringIcSt11char_traitsIcESaIcEEERKT_
FN:847,_ZN7testing13PrintToStringIdEENSt7__cxx1112basic_stringIcSt11char_traitsIcESaIcEEERKT_
FNDA:0,_ZN16testing_internal26DefaultPrintNonContainerToIdEEvRKT_PSo
FNDA:0,_ZN16testing_internal26DefaultPrintNonContainerToIiEEvRKT_PSo
FNDA:0,_ZN7testing8internal14DefaultPrintToIdEEvcNS0_13bool_constantILb0EEERKT_PSo
FNDA:0,_ZN7testing8internal14DefaultPrintToIiEEvcNS0_13bool_constantILb0EEERKT_PSo
FNDA:0,_ZN7testing8internal7PrintToIdEEvRKT_PSo
FNDA:0,_ZN7testing8internal7PrintToIiEEvRKT_PSo
FNDA:0,_ZN7testing8internal16UniversalPrinterIdE5PrintERKdPSo
FNDA:0,_ZN7testing8internal16UniversalPrinterIiE5PrintERKiPSo
FNDA:0,_ZN7testing8internal21UniversalTersePrinterIdE5PrintERKdPSo
FNDA:0,_ZN7testing8internal21UniversalTersePrinterIiE5PrintERKiPSo
FNDA:0,_ZN7testing8internal14UniversalPrintIdEEvRKT_PSo
FNDA:0,_ZN7testing8internal14UniversalPrintIiEEvRKT_PSo
FNDA:0,_ZN7testing13PrintToStringIdEENSt7__cxx1112basic_stringIcSt11char_traitsIcESaIcEEERKT_
FNDA:0,_ZN7testing13PrintToStringIiEENSt7__cxx1112basic_stringIcSt11char_traitsIcESaIcEEERKT_
FNF:14
FNH:0
DA:218,0
DA:245,0
DA:246,0
DA:335,0
DA:338,0
DA:339,0
DA:353,0
DA:376,0
DA:377,0
DA:591,0
DA:600,0
DA:601,0
DA:683,0
DA:684,0
DA:685,0
DA:752,0
DA:756,0
DA:757,0
DA:847,0
DA:848,0
DA:849,0
DA:850,0
LF:22
LH:0
end_of_record
SF:/usr/include/gtest/gtest.h
FN:256,_ZN7testing15AssertionResultD2Ev
FN:262,_ZN7testing15AssertionResultC2Eb
FN:265,_ZNK7testing15AssertionResultcvbEv
FN:274,_ZNK7testing15AssertionResult7messageEv
FN:279,_ZNK7testing15AssertionResult15failure_messageEv
FN:365,_ZN7testing4Test13SetUpTestCaseEv
FN:373,_ZN7testing4Test16TearDownTestCaseEv
FN:451,_ZN7testing4Test5SetupEv
FN:1357,_ZN7testing8internal19FormatForComparisonIddE6FormatERKd
FN:1357,_ZN7testing8internal19FormatForComparisonIdiE6FormatERKd
FN:1357,_ZN7testing8internal19FormatForComparisonIidE6FormatERKi
FN:1431,_ZN7testing8internal33FormatForComparisonFailureMessageIidEENSt7__cxx1112basic_stringIcSt11char_traitsIcESaIcEEERKT_RKT0_
FN:1431,_ZN7testing8internal33FormatForComparisonFailureMessageIddEENSt7__cxx1112basic_stringIcSt11char_traitsIcESaIcEEERKT_RKT0_
FN:1431,_ZN7testing8internal33FormatForComparisonFailureMessageIdiEENSt7__cxx1112basic_stringIcSt11char_traitsIcESaIcEEERKT_RKT0_
FN:1438,_ZN7testing8internal11CmpHelperEQIddEENS_15AssertionResultEPKcS4_RKT_RKT0_
FN:1438,_ZN7testing8internal11CmpHelperEQIidEENS_15AssertionResultEPKcS4_RKT_RKT0_
FN:1480,_ZN7testing8internal8EqHelperILb0EE7CompareIddEENS_15AssertionResultEPKcS6_RKT_RKT0_
FN:1480,_ZN7testing8internal8EqHelperILb0EE7CompareIidEENS_15AssertionResultEPKcS6_RKT_RKT0_
FN:1513,_ZN7testing8internal8EqHelperILb1EE7CompareIidEENS_15AssertionResultEPKcS6_RKT_RKT0_PNS0_8EnableIfIXntsrNS0_10is_pointerISA_EE5valueEE4typeE
FNDA:0,_ZN7testing15AssertionResultD2Ev
FNDA:20,_ZN7testing15AssertionResultC2Eb
FNDA:0,_ZNK7testing15AssertionResultcvbEv
FNDA:0,_ZNK7testing15AssertionResult7messageEv
FNDA:0,_ZNK7testing15AssertionResult15failure_messageEv
FNDA:0,_ZN7testing4Test13SetUpTestCaseEv
FNDA:0,_ZN7testing4Test16TearDownTestCaseEv
FNDA:0,_ZN7testing4Test5SetupEv
FNDA:0,_ZN7testing8internal19FormatForComparisonIddE6FormatERKd
FNDA:0,_ZN7testing8internal19FormatForComparisonIdiE6FormatERKd
FNDA:0,_ZN7testing8internal19FormatForComparisonIidE6FormatERKi
FNDA:0,_ZN7testing8internal33FormatForComparisonFailureMessageIddEENSt7__cxx1112basic_stringIcSt11char_traitsIcESaIcEEERKT_RKT0_
FNDA:0,_ZN7testing8internal33FormatForComparisonFailureMessageIdiEENSt7__cxx1112basic_stringIcSt11char_traitsIcESaIcEEERKT_RKT0_
FNDA:0,_ZN7testing8internal33FormatForComparisonFailureMessageIidEENSt7__cxx1112basic_stringIcSt11char_traitsIcESaIcEEERKT_RKT0_
FNDA:0,_ZN7testing8internal11CmpHelperEQIddEENS_15AssertionResultEPKcS4_RKT_RKT0_
FNDA:3,_ZN7testing8internal11CmpHelperEQIidEENS_15AssertionResultEPKcS4_RKT_RKT0_
FNDA:0,_ZN7testing8internal8EqHelperILb0EE7CompareIddEENS_15AssertionResultEPKcS6_RKT_RKT0_
FNDA:2,_ZN7testing8internal8EqHelperILb0EE7CompareIidEENS_15AssertionResultEPKcS6_RKT_RKT0_
FNDA:1,_ZN7testing8internal8EqHelperILb1EE7CompareIidEENS_15AssertionResultEPKcS6_RKT_RKT0_PNS0_8EnableIfIXntsrNS0_10is_pointerISA_EE5valueEE4typeE
FNF:19
FNH:4
DA:256,0
DA:262,20
DA:265,0
DA:274,0
DA:275,0
DA:279,0
DA:365,0
DA:373,0
DA:451,0
DA:1357,0
DA:1358,0
DA:1431,0
DA:1433,0
DA:1438,3
DA:1448,3
DA:1449,3
DA:1460,0
DA:1480,2
DA:1485,2
DA:1513,1
DA:1525,1
LF:21
LH:8
end_of_record
SF:/usr/include/gtest/internal/gtest-internal.h
FN:436,_ZN7testing8internal15TestFactoryBaseD0Ev
FN:436,_ZN7testing8internal15TestFactoryBaseD2Ev
FN:443,_ZN7testing8internal15TestFactoryBaseC2Ev
FN:452,_ZN7testing8internal15TestFactoryImplI33TestNavigation_Left_LaneData_TestED2Ev
FN:452,_ZN7testing8internal15TestFactoryImplI28TestNavigation_StopSign_TestED2Ev
FN:452,_ZN7testing8internal15TestFactoryImplI28TestNavigation_StopSign_TestEC2Ev
FN:452,_ZN7testing8internal15TestFactoryImplI34TestNavigation_Right_LaneData_TestEC2Ev
FN:452,_ZN7testing8internal15TestFactoryImplI37Navigation_Server_Existance_Test_TestED2Ev
FN:452,_ZN7testing8internal15TestFactoryImplI37Navigation_Server_Existance_Test_TestEC2Ev
FN:452,_ZN7testing8internal15TestFactoryImplI30TestNavigation_SpeedLimit_TestED2Ev
FN:452,_ZN7testing8internal15TestFactoryImplI33TestNavigation_Left_LaneData_TestED0Ev
FN:452,_ZN7testing8internal15TestFactoryImplI26TestNavigation_NoSign_TestED2Ev
FN:452,_ZN7testing8internal15TestFactoryImplI34TestNavigation_Right_LaneData_TestED2Ev
FN:452,_ZN7testing8internal15TestFactoryImplI31TestNavigation_No_LaneData_TestED2Ev
FN:452,_ZN7testing8internal15TestFactoryImplI33TestNavigation_Left_LaneData_TestEC2Ev
FN:452,_ZN7testing8internal15TestFactoryImplI30TestNavigation_SpeedLimit_TestED0Ev
FN:452,_ZN7testing8internal15TestFactoryImplI31TestNavigation_No_LaneData_TestEC2Ev
FN:452,_ZN7testing8internal15TestFactoryImplI28TestNavigation_StopSign_TestED0Ev
FN:452,_ZN7testing8internal15TestFactoryImplI34TestNavigation_Right_LaneData_TestED0Ev
FN:452,_ZN7testing8internal15TestFactoryImplI31TestNavigation_No_LaneData_TestED0Ev
FN:452,_ZN7testing8internal15TestFactoryImplI26TestNavigation_NoSign_TestEC2Ev
FN:452,_ZN7testing8internal15TestFactoryImplI30TestNavigation_SpeedLimit_TestEC2Ev
FN:452,_ZN7testing8internal15TestFactoryImplI37Navigation_Server_Existance_Test_TestED0Ev
FN:452,_ZN7testing8internal15TestFactoryImplI26TestNavigation_NoSign_TestED0Ev
FN:454,_ZN7testing8internal15TestFactoryImplI33TestNavigation_Left_LaneData_TestE10CreateTestEv
FN:454,_ZN7testing8internal15TestFactoryImplI37Navigation_Server_Existance_Test_TestE10CreateTestEv
FN:454,_ZN7testing8internal15TestFactoryImplI31TestNavigation_No_LaneData_TestE10CreateTestEv
FN:454,_ZN7testing8internal15TestFactoryImplI30TestNavigation_SpeedLimit_TestE10CreateTestEv
FN:454,_ZN7testing8internal15TestFactoryImplI26TestNavigation_NoSign_TestE10CreateTestEv
FN:454,_ZN7testing8internal15TestFactoryImplI28TestNavigation_StopSign_TestE10CreateTestEv
FN:454,_ZN7testing8internal15TestFactoryImplI34TestNavigation_Right_LaneData_TestE10CreateTestEv
FN:869,_ZN7testing8internal15IsContainerTestIdEEcl
FN:869,_ZN7testing8internal15IsContainerTestIiEEcl
FNDA:0,_ZN7testing8internal15TestFactoryBaseD0Ev
FNDA:0,_ZN7testing8internal15TestFactoryBaseD2Ev
FNDA:0,_ZN7testing8internal15TestFactoryBaseC2Ev
FNDA:1,_ZN7testing8internal15TestFactoryImplI37Navigation_Server_Existance_Test_TestED0Ev
FNDA:1,_ZN7testing8internal15TestFactoryImplI37Navigation_Server_Existance_Test_TestED2Ev
FNDA:1,_ZN7testing8internal15TestFactoryImplI31TestNavigation_No_LaneData_TestED0Ev
FNDA:1,_ZN7testing8internal15TestFactoryImplI31TestNavigation_No_LaneData_TestED2Ev
FNDA:1,_ZN7testing8internal15TestFactoryImplI34TestNavigation_Right_LaneData_TestED0Ev
FNDA:1,_ZN7testing8internal15TestFactoryImplI34TestNavigation_Right_LaneData_TestED2Ev
FNDA:1,_ZN7testing8internal15TestFactoryImplI33TestNavigation_Left_LaneData_TestED0Ev
FNDA:1,_ZN7testing8internal15TestFactoryImplI33TestNavigation_Left_LaneData_TestED2Ev
FNDA:1,_ZN7testing8internal15TestFactoryImplI30TestNavigation_SpeedLimit_TestED0Ev
FNDA:1,_ZN7testing8internal15TestFactoryImplI30TestNavigation_SpeedLimit_TestED2Ev
FNDA:1,_ZN7testing8internal15TestFactoryImplI28TestNavigation_StopSign_TestED0Ev
FNDA:1,_ZN7testing8internal15TestFactoryImplI28TestNavigation_StopSign_TestED2Ev
FNDA:1,_ZN7testing8internal15TestFactoryImplI26TestNavigation_NoSign_TestED0Ev
FNDA:1,_ZN7testing8internal15TestFactoryImplI26TestNavigation_NoSign_TestED2Ev
FNDA:1,_ZN7testing8internal15TestFactoryImplI26TestNavigation_NoSign_TestEC2Ev
FNDA:1,_ZN7testing8internal15TestFactoryImplI28TestNavigation_StopSign_TestEC2Ev
FNDA:1,_ZN7testing8internal15TestFactoryImplI30TestNavigation_SpeedLimit_TestEC2Ev
FNDA:1,_ZN7testing8internal15TestFactoryImplI33TestNavigation_Left_LaneData_TestEC2Ev
FNDA:1,_ZN7testing8internal15TestFactoryImplI34TestNavigation_Right_LaneData_TestEC2Ev
FNDA:1,_ZN7testing8internal15TestFactoryImplI31TestNavigation_No_LaneData_TestEC2Ev
FNDA:1,_ZN7testing8internal15TestFactoryImplI37Navigation_Server_Existance_Test_TestEC2Ev
FNDA:1,_ZN7testing8internal15TestFactoryImplI37Navigation_Server_Existance_Test_TestE10CreateTestEv
FNDA:1,_ZN7testing8internal15TestFactoryImplI31TestNavigation_No_LaneData_TestE10CreateTestEv
FNDA:1,_ZN7testing8internal15TestFactoryImplI34TestNavigation_Right_LaneData_TestE10CreateTestEv
FNDA:1,_ZN7testing8internal15TestFactoryImplI33TestNavigation_Left_LaneData_TestE10CreateTestEv
FNDA:1,_ZN7testing8internal15TestFactoryImplI30TestNavigation_SpeedLimit_TestE10CreateTestEv
FNDA:1,_ZN7testing8internal15TestFactoryImplI28TestNavigation_StopSign_TestE10CreateTestEv
FNDA:1,_ZN7testing8internal15TestFactoryImplI26TestNavigation_NoSign_TestE10CreateTestEv
FNDA:0,_ZN7testing8internal15IsContainerTestIdEEcl
FNDA:0,_ZN7testing8internal15IsContainerTestIiEEcl
FNF:33
FNH:28
DA:436,0
DA:443,0
DA:452,21
DA:454,7
DA:869,0
LF:5
LH:2
end_of_record
SF:/usr/include/gtest/internal/gtest-port.h
FN:897,_ZN7testing8internal10scoped_ptrINSt7__cxx1112basic_stringIcSt11char_traitsIcESaIcEEEEC2EPS7_
FN:898,_ZN7testing8internal10scoped_ptrINSt7__cxx1118basic_stringstreamIcSt11char_traitsIcESaIcEEEED2Ev
FN:898,_ZN7testing8internal10scoped_ptrINSt7__cxx1112basic_stringIcSt11char_traitsIcESaIcEEEED2Ev
FN:901,_ZNK7testing8internal10scoped_ptrINSt7__cxx1112basic_stringIcSt11char_traitsIcESaIcEEEEptEv
FN:902,_ZNK7testing8internal10scoped_ptrINSt7__cxx1112basic_stringIcSt11char_traitsIcESaIcEEEE3getEv
FN:910,_ZN7testing8internal10scoped_ptrINSt7__cxx1118basic_stringstreamIcSt11char_traitsIcESaIcEEEE5resetEPS7_
FN:910,_ZN7testing8internal10scoped_ptrINSt7__cxx1112basic_stringIcSt11char_traitsIcESaIcEEEE5resetEPS7_
FNDA:20,_ZN7testing8internal10scoped_ptrINSt7__cxx1112basic_stringIcSt11char_traitsIcESaIcEEEEC2EPS7_
FNDA:0,_ZN7testing8internal10scoped_ptrINSt7__cxx1112basic_stringIcSt11char_traitsIcESaIcEEEED2Ev
FNDA:0,_ZN7testing8internal10scoped_ptrINSt7__cxx1118basic_stringstreamIcSt11char_traitsIcESaIcEEEED2Ev
FNDA:0,_ZNK7testing8internal10scoped_ptrINSt7__cxx1112basic_stringIcSt11char_traitsIcESaIcEEEEptEv
FNDA:0,_ZNK7testing8internal10scoped_ptrINSt7__cxx1112basic_stringIcSt11char_traitsIcESaIcEEEE3getEv
FNDA:0,_ZN7testing8internal10scoped_ptrINSt7__cxx1118basic_stringstreamIcSt11char_traitsIcESaIcEEEE5resetEPS7_
FNDA:0,_ZN7testing8internal10scoped_ptrINSt7__cxx1112basic_stringIcSt11char_traitsIcESaIcEEEE5resetEPS7_
FNF:7
FNH:1
DA:897,20
DA:898,0
DA:901,0
DA:902,0
DA:910,0
DA:911,0
DA:912,0
DA:913,0
DA:915,0
DA:917,0
LF:10
LH:1
end_of_record
TN:
SF:/home/zach/catkin_ws/src/final_map_mobile/test/main.cpp
FN:50,main
FN:55,_Z41__static_initialization_and_destruction_0ii
FN:55,_GLOBAL__sub_I_main
FNDA:1,main
FNDA:1,_GLOBAL__sub_I_main
FNDA:1,_Z41__static_initialization_and_destruction_0ii
FNF:3
FNH:3
DA:50,1
DA:52,1
DA:53,1
DA:54,1
DA:55,3
LF:5
LH:5
end_of_record
SF:/usr/include/boost/bind/arg.hpp
FN:31,_ZN5boost3argILi4EEC2Ev
FN:31,_ZN5boost3argILi8EEC2Ev
FN:31,_ZN5boost3argILi1EEC2Ev
FN:31,_ZN5boost3argILi2EEC2Ev
FN:31,_ZN5boost3argILi7EEC2Ev
FN:31,_ZN5boost3argILi3EEC2Ev
FN:31,_ZN5boost3argILi6EEC2Ev
FN:31,_ZN5boost3argILi9EEC2Ev
FN:31,_ZN5boost3argILi5EEC2Ev
FNDA:7,_ZN5boost3argILi9EEC2Ev
FNDA:7,_ZN5boost3argILi8EEC2Ev
FNDA:7,_ZN5boost3argILi7EEC2Ev
FNDA:7,_ZN5boost3argILi6EEC2Ev
FNDA:7,_ZN5boost3argILi5EEC2Ev
FNDA:7,_ZN5boost3argILi4EEC2Ev
FNDA:7,_ZN5boost3argILi3EEC2Ev
FNDA:7,_ZN5boost3argILi2EEC2Ev
FNDA:7,_ZN5boost3argILi1EEC2Ev
FNF:9
FNH:9
DA:31,63
DA:33,63
LF:2
LH:2
end_of_record
SF:/usr/include/boost/bind/placeholders.hpp
DA:55,1
DA:56,1
DA:57,1
DA:58,1
DA:59,1
DA:60,1
DA:61,1
DA:62,1
DA:63,1
LF:9
LH:9
end_of_record
SF:/usr/include/c++/5/iostream
DA:74,1
LF:1
LH:1
end_of_record
SF:/usr/include/gtest/gtest.h
FN:2287,_Z13RUN_ALL_TESTSv
FNDA:1,_Z13RUN_ALL_TESTSv
FNF:1
FNH:1
DA:2287,1
DA:2288,1
LF:2
LH:2
end_of_record
TN:
SF:/home/zach/catkin_ws/src/final_map_mobile/test/LaneDetect_Test.cpp
FN:49,_ZN37LaneDetect_Server_Existance_Test_TestC2Ev
FN:49,_ZN37LaneDetect_Server_Existance_Test_TestD2Ev
FN:49,_ZN37LaneDetect_Server_Existance_Test_Test8TestBodyEv
FN:49,_ZN37LaneDetect_Server_Existance_Test_TestD0Ev
FN:57,_ZN32LaneDetect_Image_processing_TestD0Ev
FN:57,_ZN32LaneDetect_Image_processing_TestC2Ev
FN:57,_ZN32LaneDetect_Image_processing_TestD2Ev
FN:57,_ZN32LaneDetect_Image_processing_Test8TestBodyEv
FN:91,_ZN30LaneDetect_Image_callback_TestD0Ev
FN:91,_ZN30LaneDetect_Image_callback_TestC2Ev
FN:91,_ZN30LaneDetect_Image_callback_Test8TestBodyEv
FN:91,_ZN30LaneDetect_Image_callback_TestD2Ev
FN:97,_GLOBAL__sub_I__ZN37LaneDetect_Server_Existance_Test_Test10test_info_E
FNDA:1,_ZN37LaneDetect_Server_Existance_Test_TestD0Ev
FNDA:1,_ZN37LaneDetect_Server_Existance_Test_TestD2Ev
FNDA:1,_ZN37LaneDetect_Server_Existance_Test_Test8TestBodyEv
FNDA:1,_ZN37LaneDetect_Server_Existance_Test_TestC2Ev
FNDA:1,_ZN32LaneDetect_Image_processing_TestD0Ev
FNDA:1,_ZN32LaneDetect_Image_processing_TestD2Ev
FNDA:1,_ZN32LaneDetect_Image_processing_Test8TestBodyEv
FNDA:1,_ZN32LaneDetect_Image_processing_TestC2Ev
FNDA:1,_ZN30LaneDetect_Image_callback_TestD0Ev
FNDA:1,_ZN30LaneDetect_Image_callback_TestD2Ev
FNDA:1,_ZN30LaneDetect_Image_callback_Test8TestBodyEv
FNDA:1,_ZN30LaneDetect_Image_callback_TestC2Ev
FNDA:1,_GLOBAL__sub_I__ZN37LaneDetect_Server_Existance_Test_Test10test_info_E
FNDA:1,_Z41__static_initialization_and_destruction_0ii
FNF:14
FNH:14
DA:49,5
DA:51,2
DA:54,1
DA:55,1
DA:57,5
DA:58,2
DA:59,1
DA:61,2
DA:62,1
DA:63,1
DA:64,1
DA:66,1
DA:67,1
DA:68,1
DA:70,1
DA:71,1
DA:72,1
DA:74,1
DA:75,1
DA:76,1
DA:78,1
DA:79,1
DA:80,1
DA:82,1
DA:83,1
DA:84,1
DA:86,1
DA:87,1
DA:88,1
DA:89,1
DA:91,5
DA:92,2
DA:93,2
DA:94,2
DA:95,1
DA:96,1
DA:97,4
LF:37
LH:37
end_of_record
SF:/opt/ros/kinetic/include/cv_bridge/cv_bridge.h
FN:76,_ZN9cv_bridge7CvImageD2Ev
FN:91,_ZN9cv_bridge7CvImageC2ERKN8std_msgs7Header_ISaIvEEERKNSt7__cxx1112basic_stringIcSt11char_traitsIcESaIcEEERKN2cv3MatE
FNDA:4,_ZN9cv_bridge7CvImageD2Ev
FNDA:2,_ZN9cv_bridge7CvImageC2ERKN8std_msgs7Header_ISaIvEEERKNSt7__cxx1112basic_stringIcSt11char_traitsIcESaIcEEERKN2cv3MatE
FNF:2
FNH:2
DA:76,4
DA:91,2
DA:93,2
DA:95,2
LF:4
LH:4
end_of_record
SF:/opt/ros/kinetic/include/opencv-3.3.1-dev/opencv2/core/cvstd.hpp
FN:571,_ZN2cv6StringC2ERKS0_
FN:596,_ZN2cv6StringC2EPKc
FN:646,_ZN2cv6StringD2Ev
FN:652,_ZN2cv6StringaSERKS0_
FN:745,_ZNK2cv6String5c_strEv
FNDA:0,_ZN2cv6StringC2ERKS0_
FNDA:25,_ZN2cv6StringC2EPKc
FNDA:31,_ZN2cv6StringD2Ev
FNDA:0,_ZN2cv6StringaSERKS0_
FNDA:0,_ZNK2cv6String5c_strEv
FNF:5
FNH:2
DA:571,0
DA:572,0
DA:574,0
DA:575,0
DA:576,0
DA:596,25
DA:597,25
DA:599,25
DA:600,25
DA:601,25
DA:602,25
DA:646,62
DA:648,31
DA:649,31
DA:652,0
DA:654,0
DA:656,0
DA:657,0
DA:658,0
DA:659,0
DA:660,0
DA:745,0
DA:747,0
LF:23
LH:9
end_of_record
SF:/opt/ros/kinetic/include/opencv-3.3.1-dev/opencv2/core/mat.inl.hpp
FN:476,_ZN2cv3MatC2ERKS0_
FN:688,_ZN2cv3MatD2Ev
FN:801,_ZN2cv3Mat7releaseEv
FN:1360,_ZN2cv3MataSEOS0_
FN:1401,_ZN2cv7MatSizeC2EPi
FN:1462,_ZN2cv7MatStepC2Em
FN:1468,_ZNK2cv7MatStepixEi
FN:1474,_ZN2cv7MatStepixEi
FNDA:203,_ZN2cv3MatC2ERKS0_
FNDA:1602,_ZN2cv3MatD2Ev
FNDA:2088,_ZN2cv3Mat7releaseEv
FNDA:6,_ZN2cv3MataSEOS0_
FNDA:264,_ZN2cv7MatSizeC2EPi
FNDA:264,_ZN2cv7MatStepC2Em
FNDA:818,_ZNK2cv7MatStepixEi
FNDA:836,_ZN2cv7MatStepixEi
FNF:8
FNH:8
DA:476,203
DA:477,1015
DA:478,812
DA:479,1827
DA:481,203
DA:482,116
DA:483,203
DA:485,203
DA:489,0
DA:490,0
DA:492,203
DA:688,3259
DA:690,1602
DA:691,1657
DA:692,0
DA:693,1657
DA:801,2088
DA:803,2088
DA:804,70
DA:805,2076
DA:806,2076
DA:807,5320
DA:808,3244
DA:819,2076
DA:1360,6
DA:1362,6
DA:1363,0
DA:1365,6
DA:1366,6
DA:1367,6
DA:1368,6
DA:1369,6
DA:1371,0
DA:1372,0
DA:1373,0
DA:1375,6
DA:1377,6
DA:1378,6
DA:1383,0
DA:1384,0
DA:1385,0
DA:1386,0
DA:1388,6
DA:1389,6
DA:1390,6
DA:1391,6
DA:1392,6
DA:1401,264
DA:1402,264
DA:1462,264
DA:1464,264
DA:1465,264
DA:1468,818
DA:1470,818
DA:1474,836
DA:1476,836
LF:56
LH:45
end_of_record
SF:/opt/ros/kinetic/include/opencv-3.3.1-dev/opencv2/flann/any.h
FN:34,_ZN7cvflann7anyimpllsERSoRKNS0_9empty_anyE
FN:51,_ZN7cvflann7anyimpl15base_any_policyD0Ev
FN:51,_ZN7cvflann7anyimpl15base_any_policyD2Ev
FN:55,_ZN7cvflann7anyimpl21typed_base_any_policyINS0_9empty_anyEED0Ev
FN:55,_ZN7cvflann7anyimpl21typed_base_any_policyIbED2Ev
FN:55,_ZN7cvflann7anyimpl21typed_base_any_policyIiED2Ev
FN:55,_ZN7cvflann7anyimpl21typed_base_any_policyIfED2Ev
FN:55,_ZN7cvflann7anyimpl21typed_base_any_policyIN2cv6StringEED0Ev
FN:55,_ZN7cvflann7anyimpl21typed_base_any_policyINS_17flann_algorithm_tEED0Ev
FN:55,_ZN7cvflann7anyimpl21typed_base_any_policyIiED0Ev
FN:55,_ZN7cvflann7anyimpl21typed_base_any_policyIbED0Ev
FN:55,_ZN7cvflann7anyimpl21typed_base_any_policyIPKcED2Ev
FN:55,_ZN7cvflann7anyimpl21typed_base_any_policyINS_20flann_centers_init_tEED2Ev
FN:55,_ZN7cvflann7anyimpl21typed_base_any_policyIfED0Ev
FN:55,_ZN7cvflann7anyimpl21typed_base_any_policyINS0_9empty_anyEED2Ev
FN:55,_ZN7cvflann7anyimpl21typed_base_any_policyIPKcED0Ev
FN:55,_ZN7cvflann7anyimpl21typed_base_any_policyINS_17flann_algorithm_tEED2Ev
FN:55,_ZN7cvflann7anyimpl21typed_base_any_policyINS_20flann_centers_init_tEED0Ev
FN:55,_ZN7cvflann7anyimpl21typed_base_any_policyIN2cv6StringEED2Ev
FN:55,_ZN7cvflann7anyimpl21typed_base_any_policyIjED0Ev
FN:55,_ZN7cvflann7anyimpl21typed_base_any_policyIjED2Ev
FN:57,_ZN7cvflann7anyimpl21typed_base_any_policyIfE8get_sizeEv
FN:57,_ZN7cvflann7anyimpl21typed_base_any_policyINS_20flann_centers_init_tEE8get_sizeEv
FN:57,_ZN7cvflann7anyimpl21typed_base_any_policyINS_17flann_algorithm_tEE8get_sizeEv
FN:57,_ZN7cvflann7anyimpl21typed_base_any_policyIbE8get_sizeEv
FN:57,_ZN7cvflann7anyimpl21typed_base_any_policyIPKcE8get_sizeEv
FN:57,_ZN7cvflann7anyimpl21typed_base_any_policyIN2cv6StringEE8get_sizeEv
FN:57,_ZN7cvflann7anyimpl21typed_base_any_policyIjE8get_sizeEv
FN:57,_ZN7cvflann7anyimpl21typed_base_any_policyIiE8get_sizeEv
FN:57,_ZN7cvflann7anyimpl21typed_base_any_policyINS0_9empty_anyEE8get_sizeEv
FN:58,_ZN7cvflann7anyimpl21typed_base_any_policyINS0_9empty_anyEE4typeEv
FN:58,_ZN7cvflann7anyimpl21typed_base_any_policyINS_17flann_algorithm_tEE4typeEv
FN:58,_ZN7cvflann7anyimpl21typed_base_any_policyIfE4typeEv
FN:58,_ZN7cvflann7anyimpl21typed_base_any_policyIN2cv6StringEE4typeEv
FN:58,_ZN7cvflann7anyimpl21typed_base_any_policyIbE4typeEv
FN:58,_ZN7cvflann7anyimpl21typed_base_any_policyIiE4typeEv
FN:58,_ZN7cvflann7anyimpl21typed_base_any_policyINS_20flann_centers_init_tEE4typeEv
FN:58,_ZN7cvflann7anyimpl21typed_base_any_policyIPKcE4typeEv
FN:58,_ZN7cvflann7anyimpl21typed_base_any_policyIjE4typeEv
FN:63,_ZN7cvflann7anyimpl16small_any_policyIiED0Ev
FN:63,_ZN7cvflann7anyimpl16small_any_policyIjED2Ev
FN:63,_ZN7cvflann7anyimpl16small_any_policyIfED0Ev
FN:63,_ZN7cvflann7anyimpl16small_any_policyIfED2Ev
FN:63,_ZN7cvflann7anyimpl16small_any_policyIbED0Ev
FN:63,_ZN7cvflann7anyimpl16small_any_policyIiED2Ev
FN:63,_ZN7cvflann7anyimpl16small_any_policyIPKcED0Ev
FN:63,_ZN7cvflann7anyimpl16small_any_policyIjED0Ev
FN:63,_ZN7cvflann7anyimpl16small_any_policyIbED2Ev
FN:63,_ZN7cvflann7anyimpl16small_any_policyIPKcED2Ev
FN:65,_ZN7cvflann7anyimpl16small_any_policyIPKcE13static_deleteEPPv
FN:65,_ZN7cvflann7anyimpl16small_any_policyIbE13static_deleteEPPv
FN:65,_ZN7cvflann7anyimpl16small_any_policyIjE13static_deleteEPPv
FN:65,_ZN7cvflann7anyimpl16small_any_policyIiE13static_deleteEPPv
FN:65,_ZN7cvflann7anyimpl16small_any_policyIfE13static_deleteEPPv
FN:66,_ZN7cvflann7anyimpl16small_any_policyIfE15copy_from_valueEPKvPPv
FN:66,_ZN7cvflann7anyimpl16small_any_policyIbE15copy_from_valueEPKvPPv
FN:66,_ZN7cvflann7anyimpl16small_any_policyIiE15copy_from_valueEPKvPPv
FN:66,_ZN7cvflann7anyimpl16small_any_policyIjE15copy_from_valueEPKvPPv
FN:66,_ZN7cvflann7anyimpl16small_any_policyIPKcE15copy_from_valueEPKvPPv
FN:70,_ZN7cvflann7anyimpl16small_any_policyIfE5cloneEPKPvPS3_
FN:70,_ZN7cvflann7anyimpl16small_any_policyIjE5cloneEPKPvPS3_
FN:70,_ZN7cvflann7anyimpl16small_any_policyIbE5cloneEPKPvPS3_
FN:70,_ZN7cvflann7anyimpl16small_any_policyIPKcE5cloneEPKPvPS5_
FN:70,_ZN7cvflann7anyimpl16small_any_policyIiE5cloneEPKPvPS3_
FN:71,_ZN7cvflann7anyimpl16small_any_policyIbE4moveEPKPvPS3_
FN:71,_ZN7cvflann7anyimpl16small_any_policyIjE4moveEPKPvPS3_
FN:71,_ZN7cvflann7anyimpl16small_any_policyIPKcE4moveEPKPvPS5_
FN:71,_ZN7cvflann7anyimpl16small_any_policyIfE4moveEPKPvPS3_
FN:71,_ZN7cvflann7anyimpl16small_any_policyIiE4moveEPKPvPS3_
FN:72,_ZN7cvflann7anyimpl16small_any_policyIfE9get_valueEPPv
FN:72,_ZN7cvflann7anyimpl16small_any_policyIjE9get_valueEPPv
FN:72,_ZN7cvflann7anyimpl16small_any_policyIiE9get_valueEPPv
FN:72,_ZN7cvflann7anyimpl16small_any_policyIbE9get_valueEPPv
FN:72,_ZN7cvflann7anyimpl16small_any_policyIPKcE9get_valueEPPv
FN:73,_ZN7cvflann7anyimpl16small_any_policyIfE9get_valueEPKPv
FN:73,_ZN7cvflann7anyimpl16small_any_policyIbE9get_valueEPKPv
FN:73,_ZN7cvflann7anyimpl16small_any_policyIjE9get_valueEPKPv
FN:73,_ZN7cvflann7anyimpl16small_any_policyIPKcE9get_valueEPKPv
FN:73,_ZN7cvflann7anyimpl16small_any_policyIiE9get_valueEPKPv
FN:74,_ZN7cvflann7anyimpl16small_any_policyIbE5printERSoPKPv
FN:74,_ZN7cvflann7anyimpl16small_any_policyIPKcE5printERSoPKPv
FN:74,_ZN7cvflann7anyimpl16small_any_policyIjE5printERSoPKPv
FN:74,_ZN7cvflann7anyimpl16small_any_policyIfE5printERSoPKPv
FN:74,_ZN7cvflann7anyimpl16small_any_policyIiE5printERSoPKPv
FN:78,_ZN7cvflann7anyimpl14big_any_policyIN2cv6StringEED2Ev
FN:78,_ZN7cvflann7anyimpl14big_any_policyINS_17flann_algorithm_tEED0Ev
FN:78,_ZN7cvflann7anyimpl14big_any_policyINS0_9empty_anyEED2Ev
FN:78,_ZN7cvflann7anyimpl14big_any_policyINS_17flann_algorithm_tEED2Ev
FN:78,_ZN7cvflann7anyimpl14big_any_policyINS0_9empty_anyEED0Ev
FN:78,_ZN7cvflann7anyimpl14big_any_policyINS_20flann_centers_init_tEED2Ev
FN:78,_ZN7cvflann7anyimpl14big_any_policyIN2cv6StringEED0Ev
FN:78,_ZN7cvflann7anyimpl14big_any_policyINS_20flann_centers_init_tEED0Ev
FN:80,_ZN7cvflann7anyimpl14big_any_policyINS_20flann_centers_init_tEE13static_deleteEPPv
FN:80,_ZN7cvflann7anyimpl14big_any_policyINS0_9empty_anyEE13static_deleteEPPv
FN:80,_ZN7cvflann7anyimpl14big_any_policyINS_17flann_algorithm_tEE13static_deleteEPPv
FN:80,_ZN7cvflann7anyimpl14big_any_policyIN2cv6StringEE13static_deleteEPPv
FN:85,_ZN7cvflann7anyimpl14big_any_policyIN2cv6StringEE15copy_from_valueEPKvPPv
FN:85,_ZN7cvflann7anyimpl14big_any_policyINS0_9empty_anyEE15copy_from_valueEPKvPPv
FN:85,_ZN7cvflann7anyimpl14big_any_policyINS_20flann_centers_init_tEE15copy_from_valueEPKvPPv
FN:85,_ZN7cvflann7anyimpl14big_any_policyINS_17flann_algorithm_tEE15copy_from_valueEPKvPPv
FN:89,_ZN7cvflann7anyimpl14big_any_policyINS0_9empty_anyEE5cloneEPKPvPS4_
FN:89,_ZN7cvflann7anyimpl14big_any_policyIN2cv6StringEE5cloneEPKPvPS5_
FN:89,_ZN7cvflann7anyimpl14big_any_policyINS_20flann_centers_init_tEE5cloneEPKPvPS4_
FN:89,_ZN7cvflann7anyimpl14big_any_policyINS_17flann_algorithm_tEE5cloneEPKPvPS4_
FN:93,_ZN7cvflann7anyimpl14big_any_policyINS_17flann_algorithm_tEE4moveEPKPvPS4_
FN:93,_ZN7cvflann7anyimpl14big_any_policyIN2cv6StringEE4moveEPKPvPS5_
FN:93,_ZN7cvflann7anyimpl14big_any_policyINS_20flann_centers_init_tEE4moveEPKPvPS4_
FN:93,_ZN7cvflann7anyimpl14big_any_policyINS0_9empty_anyEE4moveEPKPvPS4_
FN:98,_ZN7cvflann7anyimpl14big_any_policyINS_17flann_algorithm_tEE9get_valueEPPv
FN:98,_ZN7cvflann7anyimpl14big_any_policyINS0_9empty_anyEE9get_valueEPPv
FN:98,_ZN7cvflann7anyimpl14big_any_policyINS_20flann_centers_init_tEE9get_valueEPPv
FN:98,_ZN7cvflann7anyimpl14big_any_policyIN2cv6StringEE9get_valueEPPv
FN:99,_ZN7cvflann7anyimpl14big_any_policyINS_20flann_centers_init_tEE9get_valueEPKPv
FN:99,_ZN7cvflann7anyimpl14big_any_policyINS0_9empty_anyEE9get_valueEPKPv
FN:99,_ZN7cvflann7anyimpl14big_any_policyINS_17flann_algorithm_tEE9get_valueEPKPv
FN:99,_ZN7cvflann7anyimpl14big_any_policyIN2cv6StringEE9get_valueEPKPv
FN:100,_ZN7cvflann7anyimpl14big_any_policyINS0_9empty_anyEE5printERSoPKPv
FN:103,_ZN7cvflann7anyimpl14big_any_policyINS_20flann_centers_init_tEE5printERSoPKPv
FN:108,_ZN7cvflann7anyimpl14big_any_policyINS_17flann_algorithm_tEE5printERSoPKPv
FN:113,_ZN7cvflann7anyimpl14big_any_policyIN2cv6StringEE5printERSoPKPv
FNDA:0,_ZN7cvflann7anyimpllsERSoRKNS0_9empty_anyE
FNDA:0,_ZN7cvflann7anyimpl15base_any_policyD0Ev
FNDA:0,_ZN7cvflann7anyimpl15base_any_policyD2Ev
FNDA:0,_ZN7cvflann7anyimpl21typed_base_any_policyIN2cv6StringEED0Ev
FNDA:0,_ZN7cvflann7anyimpl21typed_base_any_policyIN2cv6StringEED2Ev
FNDA:0,_ZN7cvflann7anyimpl21typed_base_any_policyIjED0Ev
FNDA:0,_ZN7cvflann7anyimpl21typed_base_any_policyIjED2Ev
FNDA:0,_ZN7cvflann7anyimpl21typed_base_any_policyINS_20flann_centers_init_tEED0Ev
FNDA:0,_ZN7cvflann7anyimpl21typed_base_any_policyINS_20flann_centers_init_tEED2Ev
FNDA:0,_ZN7cvflann7anyimpl21typed_base_any_policyINS_17flann_algorithm_tEED0Ev
FNDA:0,_ZN7cvflann7anyimpl21typed_base_any_policyINS_17flann_algorithm_tEED2Ev
FNDA:0,_ZN7cvflann7anyimpl21typed_base_any_policyIbED0Ev
FNDA:0,_ZN7cvflann7anyimpl21typed_base_any_policyIbED2Ev
FNDA:0,_ZN7cvflann7anyimpl21typed_base_any_policyIfED0Ev
FNDA:0,_ZN7cvflann7anyimpl21typed_base_any_policyIfED2Ev
FNDA:0,_ZN7cvflann7anyimpl21typed_base_any_policyIiED0Ev
FNDA:0,_ZN7cvflann7anyimpl21typed_base_any_policyIiED2Ev
FNDA:0,_ZN7cvflann7anyimpl21typed_base_any_policyIPKcED0Ev
FNDA:0,_ZN7cvflann7anyimpl21typed_base_any_policyIPKcED2Ev
FNDA:0,_ZN7cvflann7anyimpl21typed_base_any_policyINS0_9empty_anyEED0Ev
FNDA:0,_ZN7cvflann7anyimpl21typed_base_any_policyINS0_9empty_anyEED2Ev
FNDA:0,_ZN7cvflann7anyimpl21typed_base_any_policyINS_20flann_centers_init_tEE8get_sizeEv
FNDA:0,_ZN7cvflann7anyimpl21typed_base_any_policyINS_17flann_algorithm_tEE8get_sizeEv
FNDA:0,_ZN7cvflann7anyimpl21typed_base_any_policyIN2cv6StringEE8get_sizeEv
FNDA:0,_ZN7cvflann7anyimpl21typed_base_any_policyINS0_9empty_anyEE8get_sizeEv
FNDA:0,_ZN7cvflann7anyimpl21typed_base_any_policyIPKcE8get_sizeEv
FNDA:0,_ZN7cvflann7anyimpl21typed_base_any_policyIiE8get_sizeEv
FNDA:0,_ZN7cvflann7anyimpl21typed_base_any_policyIfE8get_sizeEv
FNDA:0,_ZN7cvflann7anyimpl21typed_base_any_policyIbE8get_sizeEv
FNDA:0,_ZN7cvflann7anyimpl21typed_base_any_policyIjE8get_sizeEv
FNDA:0,_ZN7cvflann7anyimpl21typed_base_any_policyINS_20flann_centers_init_tEE4typeEv
FNDA:0,_ZN7cvflann7anyimpl21typed_base_any_policyINS_17flann_algorithm_tEE4typeEv
FNDA:0,_ZN7cvflann7anyimpl21typed_base_any_policyIN2cv6StringEE4typeEv
FNDA:0,_ZN7cvflann7anyimpl21typed_base_any_policyINS0_9empty_anyEE4typeEv
FNDA:0,_ZN7cvflann7anyimpl21typed_base_any_policyIPKcE4typeEv
FNDA:0,_ZN7cvflann7anyimpl21typed_base_any_policyIiE4typeEv
FNDA:0,_ZN7cvflann7anyimpl21typed_base_any_policyIfE4typeEv
FNDA:0,_ZN7cvflann7anyimpl21typed_base_any_policyIbE4typeEv
FNDA:0,_ZN7cvflann7anyimpl21typed_base_any_policyIjE4typeEv
FNDA:0,_ZN7cvflann7anyimpl16small_any_policyIjED0Ev
FNDA:0,_ZN7cvflann7anyimpl16small_any_policyIjED2Ev
FNDA:0,_ZN7cvflann7anyimpl16small_any_policyIbED0Ev
FNDA:0,_ZN7cvflann7anyimpl16small_any_policyIbED2Ev
FNDA:0,_ZN7cvflann7anyimpl16small_any_policyIfED0Ev
FNDA:0,_ZN7cvflann7anyimpl16small_any_policyIfED2Ev
FNDA:0,_ZN7cvflann7anyimpl16small_any_policyIiED0Ev
FNDA:0,_ZN7cvflann7anyimpl16small_any_policyIiED2Ev
FNDA:0,_ZN7cvflann7anyimpl16small_any_policyIPKcED0Ev
FNDA:0,_ZN7cvflann7anyimpl16small_any_policyIPKcED2Ev
FNDA:0,_ZN7cvflann7anyimpl16small_any_policyIPKcE13static_deleteEPPv
FNDA:0,_ZN7cvflann7anyimpl16small_any_policyIiE13static_deleteEPPv
FNDA:0,_ZN7cvflann7anyimpl16small_any_policyIfE13static_deleteEPPv
FNDA:0,_ZN7cvflann7anyimpl16small_any_policyIbE13static_deleteEPPv
FNDA:0,_ZN7cvflann7anyimpl16small_any_policyIjE13static_deleteEPPv
FNDA:0,_ZN7cvflann7anyimpl16small_any_policyIPKcE15copy_from_valueEPKvPPv
FNDA:0,_ZN7cvflann7anyimpl16small_any_policyIiE15copy_from_valueEPKvPPv
FNDA:0,_ZN7cvflann7anyimpl16small_any_policyIfE15copy_from_valueEPKvPPv
FNDA:0,_ZN7cvflann7anyimpl16small_any_policyIbE15copy_from_valueEPKvPPv
FNDA:0,_ZN7cvflann7anyimpl16small_any_policyIjE15copy_from_valueEPKvPPv
FNDA:0,_ZN7cvflann7anyimpl16small_any_policyIPKcE5cloneEPKPvPS5_
FNDA:0,_ZN7cvflann7anyimpl16small_any_policyIiE5cloneEPKPvPS3_
FNDA:0,_ZN7cvflann7anyimpl16small_any_policyIfE5cloneEPKPvPS3_
FNDA:0,_ZN7cvflann7anyimpl16small_any_policyIbE5cloneEPKPvPS3_
FNDA:0,_ZN7cvflann7anyimpl16small_any_policyIjE5cloneEPKPvPS3_
FNDA:0,_ZN7cvflann7anyimpl16small_any_policyIPKcE4moveEPKPvPS5_
FNDA:0,_ZN7cvflann7anyimpl16small_any_policyIiE4moveEPKPvPS3_
FNDA:0,_ZN7cvflann7anyimpl16small_any_policyIfE4moveEPKPvPS3_
FNDA:0,_ZN7cvflann7anyimpl16small_any_policyIbE4moveEPKPvPS3_
FNDA:0,_ZN7cvflann7anyimpl16small_any_policyIjE4moveEPKPvPS3_
FNDA:0,_ZN7cvflann7anyimpl16small_any_policyIPKcE9get_valueEPPv
FNDA:0,_ZN7cvflann7anyimpl16small_any_policyIiE9get_valueEPPv
FNDA:0,_ZN7cvflann7anyimpl16small_any_policyIfE9get_valueEPPv
FNDA:0,_ZN7cvflann7anyimpl16small_any_policyIbE9get_valueEPPv
FNDA:0,_ZN7cvflann7anyimpl16small_any_policyIjE9get_valueEPPv
FNDA:0,_ZN7cvflann7anyimpl16small_any_policyIPKcE9get_valueEPKPv
FNDA:0,_ZN7cvflann7anyimpl16small_any_policyIiE9get_valueEPKPv
FNDA:0,_ZN7cvflann7anyimpl16small_any_policyIfE9get_valueEPKPv
FNDA:0,_ZN7cvflann7anyimpl16small_any_policyIbE9get_valueEPKPv
FNDA:0,_ZN7cvflann7anyimpl16small_any_policyIjE9get_valueEPKPv
FNDA:0,_ZN7cvflann7anyimpl16small_any_policyIPKcE5printERSoPKPv
FNDA:0,_ZN7cvflann7anyimpl16small_any_policyIiE5printERSoPKPv
FNDA:0,_ZN7cvflann7anyimpl16small_any_policyIfE5printERSoPKPv
FNDA:0,_ZN7cvflann7anyimpl16small_any_policyIbE5printERSoPKPv
FNDA:0,_ZN7cvflann7anyimpl16small_any_policyIjE5printERSoPKPv
FNDA:0,_ZN7cvflann7anyimpl14big_any_policyIN2cv6StringEED0Ev
FNDA:0,_ZN7cvflann7anyimpl14big_any_policyIN2cv6StringEED2Ev
FNDA:0,_ZN7cvflann7anyimpl14big_any_policyINS_20flann_centers_init_tEED0Ev
FNDA:0,_ZN7cvflann7anyimpl14big_any_policyINS_20flann_centers_init_tEED2Ev
FNDA:0,_ZN7cvflann7anyimpl14big_any_policyINS_17flann_algorithm_tEED0Ev
FNDA:0,_ZN7cvflann7anyimpl14big_any_policyINS_17flann_algorithm_tEED2Ev
FNDA:0,_ZN7cvflann7anyimpl14big_any_policyINS0_9empty_anyEED0Ev
FNDA:0,_ZN7cvflann7anyimpl14big_any_policyINS0_9empty_anyEED2Ev
FNDA:0,_ZN7cvflann7anyimpl14big_any_policyINS_20flann_centers_init_tEE13static_deleteEPPv
FNDA:0,_ZN7cvflann7anyimpl14big_any_policyINS_17flann_algorithm_tEE13static_deleteEPPv
FNDA:0,_ZN7cvflann7anyimpl14big_any_policyIN2cv6StringEE13static_deleteEPPv
FNDA:0,_ZN7cvflann7anyimpl14big_any_policyINS0_9empty_anyEE13static_deleteEPPv
FNDA:0,_ZN7cvflann7anyimpl14big_any_policyINS_20flann_centers_init_tEE15copy_from_valueEPKvPPv
FNDA:0,_ZN7cvflann7anyimpl14big_any_policyINS_17flann_algorithm_tEE15copy_from_valueEPKvPPv
FNDA:0,_ZN7cvflann7anyimpl14big_any_policyIN2cv6StringEE15copy_from_valueEPKvPPv
FNDA:0,_ZN7cvflann7anyimpl14big_any_policyINS0_9empty_anyEE15copy_from_valueEPKvPPv
FNDA:0,_ZN7cvflann7anyimpl14big_any_policyINS_20flann_centers_init_tEE5cloneEPKPvPS4_
FNDA:0,_ZN7cvflann7anyimpl14big_any_policyINS_17flann_algorithm_tEE5cloneEPKPvPS4_
FNDA:0,_ZN7cvflann7anyimpl14big_any_policyIN2cv6StringEE5cloneEPKPvPS5_
FNDA:0,_ZN7cvflann7anyimpl14big_any_policyINS0_9empty_anyEE5cloneEPKPvPS4_
FNDA:0,_ZN7cvflann7anyimpl14big_any_policyINS_20flann_centers_init_tEE4moveEPKPvPS4_
FNDA:0,_ZN7cvflann7anyimpl14big_any_policyINS_17flann_algorithm_tEE4moveEPKPvPS4_
FNDA:0,_ZN7cvflann7anyimpl14big_any_policyIN2cv6StringEE4moveEPKPvPS5_
FNDA:0,_ZN7cvflann7anyimpl14big_any_policyINS0_9empty_anyEE4moveEPKPvPS4_
FNDA:0,_ZN7cvflann7anyimpl14big_any_policyINS_20flann_centers_init_tEE9get_valueEPPv
FNDA:0,_ZN7cvflann7anyimpl14big_any_policyINS_17flann_algorithm_tEE9get_valueEPPv
FNDA:0,_ZN7cvflann7anyimpl14big_any_policyIN2cv6StringEE9get_valueEPPv
FNDA:0,_ZN7cvflann7anyimpl14big_any_policyINS0_9empty_anyEE9get_valueEPPv
FNDA:0,_ZN7cvflann7anyimpl14big_any_policyINS_20flann_centers_init_tEE9get_valueEPKPv
FNDA:0,_ZN7cvflann7anyimpl14big_any_policyINS_17flann_algorithm_tEE9get_valueEPKPv
FNDA:0,_ZN7cvflann7anyimpl14big_any_policyIN2cv6StringEE9get_valueEPKPv
FNDA:0,_ZN7cvflann7anyimpl14big_any_policyINS0_9empty_anyEE9get_valueEPKPv
FNDA:0,_ZN7cvflann7anyimpl14big_any_policyINS0_9empty_anyEE5printERSoPKPv
FNDA:0,_ZN7cvflann7anyimpl14big_any_policyINS_20flann_centers_init_tEE5printERSoPKPv
FNDA:0,_ZN7cvflann7anyimpl14big_any_policyINS_17flann_algorithm_tEE5printERSoPKPv
FNDA:0,_ZN7cvflann7anyimpl14big_any_policyIN2cv6StringEE5printERSoPKPv
FNF:120
FNH:0
DA:34,0
DA:36,0
DA:37,0
DA:51,0
DA:55,0
DA:57,0
DA:58,0
DA:63,0
DA:65,0
DA:66,0
DA:68,0
DA:69,0
DA:70,0
DA:71,0
DA:72,0
DA:73,0
DA:74,0
DA:78,0
DA:80,0
DA:82,0
DA:83,0
DA:84,0
DA:85,0
DA:87,0
DA:88,0
DA:89,0
DA:91,0
DA:92,0
DA:93,0
DA:95,0
DA:96,0
DA:97,0
DA:98,0
DA:99,0
DA:100,0
DA:103,0
DA:105,0
DA:106,0
DA:108,0
DA:110,0
DA:111,0
DA:113,0
DA:115,0
DA:116,0
DA:174,1
LF:45
LH:1
end_of_record
SF:/opt/ros/kinetic/include/ros/time.h
FN:135,_ZN3ros8TimeBaseINS_4TimeENS_8DurationEEC2Ev
FN:183,_ZN3ros4TimeC2Ev
FNDA:8,_ZN3ros8TimeBaseINS_4TimeENS_8DurationEEC2Ev
FNDA:8,_ZN3ros4TimeC2Ev
FNF:2
FNH:2
DA:135,8
DA:183,8
DA:184,8
DA:185,8
LF:4
LH:4
end_of_record
SF:/opt/ros/kinetic/include/sensor_msgs/image_encodings.h
FN:104,__tcf_0
FNDA:1,__tcf_0
FNF:1
FNH:1
DA:47,1
DA:48,1
DA:49,1
DA:50,1
DA:51,1
DA:52,1
DA:53,1
DA:54,1
DA:55,1
DA:56,1
DA:59,1
DA:60,1
DA:61,1
DA:62,1
DA:63,1
DA:64,1
DA:65,1
DA:66,1
DA:67,1
DA:68,1
DA:69,1
DA:70,1
DA:71,1
DA:72,1
DA:73,1
DA:74,1
DA:75,1
DA:76,1
DA:77,1
DA:78,1
DA:79,1
DA:80,1
DA:81,1
DA:82,1
DA:83,1
DA:84,1
DA:85,1
DA:86,1
DA:89,1
DA:90,1
DA:91,1
DA:92,1
DA:93,1
DA:94,1
DA:95,1
DA:96,1
DA:101,1
DA:104,2
DA:105,1
LF:49
LH:49
end_of_record
SF:/opt/ros/kinetic/include/std_msgs/Header.h
FN:22,_ZN8std_msgs7Header_ISaIvEED2Ev
FN:22,_ZN8std_msgs7Header_ISaIvEEC2ERKS2_
FN:26,_ZN8std_msgs7Header_ISaIvEEC2Ev
FNDA:2,_ZN8std_msgs7Header_ISaIvEEC2ERKS2_
FNDA:6,_ZN8std_msgs7Header_ISaIvEED2Ev
FNDA:2,_ZN8std_msgs7Header_ISaIvEEC2Ev
FNF:3
FNH:3
DA:22,8
DA:26,2
DA:29,2
DA:30,2
LF:4
LH:4
end_of_record
SF:/usr/include/boost/bind/arg.hpp
FN:31,_ZN5boost3argILi9EEC2Ev
FN:31,_ZN5boost3argILi6EEC2Ev
FN:31,_ZN5boost3argILi5EEC2Ev
FN:31,_ZN5boost3argILi1EEC2Ev
FN:31,_ZN5boost3argILi8EEC2Ev
FN:31,_ZN5boost3argILi4EEC2Ev
FN:31,_ZN5boost3argILi3EEC2Ev
FN:31,_ZN5boost3argILi7EEC2Ev
FN:31,_ZN5boost3argILi2EEC2Ev
FNDA:0,_ZN5boost3argILi9EEC2Ev
FNDA:0,_ZN5boost3argILi8EEC2Ev
FNDA:0,_ZN5boost3argILi7EEC2Ev
FNDA:0,_ZN5boost3argILi6EEC2Ev
FNDA:0,_ZN5boost3argILi5EEC2Ev
FNDA:0,_ZN5boost3argILi4EEC2Ev
FNDA:0,_ZN5boost3argILi3EEC2Ev
FNDA:0,_ZN5boost3argILi2EEC2Ev
FNDA:0,_ZN5boost3argILi1EEC2Ev
FNF:9
FNH:0
DA:31,0
DA:33,0
LF:2
LH:0
end_of_record
SF:/usr/include/boost/bind/placeholders.hpp
DA:55,1
DA:56,1
DA:57,1
DA:58,1
DA:59,1
DA:60,1
DA:61,1
DA:62,1
DA:63,1
LF:9
LH:9
end_of_record
SF:/usr/include/boost/smart_ptr/detail/shared_count.hpp
FN:114,_ZN5boost6detail12shared_countC2Ev
FN:441,_ZN5boost6detail12shared_countD2Ev
FN:449,_ZN5boost6detail12shared_countC2ERKS1_
FNDA:12079687,_ZN5boost6detail12shared_countC2Ev
FNDA:12079758,_ZN5boost6detail12shared_countD2Ev
FNDA:79,_ZN5boost6detail12shared_countC2ERKS1_
FNF:3
FNH:3
DA:114,12079687
DA:119,12079687
DA:441,12079758
DA:442,12079758
DA:443,12079758
DA:447,12079758
DA:449,79
DA:454,79
DA:455,79
LF:9
LH:9
end_of_record
SF:/usr/include/boost/smart_ptr/detail/sp_counted_base_gcc_x86.hpp
FN:35,_ZN5boost6detail23atomic_exchange_and_addEPii
FN:55,_ZN5boost6detail16atomic_incrementEPi
FN:132,_ZN5boost6detail15sp_counted_base12add_ref_copyEv
FN:142,_ZN5boost6detail15sp_counted_base7releaseEv
FN:156,_ZN5boost6detail15sp_counted_base12weak_releaseEv
FNDA:88,_ZN5boost6detail23atomic_exchange_and_addEPii
FNDA:79,_ZN5boost6detail16atomic_incrementEPi
FNDA:79,_ZN5boost6detail15sp_counted_base12add_ref_copyEv
FNDA:84,_ZN5boost6detail15sp_counted_base7releaseEv
FNDA:4,_ZN5boost6detail15sp_counted_base12weak_releaseEv
FNF:5
FNH:5
DA:35,88
DA:50,88
DA:52,88
DA:55,79
DA:66,79
DA:67,79
DA:132,79
DA:134,79
DA:135,79
DA:142,84
DA:144,84
DA:146,4
DA:147,4
DA:149,84
DA:156,4
DA:158,4
DA:160,4
DA:162,4
LF:18
LH:18
end_of_record
SF:/usr/include/boost/smart_ptr/shared_ptr.hpp
FN:251,_ZN5boost6detail21sp_assert_convertibleIN11sensor_msgs6Image_ISaIvEEEKS5_EEvv
FN:323,_ZN5boost10shared_ptrIN11sensor_msgs6Image_ISaIvEEEED2Ev
FN:323,_ZN5boost10shared_ptrIKN11sensor_msgs6Image_ISaIvEEEED2Ev
FN:323,_ZN5boost10shared_ptrIKvED2Ev
FN:334,_ZN5boost10shared_ptrIKvEC2Ev
FN:420,_ZN5boost10shared_ptrIKN11sensor_msgs6Image_ISaIvEEEEC2IS4_EERKNS0_IT_EENS_6detail24sp_enable_if_convertibleIS8_S5_E4typeE
FNDA:2,_ZN5boost6detail21sp_assert_convertibleIN11sensor_msgs6Image_ISaIvEEEKS5_EEvv
FNDA:2,_ZN5boost10shared_ptrIKN11sensor_msgs6Image_ISaIvEEEED2Ev
FNDA:2,_ZN5boost10shared_ptrIN11sensor_msgs6Image_ISaIvEEEED2Ev
FNDA:6039815,_ZN5boost10shared_ptrIKvED2Ev
FNDA:6039813,_ZN5boost10shared_ptrIKvEC2Ev
FNDA:2,_ZN5boost10shared_ptrIKN11sensor_msgs6Image_ISaIvEEEEC2IS4_EERKNS0_IT_EENS_6detail24sp_enable_if_convertibleIS8_S5_E4typeE
FNF:6
FNH:6
DA:251,2
DA:265,2
DA:323,6039819
DA:334,6039813
DA:336,6039813
DA:420,2
DA:427,2
DA:429,2
DA:430,2
LF:9
LH:9
end_of_record
SF:/usr/include/c++/5/bits/alloc_traits.h
FN:516,_ZNSt16allocator_traitsISaISt13_Rb_tree_nodeISt4pairIKNSt7__cxx1112basic_stringIcSt11char_traitsIcESaIcEEES7_EEEE10deallocateERSB_PSA_m
FN:541,_ZNSt16allocator_traitsISaISt13_Rb_tree_nodeISt4pairIKNSt7__cxx1112basic_stringIcSt11char_traitsIcESaIcEEES7_EEEE7destroyIS9_EEvRSB_PT_
FNDA:209,_ZNSt16allocator_traitsISaISt13_Rb_tree_nodeISt4pairIKNSt7__cxx1112basic_stringIcSt11char_traitsIcESaIcEEES7_EEEE10deallocateERSB_PSA_m
FNDA:209,_ZNSt16allocator_traitsISaISt13_Rb_tree_nodeISt4pairIKNSt7__cxx1112basic_stringIcSt11char_traitsIcESaIcEEES7_EEEE7destroyIS9_EEvRSB_PT_
FNF:2
FNH:2
DA:516,209
DA:517,209
DA:541,209
DA:542,209
LF:4
LH:4
end_of_record
SF:/usr/include/c++/5/bits/allocator.h
FN:113,_ZNSaISt13_Rb_tree_nodeISt4pairIKNSt7__cxx1112basic_stringIcSt11char_traitsIcESaIcEEES6_EEEC2Ev
FN:121,_ZNSaISt13_Rb_tree_nodeISt4pairIKNSt7__cxx1112basic_stringIcSt11char_traitsIcESaIcEEES6_EEED2Ev
FNDA:38,_ZNSaISt13_Rb_tree_nodeISt4pairIKNSt7__cxx1112basic_stringIcSt11char_traitsIcESaIcEEES6_EEEC2Ev
FNDA:38,_ZNSaISt13_Rb_tree_nodeISt4pairIKNSt7__cxx1112basic_stringIcSt11char_traitsIcESaIcEEES6_EEED2Ev
FNF:2
FNH:2
DA:113,38
DA:121,38
LF:2
LH:2
end_of_record
SF:/usr/include/c++/5/bits/ios_base.h
FN:129,_ZStorSt13_Ios_OpenmodeS_
FNDA:6039945,_ZStorSt13_Ios_OpenmodeS_
FNF:1
FNH:1
DA:129,6039945
DA:130,6039945
LF:2
LH:2
end_of_record
SF:/usr/include/c++/5/bits/stl_map.h
FN:96,_ZNSt3mapINSt7__cxx1112basic_stringIcSt11char_traitsIcESaIcEEES5_St4lessIS5_ESaISt4pairIKS5_S5_EEED2Ev
FN:162,_ZNSt3mapINSt7__cxx1112basic_stringIcSt11char_traitsIcESaIcEEES5_St4lessIS5_ESaISt4pairIKS5_S5_EEEC2Ev
FNDA:38,_ZNSt3mapINSt7__cxx1112basic_stringIcSt11char_traitsIcESaIcEEES5_St4lessIS5_ESaISt4pairIKS5_S5_EEED2Ev
FNDA:38,_ZNSt3mapINSt7__cxx1112basic_stringIcSt11char_traitsIcESaIcEEES5_St4lessIS5_ESaISt4pairIKS5_S5_EEEC2Ev
FNF:2
FNH:2
DA:96,38
DA:162,38
DA:166,38
LF:3
LH:3
end_of_record
SF:/usr/include/c++/5/bits/stl_pair.h
FN:96,_ZNSt4pairIKNSt7__cxx1112basic_stringIcSt11char_traitsIcESaIcEEES5_ED2Ev
FNDA:209,_ZNSt4pairIKNSt7__cxx1112basic_stringIcSt11char_traitsIcESaIcEEES5_ED2Ev
FNF:1
FNH:1
DA:96,209
LF:1
LH:1
end_of_record
SF:/usr/include/c++/5/bits/stl_tree.h
FN:152,_ZNSt13_Rb_tree_nodeISt4pairIKNSt7__cxx1112basic_stringIcSt11char_traitsIcESaIcEEES6_EE9_M_valptrEv
FN:477,_ZNSt8_Rb_treeINSt7__cxx1112basic_stringIcSt11char_traitsIcESaIcEEESt4pairIKS5_S5_ESt10_Select1stIS8_ESt4lessIS5_ESaIS8_EE21_M_get_Node_allocatorEv
FN:494,_ZNSt8_Rb_treeINSt7__cxx1112basic_stringIcSt11char_traitsIcESaIcEEESt4pairIKS5_S5_ESt10_Select1stIS8_ESt4lessIS5_ESaIS8_EE11_M_put_nodeEPSt13_Rb_tree_nodeIS8_E
FN:551,_ZNSt8_Rb_treeINSt7__cxx1112basic_stringIcSt11char_traitsIcESaIcEEESt4pairIKS5_S5_ESt10_Select1stIS8_ESt4lessIS5_ESaIS8_EE15_M_destroy_nodeEPSt13_Rb_tree_nodeIS8_E
FN:559,_ZNSt8_Rb_treeINSt7__cxx1112basic_stringIcSt11char_traitsIcESaIcEEESt4pairIKS5_S5_ESt10_Select1stIS8_ESt4lessIS5_ESaIS8_EE12_M_drop_nodeEPSt13_Rb_tree_nodeIS8_E
FN:580,_ZNSt8_Rb_treeINSt7__cxx1112basic_stringIcSt11char_traitsIcESaIcEEESt4pairIKS5_S5_ESt10_Select1stIS8_ESt4lessIS5_ESaIS8_EE13_Rb_tree_implISC_Lb1EED2Ev
FN:586,_ZNSt8_Rb_treeINSt7__cxx1112basic_stringIcSt11char_traitsIcESaIcEEESt4pairIKS5_S5_ESt10_Select1stIS8_ESt4lessIS5_ESaIS8_EE13_Rb_tree_implISC_Lb1EEC2Ev
FN:614,_ZNSt8_Rb_treeINSt7__cxx1112basic_stringIcSt11char_traitsIcESaIcEEESt4pairIKS5_S5_ESt10_Select1stIS8_ESt4lessIS5_ESaIS8_EE13_Rb_tree_implISC_Lb1EE13_M_initializeEv
FN:651,_ZNSt8_Rb_treeINSt7__cxx1112basic_stringIcSt11char_traitsIcESaIcEEESt4pairIKS5_S5_ESt10_Select1stIS8_ESt4lessIS5_ESaIS8_EE8_M_beginEv
FN:678,_ZNSt8_Rb_treeINSt7__cxx1112basic_stringIcSt11char_traitsIcESaIcEEESt4pairIKS5_S5_ESt10_Select1stIS8_ESt4lessIS5_ESaIS8_EE7_S_leftEPSt18_Rb_tree_node_base
FN:686,_ZNSt8_Rb_treeINSt7__cxx1112basic_stringIcSt11char_traitsIcESaIcEEESt4pairIKS5_S5_ESt10_Select1stIS8_ESt4lessIS5_ESaIS8_EE8_S_rightEPSt18_Rb_tree_node_base
FN:807,_ZNSt8_Rb_treeINSt7__cxx1112basic_stringIcSt11char_traitsIcESaIcEEESt4pairIKS5_S5_ESt10_Select1stIS8_ESt4lessIS5_ESaIS8_EEC2Ev
FN:857,_ZNSt8_Rb_treeINSt7__cxx1112basic_stringIcSt11char_traitsIcESaIcEEESt4pairIKS5_S5_ESt10_Select1stIS8_ESt4lessIS5_ESaIS8_EED2Ev
FN:1606,_ZNSt8_Rb_treeINSt7__cxx1112basic_stringIcSt11char_traitsIcESaIcEEESt4pairIKS5_S5_ESt10_Select1stIS8_ESt4lessIS5_ESaIS8_EE8_M_eraseEPSt13_Rb_tree_nodeIS8_E
FNDA:209,_ZNSt13_Rb_tree_nodeISt4pairIKNSt7__cxx1112basic_stringIcSt11char_traitsIcESaIcEEES6_EE9_M_valptrEv
FNDA:418,_ZNSt8_Rb_treeINSt7__cxx1112basic_stringIcSt11char_traitsIcESaIcEEESt4pairIKS5_S5_ESt10_Select1stIS8_ESt4lessIS5_ESaIS8_EE21_M_get_Node_allocatorEv
FNDA:209,_ZNSt8_Rb_treeINSt7__cxx1112basic_stringIcSt11char_traitsIcESaIcEEESt4pairIKS5_S5_ESt10_Select1stIS8_ESt4lessIS5_ESaIS8_EE11_M_put_nodeEPSt13_Rb_tree_nodeIS8_E
FNDA:209,_ZNSt8_Rb_treeINSt7__cxx1112basic_stringIcSt11char_traitsIcESaIcEEESt4pairIKS5_S5_ESt10_Select1stIS8_ESt4lessIS5_ESaIS8_EE15_M_destroy_nodeEPSt13_Rb_tree_nodeIS8_E
FNDA:209,_ZNSt8_Rb_treeINSt7__cxx1112basic_stringIcSt11char_traitsIcESaIcEEESt4pairIKS5_S5_ESt10_Select1stIS8_ESt4lessIS5_ESaIS8_EE12_M_drop_nodeEPSt13_Rb_tree_nodeIS8_E
FNDA:38,_ZNSt8_Rb_treeINSt7__cxx1112basic_stringIcSt11char_traitsIcESaIcEEESt4pairIKS5_S5_ESt10_Select1stIS8_ESt4lessIS5_ESaIS8_EE13_Rb_tree_implISC_Lb1EED2Ev
FNDA:38,_ZNSt8_Rb_treeINSt7__cxx1112basic_stringIcSt11char_traitsIcESaIcEEESt4pairIKS5_S5_ESt10_Select1stIS8_ESt4lessIS5_ESaIS8_EE13_Rb_tree_implISC_Lb1EEC2Ev
FNDA:38,_ZNSt8_Rb_treeINSt7__cxx1112basic_stringIcSt11char_traitsIcESaIcEEESt4pairIKS5_S5_ESt10_Select1stIS8_ESt4lessIS5_ESaIS8_EE13_Rb_tree_implISC_Lb1EE13_M_initializeEv
FNDA:38,_ZNSt8_Rb_treeINSt7__cxx1112basic_stringIcSt11char_traitsIcESaIcEEESt4pairIKS5_S5_ESt10_Select1stIS8_ESt4lessIS5_ESaIS8_EE8_M_beginEv
FNDA:209,_ZNSt8_Rb_treeINSt7__cxx1112basic_stringIcSt11char_traitsIcESaIcEEESt4pairIKS5_S5_ESt10_Select1stIS8_ESt4lessIS5_ESaIS8_EE7_S_leftEPSt18_Rb_tree_node_base
FNDA:209,_ZNSt8_Rb_treeINSt7__cxx1112basic_stringIcSt11char_traitsIcESaIcEEESt4pairIKS5_S5_ESt10_Select1stIS8_ESt4lessIS5_ESaIS8_EE8_S_rightEPSt18_Rb_tree_node_base
FNDA:38,_ZNSt8_Rb_treeINSt7__cxx1112basic_stringIcSt11char_traitsIcESaIcEEESt4pairIKS5_S5_ESt10_Select1stIS8_ESt4lessIS5_ESaIS8_EEC2Ev
FNDA:38,_ZNSt8_Rb_treeINSt7__cxx1112basic_stringIcSt11char_traitsIcESaIcEEESt4pairIKS5_S5_ESt10_Select1stIS8_ESt4lessIS5_ESaIS8_EED2Ev
FNDA:466,_ZNSt8_Rb_treeINSt7__cxx1112basic_stringIcSt11char_traitsIcESaIcEEESt4pairIKS5_S5_ESt10_Select1stIS8_ESt4lessIS5_ESaIS8_EE8_M_eraseEPSt13_Rb_tree_nodeIS8_E
FNF:14
FNH:14
DA:152,209
DA:153,209
DA:477,418
DA:478,418
DA:494,209
DA:495,209
DA:551,209
DA:553,209
DA:555,209
DA:559,209
DA:561,209
DA:562,209
DA:563,209
DA:580,38
DA:586,38
DA:588,38
DA:589,38
DA:614,38
DA:616,38
DA:617,38
DA:618,38
DA:619,38
DA:620,38
DA:651,38
DA:652,38
DA:678,209
DA:679,209
DA:686,209
DA:687,209
DA:807,38
DA:857,38
DA:858,38
DA:1606,675
DA:1610,884
DA:1612,209
DA:1613,209
DA:1614,209
DA:1615,209
DA:1617,466
LF:39
LH:39
end_of_record
SF:/usr/include/c++/5/ext/aligned_buffer.h
FN:62,_ZN9__gnu_cxx16__aligned_membufISt4pairIKNSt7__cxx1112basic_stringIcSt11char_traitsIcESaIcEEES7_EE7_M_addrEv
FN:70,_ZN9__gnu_cxx16__aligned_membufISt4pairIKNSt7__cxx1112basic_stringIcSt11char_traitsIcESaIcEEES7_EE6_M_ptrEv
FNDA:209,_ZN9__gnu_cxx16__aligned_membufISt4pairIKNSt7__cxx1112basic_stringIcSt11char_traitsIcESaIcEEES7_EE7_M_addrEv
FNDA:209,_ZN9__gnu_cxx16__aligned_membufISt4pairIKNSt7__cxx1112basic_stringIcSt11char_traitsIcESaIcEEES7_EE6_M_ptrEv
FNF:2
FNH:2
DA:62,209
DA:63,209
DA:70,209
DA:71,209
LF:4
LH:4
end_of_record
SF:/usr/include/c++/5/ext/new_allocator.h
FN:79,_ZN9__gnu_cxx13new_allocatorISt13_Rb_tree_nodeISt4pairIKNSt7__cxx1112basic_stringIcSt11char_traitsIcESaIcEEES8_EEEC2Ev
FN:86,_ZN9__gnu_cxx13new_allocatorISt13_Rb_tree_nodeISt4pairIKNSt7__cxx1112basic_stringIcSt11char_traitsIcESaIcEEES8_EEED2Ev
FN:109,_ZN9__gnu_cxx13new_allocatorISt13_Rb_tree_nodeISt4pairIKNSt7__cxx1112basic_stringIcSt11char_traitsIcESaIcEEES8_EEE10deallocateEPSB_m
FN:124,_ZN9__gnu_cxx13new_allocatorISt13_Rb_tree_nodeISt4pairIKNSt7__cxx1112basic_stringIcSt11char_traitsIcESaIcEEES8_EEE7destroyISA_EEvPT_
FNDA:38,_ZN9__gnu_cxx13new_allocatorISt13_Rb_tree_nodeISt4pairIKNSt7__cxx1112basic_stringIcSt11char_traitsIcESaIcEEES8_EEEC2Ev
FNDA:38,_ZN9__gnu_cxx13new_allocatorISt13_Rb_tree_nodeISt4pairIKNSt7__cxx1112basic_stringIcSt11char_traitsIcESaIcEEES8_EEED2Ev
FNDA:209,_ZN9__gnu_cxx13new_allocatorISt13_Rb_tree_nodeISt4pairIKNSt7__cxx1112basic_stringIcSt11char_traitsIcESaIcEEES8_EEE10deallocateEPSB_m
FNDA:209,_ZN9__gnu_cxx13new_allocatorISt13_Rb_tree_nodeISt4pairIKNSt7__cxx1112basic_stringIcSt11char_traitsIcESaIcEEES8_EEE7destroyISA_EEvPT_
FNF:4
FNH:4
DA:79,38
DA:86,38
DA:109,209
DA:110,209
DA:124,209
LF:5
LH:5
end_of_record
SF:/usr/include/c++/5/iostream
DA:74,1
LF:1
LH:1
end_of_record
SF:/usr/include/c++/5/new
FN:129,_ZnwmPv
FNDA:6040557,_ZnwmPv
FNF:1
FNH:1
DA:129,6040557
DA:130,6040557
LF:2
LH:2
end_of_record
SF:/usr/include/gtest/gtest-message.h
FN:85,_ZN7testing7MessageD2Ev
FN:115,_ZN7testing7MessagelsIA7_cEERS0_RKT_
FN:115,_ZN7testing7MessagelsIA5_cEERS0_RKT_
FN:115,_ZN7testing7MessagelsIA12_cEERS0_RKT_
FN:115,_ZN7testing7MessagelsINSt7__cxx1112basic_stringIcSt11char_traitsIcESaIcEEEEERS0_RKT_
FN:115,_ZN7testing7MessagelsIA6_cEERS0_RKT_
FN:149,_ZN7testing7MessagelsIKcEERS0_RKPT_
FNDA:227,_ZN7testing7MessageD2Ev
FNDA:0,_ZN7testing7MessagelsIA6_cEERS0_RKT_
FNDA:0,_ZN7testing7MessagelsIA5_cEERS0_RKT_
FNDA:0,_ZN7testing7MessagelsINSt7__cxx1112basic_stringIcSt11char_traitsIcESaIcEEEEERS0_RKT_
FNDA:15,_ZN7testing7MessagelsIA7_cEERS0_RKT_
FNDA:0,_ZN7testing7MessagelsIA12_cEERS0_RKT_
FNDA:15,_ZN7testing7MessagelsIKcEERS0_RKPT_
FNF:7
FNH:3
DA:85,227
DA:115,15
DA:131,15
DA:132,15
DA:149,15
DA:150,15
DA:151,0
DA:153,15
DA:155,15
LF:9
LH:8
end_of_record
SF:/usr/include/gtest/gtest-printers.h
FN:218,_ZN16testing_internal26DefaultPrintNonContainerToIdEEvRKT_PSo
FN:218,_ZN16testing_internal26DefaultPrintNonContainerToIiEEvRKT_PSo
FN:335,_ZN7testing8internal14DefaultPrintToIiEEvcNS0_13bool_constantILb0EEERKT_PSo
FN:335,_ZN7testing8internal14DefaultPrintToIdEEvcNS0_13bool_constantILb0EEERKT_PSo
FN:353,_ZN7testing8internal7PrintToIiEEvRKT_PSo
FN:353,_ZN7testing8internal7PrintToIdEEvRKT_PSo
FN:591,_ZN7testing8internal16UniversalPrinterIdE5PrintERKdPSo
FN:591,_ZN7testing8internal16UniversalPrinterIiE5PrintERKiPSo
FN:683,_ZN7testing8internal21UniversalTersePrinterIdE5PrintERKdPSo
FN:683,_ZN7testing8internal21UniversalTersePrinterIiE5PrintERKiPSo
FN:752,_ZN7testing8internal14UniversalPrintIdEEvRKT_PSo
FN:752,_ZN7testing8internal14UniversalPrintIiEEvRKT_PSo
FN:847,_ZN7testing13PrintToStringIdEENSt7__cxx1112basic_stringIcSt11char_traitsIcESaIcEEERKT_
FN:847,_ZN7testing13PrintToStringIiEENSt7__cxx1112basic_stringIcSt11char_traitsIcESaIcEEERKT_
FNDA:0,_ZN16testing_internal26DefaultPrintNonContainerToIdEEvRKT_PSo
FNDA:0,_ZN16testing_internal26DefaultPrintNonContainerToIiEEvRKT_PSo
FNDA:0,_ZN7testing8internal14DefaultPrintToIdEEvcNS0_13bool_constantILb0EEERKT_PSo
FNDA:0,_ZN7testing8internal14DefaultPrintToIiEEvcNS0_13bool_constantILb0EEERKT_PSo
FNDA:0,_ZN7testing8internal7PrintToIdEEvRKT_PSo
FNDA:0,_ZN7testing8internal7PrintToIiEEvRKT_PSo
FNDA:0,_ZN7testing8internal16UniversalPrinterIdE5PrintERKdPSo
FNDA:0,_ZN7testing8internal16UniversalPrinterIiE5PrintERKiPSo
FNDA:0,_ZN7testing8internal21UniversalTersePrinterIdE5PrintERKdPSo
FNDA:0,_ZN7testing8internal21UniversalTersePrinterIiE5PrintERKiPSo
FNDA:0,_ZN7testing8internal14UniversalPrintIdEEvRKT_PSo
FNDA:0,_ZN7testing8internal14UniversalPrintIiEEvRKT_PSo
FNDA:0,_ZN7testing13PrintToStringIdEENSt7__cxx1112basic_stringIcSt11char_traitsIcESaIcEEERKT_
FNDA:0,_ZN7testing13PrintToStringIiEENSt7__cxx1112basic_stringIcSt11char_traitsIcESaIcEEERKT_
FNF:14
FNH:0
DA:218,0
DA:245,0
DA:246,0
DA:335,0
DA:338,0
DA:339,0
DA:353,0
DA:376,0
DA:377,0
DA:591,0
DA:600,0
DA:601,0
DA:683,0
DA:684,0
DA:685,0
DA:752,0
DA:756,0
DA:757,0
DA:847,0
DA:848,0
DA:849,0
DA:850,0
LF:22
LH:0
end_of_record
SF:/usr/include/gtest/gtest.h
FN:256,_ZN7testing15AssertionResultD2Ev
FN:265,_ZNK7testing15AssertionResultcvbEv
FN:274,_ZNK7testing15AssertionResult7messageEv
FN:279,_ZNK7testing15AssertionResult15failure_messageEv
FN:282,_ZN7testing15AssertionResultlsIA12_cEERS0_RKT_
FN:282,_ZN7testing15AssertionResultlsINSt7__cxx1112basic_stringIcSt11char_traitsIcESaIcEEEEERS0_RKT_
FN:282,_ZN7testing15AssertionResultlsIA6_cEERS0_RKT_
FN:282,_ZN7testing15AssertionResultlsIPKcEERS0_RKT_
FN:282,_ZN7testing15AssertionResultlsIA5_cEERS0_RKT_
FN:282,_ZN7testing15AssertionResultlsIA7_cEERS0_RKT_
FN:297,_ZN7testing15AssertionResult13AppendMessageERKNS_7MessageE
FN:365,_ZN7testing4Test13SetUpTestCaseEv
FN:373,_ZN7testing4Test16TearDownTestCaseEv
FN:451,_ZN7testing4Test5SetupEv
FN:1357,_ZN7testing8internal19FormatForComparisonIdiE6FormatERKd
FN:1357,_ZN7testing8internal19FormatForComparisonIddE6FormatERKd
FN:1357,_ZN7testing8internal19FormatForComparisonIiiE6FormatERKi
FN:1357,_ZN7testing8internal19FormatForComparisonIidE6FormatERKi
FN:1431,_ZN7testing8internal33FormatForComparisonFailureMessageIidEENSt7__cxx1112basic_stringIcSt11char_traitsIcESaIcEEERKT_RKT0_
FN:1431,_ZN7testing8internal33FormatForComparisonFailureMessageIddEENSt7__cxx1112basic_stringIcSt11char_traitsIcESaIcEEERKT_RKT0_
FN:1431,_ZN7testing8internal33FormatForComparisonFailureMessageIiiEENSt7__cxx1112basic_stringIcSt11char_traitsIcESaIcEEERKT_RKT0_
FN:1431,_ZN7testing8internal33FormatForComparisonFailureMessageIdiEENSt7__cxx1112basic_stringIcSt11char_traitsIcESaIcEEERKT_RKT0_
FN:1438,_ZN7testing8internal11CmpHelperEQIddEENS_15AssertionResultEPKcS4_RKT_RKT0_
FN:1438,_ZN7testing8internal11CmpHelperEQIdiEENS_15AssertionResultEPKcS4_RKT_RKT0_
FN:1480,_ZN7testing8internal8EqHelperILb0EE7CompareIddEENS_15AssertionResultEPKcS6_RKT_RKT0_
FN:1480,_ZN7testing8internal8EqHelperILb0EE7CompareIdiEENS_15AssertionResultEPKcS6_RKT_RKT0_
FN:1577,_ZN7testing8internal11CmpHelperNEIiiEENS_15AssertionResultEPKcS4_RKT_RKT0_
FN:1577,_ZN7testing8internal11CmpHelperNEIidEENS_15AssertionResultEPKcS4_RKT_RKT0_
FN:1581,_ZN7testing8internal11CmpHelperLTIdiEENS_15AssertionResultEPKcS4_RKT_RKT0_
FN:1585,_ZN7testing8internal11CmpHelperGTIdiEENS_15AssertionResultEPKcS4_RKT_RKT0_
FNDA:20,_ZN7testing15AssertionResultD2Ev
FNDA:20,_ZNK7testing15AssertionResultcvbEv
FNDA:0,_ZNK7testing15AssertionResult7messageEv
FNDA:0,_ZNK7testing15AssertionResult15failure_messageEv
FNDA:0,_ZN7testing15AssertionResultlsIA6_cEERS0_RKT_
FNDA:0,_ZN7testing15AssertionResultlsIA5_cEERS0_RKT_
FNDA:0,_ZN7testing15AssertionResultlsINSt7__cxx1112basic_stringIcSt11char_traitsIcESaIcEEEEERS0_RKT_
FNDA:0,_ZN7testing15AssertionResultlsIA7_cEERS0_RKT_
FNDA:0,_ZN7testing15AssertionResultlsIPKcEERS0_RKT_
FNDA:0,_ZN7testing15AssertionResultlsIA12_cEERS0_RKT_
FNDA:0,_ZN7testing15AssertionResult13AppendMessageERKNS_7MessageE
FNDA:7,_ZN7testing4Test13SetUpTestCaseEv
FNDA:7,_ZN7testing4Test16TearDownTestCaseEv
FNDA:0,_ZN7testing4Test5SetupEv
FNDA:0,_ZN7testing8internal19FormatForComparisonIddE6FormatERKd
FNDA:0,_ZN7testing8internal19FormatForComparisonIidE6FormatERKi
FNDA:0,_ZN7testing8internal19FormatForComparisonIdiE6FormatERKd
FNDA:0,_ZN7testing8internal19FormatForComparisonIiiE6FormatERKi
FNDA:0,_ZN7testing8internal33FormatForComparisonFailureMessageIddEENSt7__cxx1112basic_stringIcSt11char_traitsIcESaIcEEERKT_RKT0_
FNDA:0,_ZN7testing8internal33FormatForComparisonFailureMessageIidEENSt7__cxx1112basic_stringIcSt11char_traitsIcESaIcEEERKT_RKT0_
FNDA:0,_ZN7testing8internal33FormatForComparisonFailureMessageIdiEENSt7__cxx1112basic_stringIcSt11char_traitsIcESaIcEEERKT_RKT0_
FNDA:0,_ZN7testing8internal33FormatForComparisonFailureMessageIiiEENSt7__cxx1112basic_stringIcSt11char_traitsIcESaIcEEERKT_RKT0_
FNDA:3,_ZN7testing8internal11CmpHelperEQIdiEENS_15AssertionResultEPKcS4_RKT_RKT0_
FNDA:5,_ZN7testing8internal11CmpHelperEQIddEENS_15AssertionResultEPKcS4_RKT_RKT0_
FNDA:3,_ZN7testing8internal8EqHelperILb0EE7CompareIdiEENS_15AssertionResultEPKcS6_RKT_RKT0_
FNDA:5,_ZN7testing8internal8EqHelperILb0EE7CompareIddEENS_15AssertionResultEPKcS6_RKT_RKT0_
FNDA:1,_ZN7testing8internal11CmpHelperNEIidEENS_15AssertionResultEPKcS4_RKT_RKT0_
FNDA:1,_ZN7testing8internal11CmpHelperNEIiiEENS_15AssertionResultEPKcS4_RKT_RKT0_
FNDA:1,_ZN7testing8internal11CmpHelperLTIdiEENS_15AssertionResultEPKcS4_RKT_RKT0_
FNDA:1,_ZN7testing8internal11CmpHelperGTIdiEENS_15AssertionResultEPKcS4_RKT_RKT0_
FNF:30
FNH:12
DA:256,20
DA:265,20
DA:274,0
DA:275,0
DA:279,0
DA:282,0
DA:283,0
DA:284,0
DA:297,0
DA:298,0
DA:299,0
DA:300,0
DA:301,0
DA:365,7
DA:373,7
DA:451,0
DA:1357,0
DA:1358,0
DA:1431,0
DA:1433,0
DA:1438,8
DA:1448,8
DA:1449,8
DA:1460,0
DA:1480,8
DA:1485,8
DA:1577,2
DA:1581,1
DA:1585,1
LF:29
LH:12
end_of_record
SF:/usr/include/gtest/internal/gtest-internal.h
FN:436,_ZN7testing8internal15TestFactoryBaseD0Ev
FN:436,_ZN7testing8internal15TestFactoryBaseD2Ev
FN:443,_ZN7testing8internal15TestFactoryBaseC2Ev
FN:452,_ZN7testing8internal15TestFactoryImplI37LaneDetect_Server_Existance_Test_TestED2Ev
FN:452,_ZN7testing8internal15TestFactoryImplI30LaneDetect_Image_callback_TestEC2Ev
FN:452,_ZN7testing8internal15TestFactoryImplI37LaneDetect_Server_Existance_Test_TestED0Ev
FN:452,_ZN7testing8internal15TestFactoryImplI32LaneDetect_Image_processing_TestED0Ev
FN:452,_ZN7testing8internal15TestFactoryImplI32LaneDetect_Image_processing_TestEC2Ev
FN:452,_ZN7testing8internal15TestFactoryImplI32LaneDetect_Image_processing_TestED2Ev
FN:452,_ZN7testing8internal15TestFactoryImplI30LaneDetect_Image_callback_TestED0Ev
FN:452,_ZN7testing8internal15TestFactoryImplI37LaneDetect_Server_Existance_Test_TestEC2Ev
FN:452,_ZN7testing8internal15TestFactoryImplI30LaneDetect_Image_callback_TestED2Ev
FN:454,_ZN7testing8internal15TestFactoryImplI37LaneDetect_Server_Existance_Test_TestE10CreateTestEv
FN:454,_ZN7testing8internal15TestFactoryImplI32LaneDetect_Image_processing_TestE10CreateTestEv
FN:454,_ZN7testing8internal15TestFactoryImplI30LaneDetect_Image_callback_TestE10CreateTestEv
FN:869,_ZN7testing8internal15IsContainerTestIdEEcl
FN:869,_ZN7testing8internal15IsContainerTestIiEEcl
FNDA:0,_ZN7testing8internal15TestFactoryBaseD0Ev
FNDA:14,_ZN7testing8internal15TestFactoryBaseD2Ev
FNDA:14,_ZN7testing8internal15TestFactoryBaseC2Ev
FNDA:1,_ZN7testing8internal15TestFactoryImplI37LaneDetect_Server_Existance_Test_TestED0Ev
FNDA:1,_ZN7testing8internal15TestFactoryImplI37LaneDetect_Server_Existance_Test_TestED2Ev
FNDA:1,_ZN7testing8internal15TestFactoryImplI32LaneDetect_Image_processing_TestED0Ev
FNDA:1,_ZN7testing8internal15TestFactoryImplI32LaneDetect_Image_processing_TestED2Ev
FNDA:1,_ZN7testing8internal15TestFactoryImplI30LaneDetect_Image_callback_TestED0Ev
FNDA:1,_ZN7testing8internal15TestFactoryImplI30LaneDetect_Image_callback_TestED2Ev
FNDA:1,_ZN7testing8internal15TestFactoryImplI30LaneDetect_Image_callback_TestEC2Ev
FNDA:1,_ZN7testing8internal15TestFactoryImplI32LaneDetect_Image_processing_TestEC2Ev
FNDA:1,_ZN7testing8internal15TestFactoryImplI37LaneDetect_Server_Existance_Test_TestEC2Ev
FNDA:1,_ZN7testing8internal15TestFactoryImplI37LaneDetect_Server_Existance_Test_TestE10CreateTestEv
FNDA:1,_ZN7testing8internal15TestFactoryImplI32LaneDetect_Image_processing_TestE10CreateTestEv
FNDA:1,_ZN7testing8internal15TestFactoryImplI30LaneDetect_Image_callback_TestE10CreateTestEv
FNDA:0,_ZN7testing8internal15IsContainerTestIdEEcl
FNDA:0,_ZN7testing8internal15IsContainerTestIiEEcl
FNF:17
FNH:14
DA:436,14
DA:443,14
DA:452,9
DA:454,3
DA:869,0
LF:5
LH:4
end_of_record
SF:/usr/include/gtest/internal/gtest-port.h
FN:898,_ZN7testing8internal10scoped_ptrINSt7__cxx1112basic_stringIcSt11char_traitsIcESaIcEEEED2Ev
FN:898,_ZN7testing8internal10scoped_ptrINSt7__cxx1118basic_stringstreamIcSt11char_traitsIcESaIcEEEED2Ev
FN:900,_ZNK7testing8internal10scoped_ptrINSt7__cxx1118basic_stringstreamIcSt11char_traitsIcESaIcEEEEdeEv
FN:901,_ZNK7testing8internal10scoped_ptrINSt7__cxx1112basic_stringIcSt11char_traitsIcESaIcEEEEptEv
FN:902,_ZNK7testing8internal10scoped_ptrINSt7__cxx1112basic_stringIcSt11char_traitsIcESaIcEEEE3getEv
FN:910,_ZN7testing8internal10scoped_ptrINSt7__cxx1112basic_stringIcSt11char_traitsIcESaIcEEEE5resetEPS7_
FN:910,_ZN7testing8internal10scoped_ptrINSt7__cxx1118basic_stringstreamIcSt11char_traitsIcESaIcEEEE5resetEPS7_
FNDA:20,_ZN7testing8internal10scoped_ptrINSt7__cxx1112basic_stringIcSt11char_traitsIcESaIcEEEED2Ev
FNDA:227,_ZN7testing8internal10scoped_ptrINSt7__cxx1118basic_stringstreamIcSt11char_traitsIcESaIcEEEED2Ev
FNDA:1316,_ZNK7testing8internal10scoped_ptrINSt7__cxx1118basic_stringstreamIcSt11char_traitsIcESaIcEEEEdeEv
FNDA:0,_ZNK7testing8internal10scoped_ptrINSt7__cxx1112basic_stringIcSt11char_traitsIcESaIcEEEEptEv
FNDA:0,_ZNK7testing8internal10scoped_ptrINSt7__cxx1112basic_stringIcSt11char_traitsIcESaIcEEEE3getEv
FNDA:227,_ZN7testing8internal10scoped_ptrINSt7__cxx1118basic_stringstreamIcSt11char_traitsIcESaIcEEEE5resetEPS7_
FNDA:20,_ZN7testing8internal10scoped_ptrINSt7__cxx1112basic_stringIcSt11char_traitsIcESaIcEEEE5resetEPS7_
FNF:7
FNH:5
DA:898,247
DA:900,1316
DA:901,0
DA:902,0
DA:910,247
DA:911,247
DA:912,227
DA:913,227
DA:915,227
DA:917,247
LF:10
LH:8
end_of_record
TN:
SF:/home/zach/catkin_ws/src/final_map_mobile/src/Navigation.cpp
FN:57,_ZN10NavigationC2Ev
FN:77,_ZN10NavigationD2Ev
FN:93,_ZN10Navigation12laneCallbackERKN5boost10shared_ptrIKN8std_msgs8Float32_ISaIvEEEEE
FN:113,_ZN10Navigation12signCallbackERKN5boost10shared_ptrIKN8std_msgs5Int8_ISaIvEEEEE
FN:151,_ZN10Navigation11getAngularVEv
FN:156,_ZN10Navigation10getLinearVEv
FN:159,_GLOBAL__sub_I__ZN10NavigationC2Ev
FN:159,_Z41__static_initialization_and_destruction_0ii
FNDA:2,_ZN10NavigationC2Ev
FNDA:2,_ZN10NavigationD2Ev
FNDA:28,_ZN10Navigation12laneCallbackERKN5boost10shared_ptrIKN8std_msgs8Float32_ISaIvEEEEE
FNDA:25,_ZN10Navigation12signCallbackERKN5boost10shared_ptrIKN8std_msgs5Int8_ISaIvEEEEE
FNDA:0,_ZN10Navigation11getAngularVEv
FNDA:0,_ZN10Navigation10getLinearVEv
FNDA:2,_GLOBAL__sub_I__ZN10NavigationC2Ev
FNDA:2,_Z41__static_initialization_and_destruction_0ii
FNF:8
FNH:6
DA:57,2
DA:58,2
DA:59,4
DA:61,2
DA:62,2
DA:63,2
DA:64,2
DA:65,2
DA:66,2
DA:67,2
DA:68,2
DA:77,4
DA:78,2
DA:79,2
DA:80,2
DA:81,2
DA:82,2
DA:83,2
DA:84,2
DA:93,28
DA:94,28
DA:95,28
DA:96,18
DA:97,18
DA:98,10
DA:99,10
DA:100,10
DA:102,0
DA:104,28
DA:105,28
DA:113,25
DA:114,25
DA:115,50
DA:117,25
DA:118,0
DA:119,0
DA:120,0
DA:121,0
DA:122,0
DA:123,0
DA:124,0
DA:125,0
DA:126,0
DA:128,0
DA:129,0
DA:131,0
DA:132,0
DA:133,0
DA:134,0
DA:135,0
DA:136,0
DA:140,25
DA:141,25
DA:142,25
DA:144,25
DA:151,0
DA:152,0
DA:153,0
DA:156,0
DA:157,0
DA:158,0
DA:159,6
LF:62
LH:38
end_of_record
SF:/opt/ros/kinetic/include/geometry_msgs/Twist.h
FN:28,_ZN13geometry_msgs6Twist_ISaIvEEC2Ev
FN:122,_ZN3ros14message_traits6MD5SumIN13geometry_msgs6Twist_ISaIvEEEE5valueEv
FN:127,_ZN3ros14message_traits6MD5SumIN13geometry_msgs6Twist_ISaIvEEEE5valueERKS5_
FN:135,_ZN3ros14message_traits8DataTypeIN13geometry_msgs6Twist_ISaIvEEEE5valueEv
FN:140,_ZN3ros14message_traits8DataTypeIN13geometry_msgs6Twist_ISaIvEEEE5valueERKS5_
FN:146,_ZN3ros14message_traits10DefinitionIN13geometry_msgs6Twist_ISaIvEEEE5valueEv
FN:180,_ZN3ros13serialization10SerializerIN13geometry_msgs6Twist_ISaIvEEEE8allInOneINS0_7OStreamERKS5_EEvRT_T0_
FN:180,_ZN3ros13serialization10SerializerIN13geometry_msgs6Twist_ISaIvEEEE8allInOneINS0_7LStreamERKS5_EEvRT_T0_
FN:186,_ZN3ros13serialization10SerializerIN13geometry_msgs6Twist_ISaIvEEEE5writeINS0_7OStreamES5_EEvRT_RKT0_
FN:186,_ZN3ros13serialization10SerializerIN13geometry_msgs6Twist_ISaIvEEEE16serializedLengthIS5_EEjRKT_
FNDA:2,_ZN13geometry_msgs6Twist_ISaIvEEC2Ev
FNDA:58,_ZN3ros14message_traits6MD5SumIN13geometry_msgs6Twist_ISaIvEEEE5valueEv
FNDA:56,_ZN3ros14message_traits6MD5SumIN13geometry_msgs6Twist_ISaIvEEEE5valueERKS5_
FNDA:2,_ZN3ros14message_traits8DataTypeIN13geometry_msgs6Twist_ISaIvEEEE5valueEv
FNDA:0,_ZN3ros14message_traits8DataTypeIN13geometry_msgs6Twist_ISaIvEEEE5valueERKS5_
FNDA:2,_ZN3ros14message_traits10DefinitionIN13geometry_msgs6Twist_ISaIvEEEE5valueEv
FNDA:28,_ZN3ros13serialization10SerializerIN13geometry_msgs6Twist_ISaIvEEEE8allInOneINS0_7OStreamERKS5_EEvRT_T0_
FNDA:28,_ZN3ros13serialization10SerializerIN13geometry_msgs6Twist_ISaIvEEEE8allInOneINS0_7LStreamERKS5_EEvRT_T0_
FNDA:28,_ZN3ros13serialization10SerializerIN13geometry_msgs6Twist_ISaIvEEEE5writeINS0_7OStreamES5_EEvRT_RKT0_
FNDA:28,_ZN3ros13serialization10SerializerIN13geometry_msgs6Twist_ISaIvEEEE16serializedLengthIS5_EEjRKT_
FNF:10
FNH:9
DA:28,2
DA:30,2
DA:31,2
DA:122,58
DA:124,58
DA:127,56
DA:135,2
DA:137,2
DA:140,0
DA:146,2
DA:148,2
DA:180,56
DA:182,56
DA:183,56
DA:184,56
DA:186,56
LF:16
LH:15
end_of_record
SF:/opt/ros/kinetic/include/geometry_msgs/Vector3.h
FN:26,_ZN13geometry_msgs8Vector3_ISaIvEEC2Ev
FN:177,_ZN3ros13serialization10SerializerIN13geometry_msgs8Vector3_ISaIvEEEE8allInOneINS0_7LStreamERKS5_EEvRT_T0_
FN:177,_ZN3ros13serialization10SerializerIN13geometry_msgs8Vector3_ISaIvEEEE8allInOneINS0_7OStreamERKS5_EEvRT_T0_
FN:184,_ZN3ros13serialization10SerializerIN13geometry_msgs8Vector3_ISaIvEEEE5writeINS0_7OStreamES5_EEvRT_RKT0_
FN:184,_ZN3ros13serialization10SerializerIN13geometry_msgs8Vector3_ISaIvEEEE16serializedLengthIS5_EEjRKT_
FNDA:4,_ZN13geometry_msgs8Vector3_ISaIvEEC2Ev
FNDA:56,_ZN3ros13serialization10SerializerIN13geometry_msgs8Vector3_ISaIvEEEE8allInOneINS0_7OStreamERKS5_EEvRT_T0_
FNDA:56,_ZN3ros13serialization10SerializerIN13geometry_msgs8Vector3_ISaIvEEEE8allInOneINS0_7LStreamERKS5_EEvRT_T0_
FNDA:56,_ZN3ros13serialization10SerializerIN13geometry_msgs8Vector3_ISaIvEEEE5writeINS0_7OStreamES5_EEvRT_RKT0_
FNDA:56,_ZN3ros13serialization10SerializerIN13geometry_msgs8Vector3_ISaIvEEEE16serializedLengthIS5_EEjRKT_
FNF:5
FNH:5
DA:26,4
DA:29,4
DA:30,4
DA:177,112
DA:179,112
DA:180,112
DA:181,112
DA:182,112
DA:184,112
LF:9
LH:9
end_of_record
SF:/opt/ros/kinetic/include/ros/advertise_options.h
FN:41,_ZN3ros16AdvertiseOptionsD2Ev
FN:43,_ZN3ros16AdvertiseOptionsC2Ev
FN:84,_ZN3ros16AdvertiseOptions4initIN13geometry_msgs6Twist_ISaIvEEEEEvRKNSt7__cxx1112basic_stringIcSt11char_traitsIcESaIcEEEjRKN5boost8functionIFvRKNS_25SingleSubscriberPublisherEEEESM_
FNDA:6,_ZN3ros16AdvertiseOptionsD2Ev
FNDA:6,_ZN3ros16AdvertiseOptionsC2Ev
FNDA:2,_ZN3ros16AdvertiseOptions4initIN13geometry_msgs6Twist_ISaIvEEEEEvRKNSt7__cxx1112basic_stringIcSt11char_traitsIcESaIcEEEjRKN5boost8functionIFvRKNS_25SingleSubscriberPublisherEEEESM_
FNF:3
FNH:3
DA:41,6
DA:43,6
DA:45,6
DA:47,6
DA:84,2
DA:88,2
DA:89,2
DA:90,2
DA:91,2
DA:92,2
DA:93,2
DA:94,2
DA:95,2
DA:96,2
LF:14
LH:14
end_of_record
SF:/opt/ros/kinetic/include/ros/duration.h
FN:76,_ZN3ros12DurationBaseINS_8DurationEEC2Ev
FN:79,_ZN3ros12DurationBaseINS_8DurationEED2Ev
FN:108,_ZN3ros8DurationD2Ev
FN:119,_ZN3ros8DurationC2Ed
FNDA:0,_ZN3ros12DurationBaseINS_8DurationEEC2Ev
FNDA:0,_ZN3ros12DurationBaseINS_8DurationEED2Ev
FNDA:0,_ZN3ros8DurationD2Ev
FNDA:0,_ZN3ros8DurationC2Ed
FNF:4
FNH:0
DA:76,0
DA:79,0
DA:108,0
DA:119,0
LF:4
LH:0
end_of_record
SF:/opt/ros/kinetic/include/ros/message_traits.h
FN:226,_ZN3ros14message_traits6md5sumIN13geometry_msgs6Twist_ISaIvEEEEEPKcv
FN:235,_ZN3ros14message_traits8datatypeIN13geometry_msgs6Twist_ISaIvEEEEEPKcv
FN:244,_ZN3ros14message_traits10definitionIN13geometry_msgs6Twist_ISaIvEEEEEPKcv
FN:253,_ZN3ros14message_traits6md5sumIN13geometry_msgs6Twist_ISaIvEEEEEPKcRKT_
FN:262,_ZN3ros14message_traits8datatypeIN13geometry_msgs6Twist_ISaIvEEEEEPKcRKT_
FN:352,_ZN3ros14message_traits9hasHeaderIN13geometry_msgs6Twist_ISaIvEEEEEbv
FNDA:2,_ZN3ros14message_traits6md5sumIN13geometry_msgs6Twist_ISaIvEEEEEPKcv
FNDA:2,_ZN3ros14message_traits8datatypeIN13geometry_msgs6Twist_ISaIvEEEEEPKcv
FNDA:2,_ZN3ros14message_traits10definitionIN13geometry_msgs6Twist_ISaIvEEEEEPKcv
FNDA:56,_ZN3ros14message_traits6md5sumIN13geometry_msgs6Twist_ISaIvEEEEEPKcRKT_
FNDA:0,_ZN3ros14message_traits8datatypeIN13geometry_msgs6Twist_ISaIvEEEEEPKcRKT_
FNDA:2,_ZN3ros14message_traits9hasHeaderIN13geometry_msgs6Twist_ISaIvEEEEEbv
FNF:6
FNH:5
DA:226,2
DA:228,2
DA:235,2
DA:237,2
DA:244,2
DA:246,2
DA:253,56
DA:255,56
DA:262,0
DA:264,0
DA:352,2
DA:354,2
LF:12
LH:10
end_of_record
SF:/opt/ros/kinetic/include/ros/node_handle.h
FN:249,_ZN3ros10NodeHandle9advertiseIN13geometry_msgs6Twist_ISaIvEEEEENS_9PublisherERKNSt7__cxx1112basic_stringIcSt11char_traitsIcESaIcEEEjb
FNDA:2,_ZN3ros10NodeHandle9advertiseIN13geometry_msgs6Twist_ISaIvEEEEENS_9PublisherERKNSt7__cxx1112basic_stringIcSt11char_traitsIcESaIcEEEjb
FNF:1
FNH:1
DA:249,2
DA:251,4
DA:252,2
DA:253,2
DA:254,4
LF:5
LH:5
end_of_record
SF:/opt/ros/kinetic/include/ros/publisher.h
FN:47,_ZN3ros9PublisheraSERKS0_
FN:50,_ZN3ros9PublisherC2Ev
FN:95,_ZNK3ros9Publisher7publishIN13geometry_msgs6Twist_ISaIvEEEEEvRKT_
FNDA:6,_ZN3ros9PublisheraSERKS0_
FNDA:6,_ZN3ros9PublisherC2Ev
FNDA:28,_ZNK3ros9Publisher7publishIN13geometry_msgs6Twist_ISaIvEEEEEvRKT_
FNF:3
FNH:3
DA:47,6
DA:50,6
DA:95,28
DA:100,28
DA:102,0
DA:103,0
DA:106,28
DA:108,0
DA:109,0
DA:112,28
DA:117,56
DA:118,28
LF:12
LH:8
end_of_record
SF:/opt/ros/kinetic/include/ros/rate.h
FN:51,_ZN3ros4RateD2Ev
FNDA:0,_ZN3ros4RateD2Ev
FNF:1
FNH:0
DA:51,0
LF:1
LH:0
end_of_record
SF:/opt/ros/kinetic/include/ros/serialization.h
FN:152,_ZN3ros13serialization9serializeIdNS0_7OStreamEEEvRT0_RKT_
FN:152,_ZN3ros13serialization9serializeIN13geometry_msgs8Vector3_ISaIvEEENS0_7OStreamEEEvRT0_RKT_
FN:152,_ZN3ros13serialization9serializeIN13geometry_msgs6Twist_ISaIvEEENS0_7OStreamEEEvRT0_RKT_
FN:152,_ZN3ros13serialization9serializeIjNS0_7OStreamEEEvRT0_RKT_
FN:170,_ZN3ros13serialization19serializationLengthIdEEjRKT_
FN:170,_ZN3ros13serialization19serializationLengthIN13geometry_msgs6Twist_ISaIvEEEEEjRKT_
FN:170,_ZN3ros13serialization19serializationLengthIN13geometry_msgs8Vector3_ISaIvEEEEEjRKT_
FN:198,_ZN3ros13serialization10SerializerIjE5writeINS0_7OStreamEEEvRT_j
FN:203,_ZN3ros13serialization10SerializerIdE5writeINS0_7OStreamEEEvRT_d
FN:203,_ZN3ros13serialization10SerializerIdE16serializedLengthERKd
FN:667,_ZN3ros13serialization6Stream7getDataEv
FN:692,_ZN3ros13serialization6StreamC2EPhj
FN:737,_ZN3ros13serialization7OStreamC2EPhj
FN:769,_ZN3ros13serialization7LStreamC2Ev
FN:795,_ZN3ros13serialization7LStream9getLengthEv
FN:805,_ZN3ros13serialization16serializeMessageIN13geometry_msgs6Twist_ISaIvEEEEENS_17SerializedMessageERKT_
FNDA:168,_ZN3ros13serialization9serializeIdNS0_7OStreamEEEvRT0_RKT_
FNDA:56,_ZN3ros13serialization9serializeIN13geometry_msgs8Vector3_ISaIvEEENS0_7OStreamEEEvRT0_RKT_
FNDA:28,_ZN3ros13serialization9serializeIN13geometry_msgs6Twist_ISaIvEEENS0_7OStreamEEEvRT0_RKT_
FNDA:116,_ZN3ros13serialization9serializeIjNS0_7OStreamEEEvRT0_RKT_
FNDA:168,_ZN3ros13serialization19serializationLengthIdEEjRKT_
FNDA:56,_ZN3ros13serialization19serializationLengthIN13geometry_msgs8Vector3_ISaIvEEEEEjRKT_
FNDA:28,_ZN3ros13serialization19serializationLengthIN13geometry_msgs6Twist_ISaIvEEEEEjRKT_
FNDA:116,_ZN3ros13serialization10SerializerIjE5writeINS0_7OStreamEEEvRT_j
FNDA:168,_ZN3ros13serialization10SerializerIdE5writeINS0_7OStreamEEEvRT_d
FNDA:168,_ZN3ros13serialization10SerializerIdE16serializedLengthERKd
FNDA:116,_ZN3ros13serialization6Stream7getDataEv
FNDA:0,_ZN3ros13serialization6StreamC2EPhj
FNDA:116,_ZN3ros13serialization7OStreamC2EPhj
FNDA:172,_ZN3ros13serialization7LStreamC2Ev
FNDA:172,_ZN3ros13serialization7LStream9getLengthEv
FNDA:28,_ZN3ros13serialization16serializeMessageIN13geometry_msgs6Twist_ISaIvEEEEENS_17SerializedMessageERKT_
FNF:16
FNH:15
DA:152,368
DA:154,368
DA:155,368
DA:170,252
DA:172,252
DA:198,232
DA:203,504
DA:667,116
DA:675,284
DA:676,284
DA:677,284
DA:681,0
DA:683,284
DA:692,0
DA:694,0
DA:695,0
DA:737,116
DA:738,116
DA:739,116
DA:747,224
DA:769,172
DA:770,172
DA:771,172
DA:779,224
DA:795,172
DA:805,28
DA:807,28
DA:808,28
DA:809,28
DA:810,28
DA:812,28
DA:813,28
DA:814,28
DA:815,28
DA:817,28
LF:35
LH:31
end_of_record
SF:/opt/ros/kinetic/include/ros/serialized_message.h
FN:39,_ZN3ros17SerializedMessageD2Ev
FN:49,_ZN3ros17SerializedMessageC2Ev
FNDA:117,_ZN3ros17SerializedMessageD2Ev
FNDA:233,_ZN3ros17SerializedMessageC2Ev
FNF:2
FNH:2
DA:39,117
DA:49,233
DA:53,233
DA:54,233
LF:4
LH:4
end_of_record
SF:/usr/include/boost/bind/arg.hpp
FN:31,_ZN5boost3argILi8EEC2Ev
FN:31,_ZN5boost3argILi1EEC2Ev
FN:31,_ZN5boost3argILi4EEC2Ev
FN:31,_ZN5boost3argILi7EEC2Ev
FN:31,_ZN5boost3argILi2EEC2Ev
FN:31,_ZN5boost3argILi3EEC2Ev
FN:31,_ZN5boost3argILi6EEC2Ev
FN:31,_ZN5boost3argILi9EEC2Ev
FN:31,_ZN5boost3argILi5EEC2Ev
FNDA:0,_ZN5boost3argILi9EEC2Ev
FNDA:0,_ZN5boost3argILi8EEC2Ev
FNDA:0,_ZN5boost3argILi7EEC2Ev
FNDA:0,_ZN5boost3argILi6EEC2Ev
FNDA:0,_ZN5boost3argILi5EEC2Ev
FNDA:0,_ZN5boost3argILi4EEC2Ev
FNDA:0,_ZN5boost3argILi3EEC2Ev
FNDA:0,_ZN5boost3argILi2EEC2Ev
FNDA:0,_ZN5boost3argILi1EEC2Ev
FNF:9
FNH:0
DA:31,0
DA:33,0
LF:2
LH:0
end_of_record
SF:/usr/include/boost/bind/bind.hpp
FN:146,_ZN5boost3_bi9unwrapperIPFN3ros17SerializedMessageERKN13geometry_msgs6Twist_ISaIvEEEEE6unwrapERSB_l
FN:168,_ZN5boost3_bi5list0C2Ev
FN:174,_ZNK5boost3_bi5list0ixIKN13geometry_msgs6Twist_ISaIvEEEEERT_RKNS_17reference_wrapperIS8_EE
FN:225,_ZN5boost3_bi5list1INS_17reference_wrapperIKN13geometry_msgs6Twist_ISaIvEEEEEEC2ES8_
FN:241,_ZN5boost3_bi5list1INS_17reference_wrapperIKN13geometry_msgs6Twist_ISaIvEEEEEEclIN3ros17SerializedMessageEPFSC_RS7_ENS0_5list0EEET_NS0_4typeISH_EERT0_RT1_l
FN:886,_ZN5boost3_bi6bind_tIN3ros17SerializedMessageEPFS3_RKN13geometry_msgs6Twist_ISaIvEEEENS0_5list1INS_17reference_wrapperIS8_EEEEEC2ESB_RKSF_
FN:890,_ZN5boost3_bi6bind_tIN3ros17SerializedMessageEPFS3_RKN13geometry_msgs6Twist_ISaIvEEEENS0_5list1INS_17reference_wrapperIS8_EEEEEclEv
FNDA:28,_ZN5boost3_bi9unwrapperIPFN3ros17SerializedMessageERKN13geometry_msgs6Twist_ISaIvEEEEE6unwrapERSB_l
FNDA:116,_ZN5boost3_bi5list0C2Ev
FNDA:28,_ZNK5boost3_bi5list0ixIKN13geometry_msgs6Twist_ISaIvEEEEERT_RKNS_17reference_wrapperIS8_EE
FNDA:28,_ZN5boost3_bi5list1INS_17reference_wrapperIKN13geometry_msgs6Twist_ISaIvEEEEEEC2ES8_
FNDA:28,_ZN5boost3_bi5list1INS_17reference_wrapperIKN13geometry_msgs6Twist_ISaIvEEEEEEclIN3ros17SerializedMessageEPFSC_RS7_ENS0_5list0EEET_NS0_4typeISH_EERT0_RT1_l
FNDA:28,_ZN5boost3_bi6bind_tIN3ros17SerializedMessageEPFS3_RKN13geometry_msgs6Twist_ISaIvEEEENS0_5list1INS_17reference_wrapperIS8_EEEEEC2ESB_RKSF_
FNDA:28,_ZN5boost3_bi6bind_tIN3ros17SerializedMessageEPFS3_RKN13geometry_msgs6Twist_ISaIvEEEENS0_5list1INS_17reference_wrapperIS8_EEEEEclEv
FNF:7
FNH:7
DA:146,28
DA:148,28
DA:168,116
DA:174,56
DA:225,28
DA:241,28
DA:243,28
DA:886,28
DA:890,28
DA:892,28
DA:893,28
LF:11
LH:11
end_of_record
SF:/usr/include/boost/bind/bind_cc.hpp
FN:26,_ZN5boost4bindIN3ros17SerializedMessageERKN13geometry_msgs6Twist_ISaIvEEENS_17reference_wrapperIS7_EEEENS_3_bi6bind_tIT_PFSD_T0_ENSB_9list_av_1IT1_E4typeEEESG_SI_
FNDA:28,_ZN5boost4bindIN3ros17SerializedMessageERKN13geometry_msgs6Twist_ISaIvEEENS_17reference_wrapperIS7_EEEENS_3_bi6bind_tIT_PFSD_T0_ENSB_9list_av_1IT1_E4typeEEESG_SI_
FNF:1
FNH:1
DA:26,28
DA:30,28
LF:2
LH:2
end_of_record
SF:/usr/include/boost/bind/placeholders.hpp
DA:55,2
DA:56,2
DA:57,2
DA:58,2
DA:59,2
DA:60,2
DA:61,2
DA:62,2
DA:63,2
LF:9
LH:9
end_of_record
SF:/usr/include/boost/bind/storage.hpp
FN:42,_ZN5boost3_bi8storage1INS_17reference_wrapperIKN13geometry_msgs6Twist_ISaIvEEEEEEC2ES8_
FNDA:28,_ZN5boost3_bi8storage1INS_17reference_wrapperIKN13geometry_msgs6Twist_ISaIvEEEEEEC2ES8_
FNF:1
FNH:1
DA:42,28
LF:1
LH:1
end_of_record
SF:/usr/include/boost/core/addressof.hpp
DA:29,56
DA:30,56
DA:41,56
DA:116,112
LF:4
LH:4
end_of_record
SF:/usr/include/boost/core/checked_delete.hpp
FN:37,_ZN5boost20checked_array_deleteIhEEvPT_
FN:61,_ZNK5boost21checked_array_deleterIhEclEPh
FNDA:8841,_ZN5boost20checked_array_deleteIhEEvPT_
FNDA:8841,_ZNK5boost21checked_array_deleterIhEclEPh
FNF:2
FNH:2
DA:37,8841
DA:41,8841
DA:42,8840
DA:61,8841
DA:63,8841
DA:64,8840
LF:6
LH:6
end_of_record
SF:/usr/include/boost/core/ref.hpp
DA:73,28
DA:99,28
DA:139,28
LF:3
LH:3
end_of_record
SF:/usr/include/boost/function/function_base.hpp
FN:312,_ZN5boost6detail8function22functor_manager_commonINS_3_bi6bind_tIN3ros17SerializedMessageEPFS6_RKN13geometry_msgs6Twist_ISaIvEEEENS3_5list1INS_17reference_wrapperISB_EEEEEEE12manage_smallERKNS1_15function_bufferERSL_NS1_30functor_manager_operation_typeE
FN:361,_ZN5boost6detail8function15functor_managerINS_3_bi6bind_tIN3ros17SerializedMessageEPFS6_RKN13geometry_msgs6Twist_ISaIvEEEENS3_5list1INS_17reference_wrapperISB_EEEEEEE7managerERKNS1_15function_bufferERSL_NS1_30functor_manager_operation_typeEN4mpl_5bool_ILb1EEE
FN:409,_ZN5boost6detail8function15functor_managerINS_3_bi6bind_tIN3ros17SerializedMessageEPFS6_RKN13geometry_msgs6Twist_ISaIvEEEENS3_5list1INS_17reference_wrapperISB_EEEEEEE7managerERKNS1_15function_bufferERSL_NS1_30functor_manager_operation_typeENS1_16function_obj_tagE
FN:428,_ZN5boost6detail8function15functor_managerINS_3_bi6bind_tIN3ros17SerializedMessageEPFS6_RKN13geometry_msgs6Twist_ISaIvEEEENS3_5list1INS_17reference_wrapperISB_EEEEEEE6manageERKNS1_15function_bufferERSL_NS1_30functor_manager_operation_typeE
FN:633,_ZN5boost13function_baseC2Ev
FN:636,_ZNK5boost13function_base5emptyEv
FN:719,_ZNK5boost13function_base28has_trivial_copy_and_destroyEv
FN:886,_ZN5boost6detail8function16has_empty_targetEz
FNDA:0,_ZN5boost6detail8function22functor_manager_commonINS_3_bi6bind_tIN3ros17SerializedMessageEPFS6_RKN13geometry_msgs6Twist_ISaIvEEEENS3_5list1INS_17reference_wrapperISB_EEEEEEE12manage_smallERKNS1_15function_bufferERSL_NS1_30functor_manager_operation_typeE
FNDA:0,_ZN5boost6detail8function15functor_managerINS_3_bi6bind_tIN3ros17SerializedMessageEPFS6_RKN13geometry_msgs6Twist_ISaIvEEEENS3_5list1INS_17reference_wrapperISB_EEEEEEE7managerERKNS1_15function_bufferERSL_NS1_30functor_manager_operation_typeEN4mpl_5bool_ILb1EEE
FNDA:0,_ZN5boost6detail8function15functor_managerINS_3_bi6bind_tIN3ros17SerializedMessageEPFS6_RKN13geometry_msgs6Twist_ISaIvEEEENS3_5list1INS_17reference_wrapperISB_EEEEEEE7managerERKNS1_15function_bufferERSL_NS1_30functor_manager_operation_typeENS1_16function_obj_tagE
FNDA:0,_ZN5boost6detail8function15functor_managerINS_3_bi6bind_tIN3ros17SerializedMessageEPFS6_RKN13geometry_msgs6Twist_ISaIvEEEENS3_5list1INS_17reference_wrapperISB_EEEEEEE6manageERKNS1_15function_bufferERSL_NS1_30functor_manager_operation_typeE
FNDA:0,_ZN5boost13function_baseC2Ev
FNDA:0,_ZNK5boost13function_base5emptyEv
FNDA:0,_ZNK5boost13function_base28has_trivial_copy_and_destroyEv
FNDA:0,_ZN5boost6detail8function16has_empty_targetEz
FNF:8
FNH:0
DA:312,0
DA:315,0
DA:317,0
DA:318,0
DA:320,0
DA:321,0
DA:324,0
DA:325,0
DA:327,0
DA:330,0
DA:332,0
DA:333,0
DA:334,0
DA:336,0
DA:338,0
DA:339,0
DA:340,0
DA:342,0
DA:361,0
DA:364,0
DA:365,0
DA:409,0
DA:412,0
DA:414,0
DA:428,0
DA:432,0
DA:434,0
DA:435,0
DA:436,0
DA:437,0
DA:440,0
DA:441,0
DA:633,0
DA:636,0
DA:719,0
DA:720,0
DA:886,0
DA:888,0
LF:38
LH:0
end_of_record
SF:/usr/include/boost/function/function_template.hpp
FN:129,_ZN5boost6detail8function21function_obj_invoker0INS_3_bi6bind_tIN3ros17SerializedMessageEPFS6_RKN13geometry_msgs6Twist_ISaIvEEEENS3_5list1INS_17reference_wrapperISB_EEEEEES6_E6invokeERNS1_15function_bufferE
FN:495,_ZNK5boost6detail8function13basic_vtable0IN3ros17SerializedMessageEE9assign_toINS_3_bi6bind_tIS4_PFS4_RKN13geometry_msgs6Twist_ISaIvEEEENS7_5list1INS_17reference_wrapperISD_EEEEEEEEbT_RNS1_15function_bufferE
FN:507,_ZNK5boost6detail8function13basic_vtable1IvRKN3ros25SingleSubscriberPublisherEE5clearERNS1_15function_bufferE
FN:507,_ZNK5boost6detail8function13basic_vtable0IN3ros17SerializedMessageEE5clearERNS1_15function_bufferE
FN:570,_ZNK5boost6detail8function13basic_vtable0IN3ros17SerializedMessageEE14assign_functorINS_3_bi6bind_tIS4_PFS4_RKN13geometry_msgs6Twist_ISaIvEEEENS7_5list1INS_17reference_wrapperISD_EEEEEEEEvT_RNS1_15function_bufferEN4mpl_5bool_ILb1EEE
FN:605,_ZNK5boost6detail8function13basic_vtable0IN3ros17SerializedMessageEE9assign_toINS_3_bi6bind_tIS4_PFS4_RKN13geometry_msgs6Twist_ISaIvEEEENS7_5list1INS_17reference_wrapperISD_EEEEEEEEbT_RNS1_15function_bufferENS1_16function_obj_tagE
FN:684,_ZNK5boost9function0IN3ros17SerializedMessageEE10get_vtableEv
FN:684,_ZNK5boost9function1IvRKN3ros25SingleSubscriberPublisherEE10get_vtableEv
FN:713,_ZN5boost9function1IvRKN3ros25SingleSubscriberPublisherEEC2Ev
FN:718,_ZN5boost9function0IN3ros17SerializedMessageEEC2INS_3_bi6bind_tIS2_PFS2_RKN13geometry_msgs6Twist_ISaIvEEEENS5_5list1INS_17reference_wrapperISB_EEEEEEEET_NS_11enable_if_cIXsrNS_11type_traits7ice_notIXsrNS_11is_integralISK_EE5valueEEE5valueEiE4typeE
FN:753,_ZN5boost9function1IvRKN3ros25SingleSubscriberPublisherEEC2ERKS5_
FN:765,_ZN5boost9function1IvRKN3ros25SingleSubscriberPublisherEED2Ev
FN:765,_ZN5boost9function0IN3ros17SerializedMessageEED2Ev
FN:867,_ZN5boost9function1IvRKN3ros25SingleSubscriberPublisherEE4swapERS5_
FN:879,_ZN5boost9function1IvRKN3ros25SingleSubscriberPublisherEE5clearEv
FN:879,_ZN5boost9function0IN3ros17SerializedMessageEE5clearEv
FN:908,_ZN5boost9function1IvRKN3ros25SingleSubscriberPublisherEE13assign_to_ownERKS5_
FN:921,_ZN5boost9function0IN3ros17SerializedMessageEE9assign_toINS_3_bi6bind_tIS2_PFS2_RKN13geometry_msgs6Twist_ISaIvEEEENS5_5list1INS_17reference_wrapperISB_EEEEEEEEvT_
FN:992,_ZN5boost9function1IvRKN3ros25SingleSubscriberPublisherEE11move_assignERS5_
FN:1056,_ZN5boost8functionIFvRKN3ros25SingleSubscriberPublisherEEED2Ev
FN:1056,_ZN5boost8functionIFN3ros17SerializedMessageEvEED2Ev
FN:1066,_ZN5boost8functionIFvRKN3ros25SingleSubscriberPublisherEEEC2Ev
FN:1069,_ZN5boost8functionIFN3ros17SerializedMessageEvEEC2INS_3_bi6bind_tIS2_PFS2_RKN13geometry_msgs6Twist_ISaIvEEEENS6_5list1INS_17reference_wrapperISC_EEEEEEEET_NS_11enable_if_cIXsrNS_11type_traits7ice_notIXsrNS_11is_integralISL_EE5valueEEE5valueEiE4typeE
FN:1097,_ZN5boost8functionIFvRKN3ros25SingleSubscriberPublisherEEEC2ERKS6_
FN:1107,_ZN5boost8functionIFvRKN3ros25SingleSubscriberPublisherEEEaSERKS6_
FNDA:28,_ZN5boost6detail8function21function_obj_invoker0INS_3_bi6bind_tIN3ros17SerializedMessageEPFS6_RKN13geometry_msgs6Twist_ISaIvEEEENS3_5list1INS_17reference_wrapperISB_EEEEEES6_E6invokeERNS1_15function_bufferE
FNDA:28,_ZNK5boost6detail8function13basic_vtable0IN3ros17SerializedMessageEE9assign_toINS_3_bi6bind_tIS4_PFS4_RKN13geometry_msgs6Twist_ISaIvEEEENS7_5list1INS_17reference_wrapperISD_EEEEEEEEbT_RNS1_15function_bufferE
FNDA:0,_ZNK5boost6detail8function13basic_vtable0IN3ros17SerializedMessageEE5clearERNS1_15function_bufferE
FNDA:0,_ZNK5boost6detail8function13basic_vtable1IvRKN3ros25SingleSubscriberPublisherEE5clearERNS1_15function_bufferE
FNDA:28,_ZNK5boost6detail8function13basic_vtable0IN3ros17SerializedMessageEE14assign_functorINS_3_bi6bind_tIS4_PFS4_RKN13geometry_msgs6Twist_ISaIvEEEENS7_5list1INS_17reference_wrapperISD_EEEEEEEEvT_RNS1_15function_bufferEN4mpl_5bool_ILb1EEE
FNDA:28,_ZNK5boost6detail8function13basic_vtable0IN3ros17SerializedMessageEE9assign_toINS_3_bi6bind_tIS4_PFS4_RKN13geometry_msgs6Twist_ISaIvEEEENS7_5list1INS_17reference_wrapperISD_EEEEEEEEbT_RNS1_15function_bufferENS1_16function_obj_tagE
FNDA:0,_ZNK5boost9function0IN3ros17SerializedMessageEE10get_vtableEv
FNDA:0,_ZNK5boost9function1IvRKN3ros25SingleSubscriberPublisherEE10get_vtableEv
FNDA:36,_ZN5boost9function1IvRKN3ros25SingleSubscriberPublisherEEC2Ev
FNDA:28,_ZN5boost9function0IN3ros17SerializedMessageEEC2INS_3_bi6bind_tIS2_PFS2_RKN13geometry_msgs6Twist_ISaIvEEEENS5_5list1INS_17reference_wrapperISB_EEEEEEEET_NS_11enable_if_cIXsrNS_11type_traits7ice_notIXsrNS_11is_integralISK_EE5valueEEE5valueEiE4typeE
FNDA:12,_ZN5boost9function1IvRKN3ros25SingleSubscriberPublisherEEC2ERKS5_
FNDA:117,_ZN5boost9function0IN3ros17SerializedMessageEED2Ev
FNDA:48,_ZN5boost9function1IvRKN3ros25SingleSubscriberPublisherEED2Ev
FNDA:12,_ZN5boost9function1IvRKN3ros25SingleSubscriberPublisherEE4swapERS5_
FNDA:117,_ZN5boost9function0IN3ros17SerializedMessageEE5clearEv
FNDA:84,_ZN5boost9function1IvRKN3ros25SingleSubscriberPublisherEE5clearEv
FNDA:12,_ZN5boost9function1IvRKN3ros25SingleSubscriberPublisherEE13assign_to_ownERKS5_
FNDA:28,_ZN5boost9function0IN3ros17SerializedMessageEE9assign_toINS_3_bi6bind_tIS2_PFS2_RKN13geometry_msgs6Twist_ISaIvEEEENS5_5list1INS_17reference_wrapperISB_EEEEEEEEvT_
FNDA:36,_ZN5boost9function1IvRKN3ros25SingleSubscriberPublisherEE11move_assignERS5_
FNDA:117,_ZN5boost8functionIFN3ros17SerializedMessageEvEED2Ev
FNDA:36,_ZN5boost8functionIFvRKN3ros25SingleSubscriberPublisherEEED2Ev
FNDA:24,_ZN5boost8functionIFvRKN3ros25SingleSubscriberPublisherEEEC2Ev
FNDA:28,_ZN5boost8functionIFN3ros17SerializedMessageEvEEC2INS_3_bi6bind_tIS2_PFS2_RKN13geometry_msgs6Twist_ISaIvEEEENS6_5list1INS_17reference_wrapperISC_EEEEEEEET_NS_11enable_if_cIXsrNS_11type_traits7ice_notIXsrNS_11is_integralISL_EE5valueEEE5valueEiE4typeE
FNDA:12,_ZN5boost8functionIFvRKN3ros25SingleSubscriberPublisherEEEC2ERKS6_
FNDA:12,_ZN5boost8functionIFvRKN3ros25SingleSubscriberPublisherEEEaSERKS6_
FNF:25
FNH:21
DA:129,28
DA:135,28
DA:138,28
DA:495,28
DA:498,28
DA:507,0
DA:509,0
DA:510,0
DA:511,0
DA:570,28
DA:572,28
DA:573,28
DA:605,28
DA:607,28
DA:608,28
DA:610,28
DA:612,0
DA:684,0
DA:686,0
DA:713,36
DA:718,28
DA:726,28
DA:728,28
DA:729,28
DA:753,12
DA:755,12
DA:756,12
DA:765,165
DA:867,12
DA:869,12
DA:870,0
DA:872,24
DA:873,12
DA:874,12
DA:875,12
DA:879,201
DA:881,201
DA:882,117
DA:883,0
DA:884,117
DA:886,201
DA:908,12
DA:910,12
DA:911,0
DA:912,0
DA:913,0
DA:915,0
DA:918,12
DA:921,28
DA:942,28
DA:943,28
DA:948,28
DA:949,28
DA:951,0
DA:952,28
DA:992,36
DA:994,36
DA:995,0
DA:998,36
DA:999,0
DA:1000,0
DA:1001,0
DA:1003,0
DA:1005,0
DA:1007,36
DA:1009,0
DA:1010,0
DA:1011,0
DA:1056,153
DA:1066,24
DA:1069,28
DA:1077,28
DA:1079,28
DA:1097,12
DA:1107,12
DA:1109,12
DA:1110,12
LF:77
LH:54
end_of_record
SF:/usr/include/boost/smart_ptr/detail/operator_bool.hpp
FN:60,_ZNK5boost10shared_ptrIN3ros9Publisher4ImplEEntEv
FNDA:117,_ZNK5boost10shared_ptrIN3ros9Publisher4ImplEEntEv
FNF:1
FNH:1
DA:60,117
DA:62,117
LF:2
LH:2
end_of_record
SF:/usr/include/boost/smart_ptr/detail/shared_count.hpp
FN:114,_ZN5boost6detail12shared_countC2Ev
FN:154,_ZN5boost6detail12shared_countC2IPhNS_21checked_array_deleterIhEEEET_T0_
FN:441,_ZN5boost6detail12shared_countD2Ev
FN:449,_ZN5boost6detail12shared_countC2ERKS1_
FN:486,_ZN5boost6detail12shared_count4swapERS1_
FNDA:0,_ZN5boost6detail12shared_countC2Ev
FNDA:116,_ZN5boost6detail12shared_countC2IPhNS_21checked_array_deleterIhEEEET_T0_
FNDA:0,_ZN5boost6detail12shared_countD2Ev
FNDA:0,_ZN5boost6detail12shared_countC2ERKS1_
FNDA:0,_ZN5boost6detail12shared_count4swapERS1_
FNF:5
FNH:1
DA:114,0
DA:119,0
DA:154,116
DA:167,116
DA:169,0
DA:171,0
DA:172,0
DA:186,116
DA:441,0
DA:442,0
DA:443,0
DA:447,0
DA:449,0
DA:454,0
DA:455,0
DA:486,0
DA:488,0
DA:489,0
DA:490,0
DA:491,0
LF:20
LH:3
end_of_record
SF:/usr/include/boost/smart_ptr/detail/sp_counted_base_gcc_x86.hpp
FN:35,_ZN5boost6detail23atomic_exchange_and_addEPii
FN:55,_ZN5boost6detail16atomic_incrementEPi
FN:109,_ZN5boost6detail15sp_counted_baseC2Ev
FN:113,_ZN5boost6detail15sp_counted_baseD0Ev
FN:113,_ZN5boost6detail15sp_counted_baseD2Ev
FN:124,_ZN5boost6detail15sp_counted_base7destroyEv
FN:132,_ZN5boost6detail15sp_counted_base12add_ref_copyEv
FN:142,_ZN5boost6detail15sp_counted_base7releaseEv
FN:156,_ZN5boost6detail15sp_counted_base12weak_releaseEv
FNDA:0,_ZN5boost6detail23atomic_exchange_and_addEPii
FNDA:0,_ZN5boost6detail16atomic_incrementEPi
FNDA:0,_ZN5boost6detail15sp_counted_baseC2Ev
FNDA:0,_ZN5boost6detail15sp_counted_baseD0Ev
FNDA:0,_ZN5boost6detail15sp_counted_baseD2Ev
FNDA:0,_ZN5boost6detail15sp_counted_base7destroyEv
FNDA:0,_ZN5boost6detail15sp_counted_base12add_ref_copyEv
FNDA:0,_ZN5boost6detail15sp_counted_base7releaseEv
FNDA:0,_ZN5boost6detail15sp_counted_base12weak_releaseEv
FNF:9
FNH:0
DA:35,0
DA:50,0
DA:52,0
DA:55,0
DA:66,0
DA:67,0
DA:109,0
DA:111,0
DA:113,0
DA:114,0
DA:115,0
DA:124,0
DA:126,0
DA:127,0
DA:132,0
DA:134,0
DA:135,0
DA:142,0
DA:144,0
DA:146,0
DA:147,0
DA:149,0
DA:156,0
DA:158,0
DA:160,0
DA:162,0
LF:26
LH:0
end_of_record
SF:/usr/include/boost/smart_ptr/detail/sp_counted_impl.hpp
FN:127,_ZN5boost6detail18sp_counted_impl_pdIPhNS_21checked_array_deleterIhEEED2Ev
FN:127,_ZN5boost6detail18sp_counted_impl_pdIPhNS_21checked_array_deleterIhEEED0Ev
FN:143,_ZN5boost6detail18sp_counted_impl_pdIPhNS_21checked_array_deleterIhEEEC2ES2_RS4_
FN:151,_ZN5boost6detail18sp_counted_impl_pdIPhNS_21checked_array_deleterIhEEE7disposeEv
FN:156,_ZN5boost6detail18sp_counted_impl_pdIPhNS_21checked_array_deleterIhEEE11get_deleterERKSt9type_info
FN:161,_ZN5boost6detail18sp_counted_impl_pdIPhNS_21checked_array_deleterIhEEE19get_untyped_deleterEv
FNDA:8839,_ZN5boost6detail18sp_counted_impl_pdIPhNS_21checked_array_deleterIhEEED0Ev
FNDA:8839,_ZN5boost6detail18sp_counted_impl_pdIPhNS_21checked_array_deleterIhEEED2Ev
FNDA:116,_ZN5boost6detail18sp_counted_impl_pdIPhNS_21checked_array_deleterIhEEEC2ES2_RS4_
FNDA:8841,_ZN5boost6detail18sp_counted_impl_pdIPhNS_21checked_array_deleterIhEEE7disposeEv
FNDA:0,_ZN5boost6detail18sp_counted_impl_pdIPhNS_21checked_array_deleterIhEEE11get_deleterERKSt9type_info
FNDA:0,_ZN5boost6detail18sp_counted_impl_pdIPhNS_21checked_array_deleterIhEEE19get_untyped_deleterEv
FNF:6
FNH:4
DA:127,17678
DA:143,116
DA:145,116
DA:151,8841
DA:153,8841
DA:154,8840
DA:156,0
DA:158,0
DA:161,0
DA:163,0
LF:10
LH:6
end_of_record
SF:/usr/include/boost/smart_ptr/shared_array.hpp
FN:44,_ZN5boost12shared_arrayIhED2Ev
FN:56,_ZN5boost12shared_arrayIhEC2Ev
FN:69,_ZN5boost12shared_arrayIhEC2IhEEPT_
FN:175,_ZN5boost12shared_arrayIhE5resetIhEEvPT_
FN:203,_ZNK5boost12shared_arrayIhE3getEv
FN:221,_ZN5boost12shared_arrayIhE4swapERS1_
FNDA:233,_ZN5boost12shared_arrayIhED2Ev
FNDA:233,_ZN5boost12shared_arrayIhEC2Ev
FNDA:116,_ZN5boost12shared_arrayIhEC2IhEEPT_
FNDA:116,_ZN5boost12shared_arrayIhE5resetIhEEvPT_
FNDA:116,_ZNK5boost12shared_arrayIhE3getEv
FNDA:116,_ZN5boost12shared_arrayIhE4swapERS1_
FNF:6
FNH:6
DA:44,233
DA:56,233
DA:58,233
DA:69,116
DA:71,116
DA:72,116
DA:175,116
DA:177,116
DA:178,116
DA:179,116
DA:203,116
DA:205,116
DA:221,116
DA:223,116
DA:224,116
DA:225,116
LF:16
LH:16
end_of_record
SF:/usr/include/boost/smart_ptr/shared_ptr.hpp
FN:251,_ZN5boost6detail21sp_assert_convertibleIA_hS2_EEvv
FN:323,_ZN5boost10shared_ptrIN3ros9Publisher4ImplEED2Ev
FN:323,_ZN5boost10shared_ptrIKvED2Ev
FN:334,_ZN5boost10shared_ptrIKvEC2Ev
FN:334,_ZN5boost10shared_ptrIN3ros9Publisher4ImplEEC2Ev
FN:392,_ZN5boost10shared_ptrIN3ros9Publisher4ImplEEC2ERKS4_
FN:500,_ZN5boost10shared_ptrIN3ros9Publisher4ImplEEaSERKS4_
FN:646,_ZNK5boost10shared_ptrIKN8std_msgs8Float32_ISaIvEEEEptEv
FN:646,_ZNK5boost10shared_ptrIN3ros9Publisher4ImplEEptEv
FN:646,_ZNK5boost10shared_ptrIKN8std_msgs5Int8_ISaIvEEEEptEv
FN:679,_ZN5boost10shared_ptrIN3ros9Publisher4ImplEE4swapERS4_
FNDA:116,_ZN5boost6detail21sp_assert_convertibleIA_hS2_EEvv
FNDA:6,_ZN5boost10shared_ptrIN3ros9Publisher4ImplEED2Ev
FNDA:0,_ZN5boost10shared_ptrIKvED2Ev
FNDA:6,_ZN5boost10shared_ptrIN3ros9Publisher4ImplEEC2Ev
FNDA:0,_ZN5boost10shared_ptrIKvEC2Ev
FNDA:6,_ZN5boost10shared_ptrIN3ros9Publisher4ImplEEC2ERKS4_
FNDA:6,_ZN5boost10shared_ptrIN3ros9Publisher4ImplEEaSERKS4_
FNDA:25,_ZNK5boost10shared_ptrIKN8std_msgs5Int8_ISaIvEEEEptEv
FNDA:28,_ZNK5boost10shared_ptrIKN8std_msgs8Float32_ISaIvEEEEptEv
FNDA:351,_ZNK5boost10shared_ptrIN3ros9Publisher4ImplEEptEv
FNDA:6,_ZN5boost10shared_ptrIN3ros9Publisher4ImplEE4swapERS4_
FNF:11
FNH:9
DA:251,116
DA:265,116
DA:323,6
DA:334,6
DA:336,6
DA:392,6
DA:394,6
DA:500,6
DA:502,6
DA:503,6
DA:646,404
DA:648,404
DA:649,404
DA:679,6
DA:681,6
DA:682,6
DA:683,6
LF:17
LH:17
end_of_record
SF:/usr/include/c++/5/bits/alloc_traits.h
FN:516,_ZNSt16allocator_traitsISaISt13_Rb_tree_nodeISt4pairIKNSt7__cxx1112basic_stringIcSt11char_traitsIcESaIcEEES7_EEEE10deallocateERSB_PSA_m
FN:541,_ZNSt16allocator_traitsISaISt13_Rb_tree_nodeISt4pairIKNSt7__cxx1112basic_stringIcSt11char_traitsIcESaIcEEES7_EEEE7destroyIS9_EEvRSB_PT_
FNDA:0,_ZNSt16allocator_traitsISaISt13_Rb_tree_nodeISt4pairIKNSt7__cxx1112basic_stringIcSt11char_traitsIcESaIcEEES7_EEEE10deallocateERSB_PSA_m
FNDA:0,_ZNSt16allocator_traitsISaISt13_Rb_tree_nodeISt4pairIKNSt7__cxx1112basic_stringIcSt11char_traitsIcESaIcEEES7_EEEE7destroyIS9_EEvRSB_PT_
FNF:2
FNH:0
DA:516,0
DA:517,0
DA:541,0
DA:542,0
LF:4
LH:0
end_of_record
SF:/usr/include/c++/5/bits/allocator.h
FN:113,_ZNSaISt13_Rb_tree_nodeISt4pairIKNSt7__cxx1112basic_stringIcSt11char_traitsIcESaIcEEES6_EEEC2Ev
FN:121,_ZNSaISt13_Rb_tree_nodeISt4pairIKNSt7__cxx1112basic_stringIcSt11char_traitsIcESaIcEEES6_EEED2Ev
FNDA:0,_ZNSaISt13_Rb_tree_nodeISt4pairIKNSt7__cxx1112basic_stringIcSt11char_traitsIcESaIcEEES6_EEEC2Ev
FNDA:0,_ZNSaISt13_Rb_tree_nodeISt4pairIKNSt7__cxx1112basic_stringIcSt11char_traitsIcESaIcEEES6_EEED2Ev
FNF:2
FNH:0
DA:113,0
DA:121,0
LF:2
LH:0
end_of_record
SF:/usr/include/c++/5/bits/basic_string.h
FN:4937,_ZSteqIcSt11char_traitsIcESaIcEEbRKNSt7__cxx1112basic_stringIT_T0_T1_EEPKS5_
FNDA:351,_ZSteqIcSt11char_traitsIcESaIcEEbRKNSt7__cxx1112basic_stringIT_T0_T1_EEPKS5_
FNF:1
FNH:1
DA:4937,351
DA:4939,351
LF:2
LH:2
end_of_record
SF:/usr/include/c++/5/bits/ios_base.h
FN:129,_ZStorSt13_Ios_OpenmodeS_
FNDA:203,_ZStorSt13_Ios_OpenmodeS_
FNF:1
FNH:1
DA:129,203
DA:130,203
LF:2
LH:2
end_of_record
SF:/usr/include/c++/5/bits/move.h
FN:101,_ZSt4moveIRPhEONSt16remove_referenceIT_E4typeEOS3_
FN:101,_ZSt4moveIRPN3ros9Publisher4ImplEEONSt16remove_referenceIT_E4typeEOS6_
FN:176,_ZSt4swapIPhEvRT_S2_
FN:176,_ZSt4swapIPN3ros9Publisher4ImplEEvRT_S5_
FNDA:348,_ZSt4moveIRPhEONSt16remove_referenceIT_E4typeEOS3_
FNDA:18,_ZSt4moveIRPN3ros9Publisher4ImplEEONSt16remove_referenceIT_E4typeEOS6_
FNDA:116,_ZSt4swapIPhEvRT_S2_
FNDA:6,_ZSt4swapIPN3ros9Publisher4ImplEEvRT_S5_
FNF:4
FNH:4
DA:101,366
DA:102,366
DA:176,122
DA:185,122
DA:186,122
DA:187,122
DA:188,122
LF:7
LH:7
end_of_record
SF:/usr/include/c++/5/bits/stl_function.h
FN:105,_ZNSt14unary_functionIRKN3ros25SingleSubscriberPublisherEvEC2Ev
FNDA:48,_ZNSt14unary_functionIRKN3ros25SingleSubscriberPublisherEvEC2Ev
FNF:1
FNH:1
DA:105,48
LF:1
LH:1
end_of_record
SF:/usr/include/c++/5/bits/stl_map.h
FN:96,_ZNSt3mapINSt7__cxx1112basic_stringIcSt11char_traitsIcESaIcEEES5_St4lessIS5_ESaISt4pairIKS5_S5_EEED2Ev
FN:162,_ZNSt3mapINSt7__cxx1112basic_stringIcSt11char_traitsIcESaIcEEES5_St4lessIS5_ESaISt4pairIKS5_S5_EEEC2Ev
FNDA:0,_ZNSt3mapINSt7__cxx1112basic_stringIcSt11char_traitsIcESaIcEEES5_St4lessIS5_ESaISt4pairIKS5_S5_EEED2Ev
FNDA:0,_ZNSt3mapINSt7__cxx1112basic_stringIcSt11char_traitsIcESaIcEEES5_St4lessIS5_ESaISt4pairIKS5_S5_EEEC2Ev
FNF:2
FNH:0
DA:96,0
DA:162,0
DA:166,0
LF:3
LH:0
end_of_record
SF:/usr/include/c++/5/bits/stl_pair.h
FN:96,_ZNSt4pairIKNSt7__cxx1112basic_stringIcSt11char_traitsIcESaIcEEES5_ED2Ev
FNDA:0,_ZNSt4pairIKNSt7__cxx1112basic_stringIcSt11char_traitsIcESaIcEEES5_ED2Ev
FNF:1
FNH:0
DA:96,0
LF:1
LH:0
end_of_record
SF:/usr/include/c++/5/bits/stl_tree.h
FN:152,_ZNSt13_Rb_tree_nodeISt4pairIKNSt7__cxx1112basic_stringIcSt11char_traitsIcESaIcEEES6_EE9_M_valptrEv
FN:477,_ZNSt8_Rb_treeINSt7__cxx1112basic_stringIcSt11char_traitsIcESaIcEEESt4pairIKS5_S5_ESt10_Select1stIS8_ESt4lessIS5_ESaIS8_EE21_M_get_Node_allocatorEv
FN:494,_ZNSt8_Rb_treeINSt7__cxx1112basic_stringIcSt11char_traitsIcESaIcEEESt4pairIKS5_S5_ESt10_Select1stIS8_ESt4lessIS5_ESaIS8_EE11_M_put_nodeEPSt13_Rb_tree_nodeIS8_E
FN:551,_ZNSt8_Rb_treeINSt7__cxx1112basic_stringIcSt11char_traitsIcESaIcEEESt4pairIKS5_S5_ESt10_Select1stIS8_ESt4lessIS5_ESaIS8_EE15_M_destroy_nodeEPSt13_Rb_tree_nodeIS8_E
FN:559,_ZNSt8_Rb_treeINSt7__cxx1112basic_stringIcSt11char_traitsIcESaIcEEESt4pairIKS5_S5_ESt10_Select1stIS8_ESt4lessIS5_ESaIS8_EE12_M_drop_nodeEPSt13_Rb_tree_nodeIS8_E
FN:580,_ZNSt8_Rb_treeINSt7__cxx1112basic_stringIcSt11char_traitsIcESaIcEEESt4pairIKS5_S5_ESt10_Select1stIS8_ESt4lessIS5_ESaIS8_EE13_Rb_tree_implISC_Lb1EED2Ev
FN:586,_ZNSt8_Rb_treeINSt7__cxx1112basic_stringIcSt11char_traitsIcESaIcEEESt4pairIKS5_S5_ESt10_Select1stIS8_ESt4lessIS5_ESaIS8_EE13_Rb_tree_implISC_Lb1EEC2Ev
FN:614,_ZNSt8_Rb_treeINSt7__cxx1112basic_stringIcSt11char_traitsIcESaIcEEESt4pairIKS5_S5_ESt10_Select1stIS8_ESt4lessIS5_ESaIS8_EE13_Rb_tree_implISC_Lb1EE13_M_initializeEv
FN:651,_ZNSt8_Rb_treeINSt7__cxx1112basic_stringIcSt11char_traitsIcESaIcEEESt4pairIKS5_S5_ESt10_Select1stIS8_ESt4lessIS5_ESaIS8_EE8_M_beginEv
FN:678,_ZNSt8_Rb_treeINSt7__cxx1112basic_stringIcSt11char_traitsIcESaIcEEESt4pairIKS5_S5_ESt10_Select1stIS8_ESt4lessIS5_ESaIS8_EE7_S_leftEPSt18_Rb_tree_node_base
FN:686,_ZNSt8_Rb_treeINSt7__cxx1112basic_stringIcSt11char_traitsIcESaIcEEESt4pairIKS5_S5_ESt10_Select1stIS8_ESt4lessIS5_ESaIS8_EE8_S_rightEPSt18_Rb_tree_node_base
FN:807,_ZNSt8_Rb_treeINSt7__cxx1112basic_stringIcSt11char_traitsIcESaIcEEESt4pairIKS5_S5_ESt10_Select1stIS8_ESt4lessIS5_ESaIS8_EEC2Ev
FN:857,_ZNSt8_Rb_treeINSt7__cxx1112basic_stringIcSt11char_traitsIcESaIcEEESt4pairIKS5_S5_ESt10_Select1stIS8_ESt4lessIS5_ESaIS8_EED2Ev
FN:1606,_ZNSt8_Rb_treeINSt7__cxx1112basic_stringIcSt11char_traitsIcESaIcEEESt4pairIKS5_S5_ESt10_Select1stIS8_ESt4lessIS5_ESaIS8_EE8_M_eraseEPSt13_Rb_tree_nodeIS8_E
FNDA:0,_ZNSt13_Rb_tree_nodeISt4pairIKNSt7__cxx1112basic_stringIcSt11char_traitsIcESaIcEEES6_EE9_M_valptrEv
FNDA:0,_ZNSt8_Rb_treeINSt7__cxx1112basic_stringIcSt11char_traitsIcESaIcEEESt4pairIKS5_S5_ESt10_Select1stIS8_ESt4lessIS5_ESaIS8_EE21_M_get_Node_allocatorEv
FNDA:0,_ZNSt8_Rb_treeINSt7__cxx1112basic_stringIcSt11char_traitsIcESaIcEEESt4pairIKS5_S5_ESt10_Select1stIS8_ESt4lessIS5_ESaIS8_EE11_M_put_nodeEPSt13_Rb_tree_nodeIS8_E
FNDA:0,_ZNSt8_Rb_treeINSt7__cxx1112basic_stringIcSt11char_traitsIcESaIcEEESt4pairIKS5_S5_ESt10_Select1stIS8_ESt4lessIS5_ESaIS8_EE15_M_destroy_nodeEPSt13_Rb_tree_nodeIS8_E
FNDA:0,_ZNSt8_Rb_treeINSt7__cxx1112basic_stringIcSt11char_traitsIcESaIcEEESt4pairIKS5_S5_ESt10_Select1stIS8_ESt4lessIS5_ESaIS8_EE12_M_drop_nodeEPSt13_Rb_tree_nodeIS8_E
FNDA:0,_ZNSt8_Rb_treeINSt7__cxx1112basic_stringIcSt11char_traitsIcESaIcEEESt4pairIKS5_S5_ESt10_Select1stIS8_ESt4lessIS5_ESaIS8_EE13_Rb_tree_implISC_Lb1EED2Ev
FNDA:0,_ZNSt8_Rb_treeINSt7__cxx1112basic_stringIcSt11char_traitsIcESaIcEEESt4pairIKS5_S5_ESt10_Select1stIS8_ESt4lessIS5_ESaIS8_EE13_Rb_tree_implISC_Lb1EEC2Ev
FNDA:0,_ZNSt8_Rb_treeINSt7__cxx1112basic_stringIcSt11char_traitsIcESaIcEEESt4pairIKS5_S5_ESt10_Select1stIS8_ESt4lessIS5_ESaIS8_EE13_Rb_tree_implISC_Lb1EE13_M_initializeEv
FNDA:0,_ZNSt8_Rb_treeINSt7__cxx1112basic_stringIcSt11char_traitsIcESaIcEEESt4pairIKS5_S5_ESt10_Select1stIS8_ESt4lessIS5_ESaIS8_EE8_M_beginEv
FNDA:0,_ZNSt8_Rb_treeINSt7__cxx1112basic_stringIcSt11char_traitsIcESaIcEEESt4pairIKS5_S5_ESt10_Select1stIS8_ESt4lessIS5_ESaIS8_EE7_S_leftEPSt18_Rb_tree_node_base
FNDA:0,_ZNSt8_Rb_treeINSt7__cxx1112basic_stringIcSt11char_traitsIcESaIcEEESt4pairIKS5_S5_ESt10_Select1stIS8_ESt4lessIS5_ESaIS8_EE8_S_rightEPSt18_Rb_tree_node_base
FNDA:0,_ZNSt8_Rb_treeINSt7__cxx1112basic_stringIcSt11char_traitsIcESaIcEEESt4pairIKS5_S5_ESt10_Select1stIS8_ESt4lessIS5_ESaIS8_EEC2Ev
FNDA:0,_ZNSt8_Rb_treeINSt7__cxx1112basic_stringIcSt11char_traitsIcESaIcEEESt4pairIKS5_S5_ESt10_Select1stIS8_ESt4lessIS5_ESaIS8_EED2Ev
FNDA:0,_ZNSt8_Rb_treeINSt7__cxx1112basic_stringIcSt11char_traitsIcESaIcEEESt4pairIKS5_S5_ESt10_Select1stIS8_ESt4lessIS5_ESaIS8_EE8_M_eraseEPSt13_Rb_tree_nodeIS8_E
FNF:14
FNH:0
DA:152,0
DA:153,0
DA:477,0
DA:478,0
DA:494,0
DA:495,0
DA:551,0
DA:553,0
DA:555,0
DA:559,0
DA:561,0
DA:562,0
DA:563,0
DA:580,0
DA:586,0
DA:588,0
DA:589,0
DA:614,0
DA:616,0
DA:617,0
DA:618,0
DA:619,0
DA:620,0
DA:651,0
DA:652,0
DA:678,0
DA:679,0
DA:686,0
DA:687,0
DA:807,0
DA:857,0
DA:858,0
DA:1606,0
DA:1610,0
DA:1612,0
DA:1613,0
DA:1614,0
DA:1615,0
DA:1617,0
LF:39
LH:0
end_of_record
SF:/usr/include/c++/5/ext/aligned_buffer.h
FN:62,_ZN9__gnu_cxx16__aligned_membufISt4pairIKNSt7__cxx1112basic_stringIcSt11char_traitsIcESaIcEEES7_EE7_M_addrEv
FN:70,_ZN9__gnu_cxx16__aligned_membufISt4pairIKNSt7__cxx1112basic_stringIcSt11char_traitsIcESaIcEEES7_EE6_M_ptrEv
FNDA:0,_ZN9__gnu_cxx16__aligned_membufISt4pairIKNSt7__cxx1112basic_stringIcSt11char_traitsIcESaIcEEES7_EE7_M_addrEv
FNDA:0,_ZN9__gnu_cxx16__aligned_membufISt4pairIKNSt7__cxx1112basic_stringIcSt11char_traitsIcESaIcEEES7_EE6_M_ptrEv
FNF:2
FNH:0
DA:62,0
DA:63,0
DA:70,0
DA:71,0
LF:4
LH:0
end_of_record
SF:/usr/include/c++/5/ext/new_allocator.h
FN:79,_ZN9__gnu_cxx13new_allocatorISt13_Rb_tree_nodeISt4pairIKNSt7__cxx1112basic_stringIcSt11char_traitsIcESaIcEEES8_EEEC2Ev
FN:86,_ZN9__gnu_cxx13new_allocatorISt13_Rb_tree_nodeISt4pairIKNSt7__cxx1112basic_stringIcSt11char_traitsIcESaIcEEES8_EEED2Ev
FN:109,_ZN9__gnu_cxx13new_allocatorISt13_Rb_tree_nodeISt4pairIKNSt7__cxx1112basic_stringIcSt11char_traitsIcESaIcEEES8_EEE10deallocateEPSB_m
FN:124,_ZN9__gnu_cxx13new_allocatorISt13_Rb_tree_nodeISt4pairIKNSt7__cxx1112basic_stringIcSt11char_traitsIcESaIcEEES8_EEE7destroyISA_EEvPT_
FNDA:0,_ZN9__gnu_cxx13new_allocatorISt13_Rb_tree_nodeISt4pairIKNSt7__cxx1112basic_stringIcSt11char_traitsIcESaIcEEES8_EEEC2Ev
FNDA:0,_ZN9__gnu_cxx13new_allocatorISt13_Rb_tree_nodeISt4pairIKNSt7__cxx1112basic_stringIcSt11char_traitsIcESaIcEEES8_EEED2Ev
FNDA:0,_ZN9__gnu_cxx13new_allocatorISt13_Rb_tree_nodeISt4pairIKNSt7__cxx1112basic_stringIcSt11char_traitsIcESaIcEEES8_EEE10deallocateEPSB_m
FNDA:0,_ZN9__gnu_cxx13new_allocatorISt13_Rb_tree_nodeISt4pairIKNSt7__cxx1112basic_stringIcSt11char_traitsIcESaIcEEES8_EEE7destroyISA_EEvPT_
FNF:4
FNH:0
DA:79,0
DA:86,0
DA:109,0
DA:110,0
DA:124,0
LF:5
LH:0
end_of_record
SF:/usr/include/c++/5/iostream
DA:74,2
LF:1
LH:1
end_of_record
SF:/usr/include/c++/5/new
FN:129,_ZnwmPv
FNDA:0,_ZnwmPv
FNF:1
FNH:0
DA:129,0
DA:130,0
LF:2
LH:0
end_of_record
SF:/usr/include/c++/5/typeinfo
FN:99,_ZNKSt9type_info4nameEv
FN:120,_ZNKSt9type_infoeqERKS_
FNDA:0,_ZNKSt9type_info4nameEv
FNDA:0,_ZNKSt9type_infoeqERKS_
FNF:2
FNH:0
DA:99,0
DA:100,0
DA:120,0
DA:122,0
DA:123,0
DA:124,0
LF:6
LH:0
end_of_record
TN:
SF:/home/zach/catkin_ws/src/final_map_mobile/src/LaneDetect.cpp
FN:59,_ZN10LaneDetectC2Ev
FN:70,_ZN10LaneDetectD2Ev
FN:81,_ZN10LaneDetect13imageCallbackERKN5boost10shared_ptrIKN11sensor_msgs6Image_ISaIvEEEEE
FN:99,_ZN10LaneDetect13proccessImageEN2cv3MatE
FN:214,_ZN10LaneDetect11getLaneDataEv
FN:217,_GLOBAL__sub_I__ZN10LaneDetectC2Ev
FNDA:2,_ZN10LaneDetectC2Ev
FNDA:2,_ZN10LaneDetectD2Ev
FNDA:50,_ZN10LaneDetect13imageCallbackERKN5boost10shared_ptrIKN11sensor_msgs6Image_ISaIvEEEEE
FNDA:50,_ZN10LaneDetect13proccessImageEN2cv3MatE
FNDA:0,_ZN10LaneDetect11getLaneDataEv
FNDA:2,_GLOBAL__sub_I__ZN10LaneDetectC2Ev
FNDA:2,_Z41__static_initialization_and_destruction_0ii
FNF:7
FNH:6
DA:59,2
DA:60,2
DA:61,2
DA:70,4
DA:71,2
DA:72,2
DA:81,50
DA:82,100
DA:85,50
DA:86,50
DA:87,50
DA:89,0
DA:90,0
DA:93,100
DA:94,50
DA:95,50
DA:96,50
DA:97,50
DA:99,50
DA:100,100
DA:102,50
DA:103,50
DA:104,100
DA:105,50
DA:109,100
DA:110,50
DA:111,50
DA:112,50
DA:113,50
DA:114,100
DA:116,50
DA:117,100
DA:119,50
DA:120,50
DA:121,50
DA:122,50
DA:123,50
DA:124,50
DA:125,50
DA:127,1774
DA:128,1724
DA:129,1724
DA:130,1724
DA:131,1225
DA:132,1225
DA:133,1225
DA:135,499
DA:136,499
DA:137,499
DA:140,50
DA:141,50
DA:142,50
DA:143,50
DA:145,50
DA:146,50
DA:147,50
DA:148,50
DA:149,50
DA:150,50
DA:151,50
DA:152,50
DA:153,50
DA:154,50
DA:156,50
DA:157,50
DA:158,50
DA:159,50
DA:160,50
DA:161,50
DA:162,50
DA:163,50
DA:164,50
DA:166,50
DA:167,50
DA:168,50
DA:169,50
DA:170,50
DA:171,50
DA:172,50
DA:173,50
DA:174,50
DA:175,50
DA:176,50
DA:177,50
DA:179,0
DA:181,50
DA:182,50
DA:184,50
DA:185,50
DA:186,50
DA:187,50
DA:188,50
DA:190,50
DA:191,0
DA:192,50
DA:193,50
DA:194,0
DA:195,50
DA:196,0
DA:197,0
DA:199,50
DA:200,50
DA:201,0
DA:202,50
DA:203,0
DA:204,50
DA:205,50
DA:206,100
DA:214,0
DA:215,0
DA:216,0
DA:217,6
LF:112
LH:100
end_of_record
SF:/opt/ros/kinetic/include/opencv-3.3.1-dev/opencv2/core/cvstd.hpp
FN:571,_ZN2cv6StringC2ERKS0_
FN:596,_ZN2cv6StringC2EPKc
FN:646,_ZN2cv6StringD2Ev
FN:652,_ZN2cv6StringaSERKS0_
FN:745,_ZNK2cv6String5c_strEv
FNDA:0,_ZN2cv6StringC2ERKS0_
FNDA:89,_ZN2cv6StringC2EPKc
FNDA:0,_ZN2cv6StringD2Ev
FNDA:0,_ZN2cv6StringaSERKS0_
FNDA:0,_ZNK2cv6String5c_strEv
FNF:5
FNH:1
DA:571,0
DA:572,0
DA:574,0
DA:575,0
DA:576,0
DA:596,89
DA:597,89
DA:599,89
DA:600,89
DA:601,89
DA:602,89
DA:646,0
DA:648,0
DA:649,0
DA:652,0
DA:654,0
DA:656,0
DA:657,0
DA:658,0
DA:659,0
DA:660,0
DA:745,0
DA:747,0
LF:23
LH:6
end_of_record
SF:/opt/ros/kinetic/include/opencv-3.3.1-dev/opencv2/core/fast_math.hpp
FN:101,_ZL7cvRoundd
FNDA:400,_ZL7cvRoundd
FNF:1
FNH:1
DA:101,400
DA:105,400
DA:106,400
LF:3
LH:3
end_of_record
SF:/opt/ros/kinetic/include/opencv-3.3.1-dev/opencv2/core/mat.hpp
FN:281,_ZN2cv12_OutputArrayD2Ev
FN:366,_ZN2cv17_InputOutputArrayD2Ev
FNDA:528,_ZN2cv12_OutputArrayD2Ev
FNDA:200,_ZN2cv17_InputOutputArrayD2Ev
FNF:2
FNH:2
DA:281,528
DA:366,200
LF:2
LH:2
end_of_record
SF:/opt/ros/kinetic/include/opencv-3.3.1-dev/opencv2/core/mat.inl.hpp
FN:66,_ZN2cv11_InputArray4initEiPKv
FN:69,_ZN2cv11_InputArray4initEiPKvNS_5Size_IiEE
FN:76,_ZN2cv11_InputArrayC2Ev
FN:78,_ZN2cv11_InputArrayC2ERKNS_3MatE
FN:114,_ZN2cv11_InputArrayC2IdLi4ELi1EEERKNS_4MatxIT_XT0_EXT1_EEE
FN:143,_ZN2cv11_InputArrayD2Ev
FN:164,_ZN2cv12_OutputArrayC2Ev
FN:166,_ZN2cv12_OutputArrayC2ERNS_3MatE
FN:172,_ZN2cv12_OutputArrayC2INS_3VecIfLi2EEEEERSt6vectorIT_SaIS5_EE
FN:285,_ZN2cv17_InputOutputArrayC2ERNS_3MatE
FN:402,_ZN2cv3MatC2Ev
FN:476,_ZN2cv3MatC2ERKS0_
FN:688,_ZN2cv3MatD2Ev
FN:696,_ZN2cv3MataSERKS0_
FN:801,_ZN2cv3Mat7releaseEv
FN:1401,_ZN2cv7MatSizeC2EPi
FN:1462,_ZN2cv7MatStepC2Em
FN:1468,_ZNK2cv7MatStepixEi
FN:1474,_ZN2cv7MatStepixEi
FNDA:1712,_ZN2cv11_InputArray4initEiPKv
FNDA:100,_ZN2cv11_InputArray4initEiPKvNS_5Size_IiEE
FNDA:528,_ZN2cv11_InputArrayC2Ev
FNDA:456,_ZN2cv11_InputArrayC2ERKNS_3MatE
FNDA:100,_ZN2cv11_InputArrayC2IdLi4ELi1EEERKNS_4MatxIT_XT0_EXT1_EEE
FNDA:1084,_ZN2cv11_InputArrayD2Ev
FNDA:200,_ZN2cv12_OutputArrayC2Ev
FNDA:278,_ZN2cv12_OutputArrayC2ERNS_3MatE
FNDA:50,_ZN2cv12_OutputArrayC2INS_3VecIfLi2EEEEERSt6vectorIT_SaIS5_EE
FNDA:200,_ZN2cv17_InputOutputArrayC2ERNS_3MatE
FNDA:397,_ZN2cv3MatC2Ev
FNDA:2451,_ZN2cv3MatC2ERKS0_
FNDA:14272,_ZN2cv3MatD2Ev
FNDA:1638,_ZN2cv3MataSERKS0_
FNDA:17491,_ZN2cv3Mat7releaseEv
FNDA:2848,_ZN2cv7MatSizeC2EPi
FNDA:2848,_ZN2cv7MatStepC2Em
FNDA:8177,_ZNK2cv7MatStepixEi
FNDA:8177,_ZN2cv7MatStepixEi
FNF:19
FNH:19
DA:66,1712
DA:67,1712
DA:69,100
